
AVRASM ver. 2.1.30  C:\Documents and Settings\Explorer\Desktop\LIFOCO 2012\List\penyisihan.asm Sat Dec 15 00:21:19 2012

C:\Documents and Settings\Explorer\Desktop\LIFOCO 2012\List\penyisihan.asm(1059): warning: Register r5 already defined by the .DEF directive
C:\Documents and Settings\Explorer\Desktop\LIFOCO 2012\List\penyisihan.asm(1060): warning: Register r4 already defined by the .DEF directive
C:\Documents and Settings\Explorer\Desktop\LIFOCO 2012\List\penyisihan.asm(1061): warning: Register r7 already defined by the .DEF directive
C:\Documents and Settings\Explorer\Desktop\LIFOCO 2012\List\penyisihan.asm(1062): warning: Register r6 already defined by the .DEF directive
C:\Documents and Settings\Explorer\Desktop\LIFOCO 2012\List\penyisihan.asm(1063): warning: Register r9 already defined by the .DEF directive
C:\Documents and Settings\Explorer\Desktop\LIFOCO 2012\List\penyisihan.asm(1064): warning: Register r8 already defined by the .DEF directive
C:\Documents and Settings\Explorer\Desktop\LIFOCO 2012\List\penyisihan.asm(1065): warning: Register r11 already defined by the .DEF directive
C:\Documents and Settings\Explorer\Desktop\LIFOCO 2012\List\penyisihan.asm(1066): warning: Register r10 already defined by the .DEF directive
C:\Documents and Settings\Explorer\Desktop\LIFOCO 2012\List\penyisihan.asm(1067): warning: Register r13 already defined by the .DEF directive
C:\Documents and Settings\Explorer\Desktop\LIFOCO 2012\List\penyisihan.asm(1068): warning: Register r12 already defined by the .DEF directive
                 
                 
                 ;CodeVisionAVR C Compiler V2.05.0 Professional
                 ;(C) Copyright 1998-2010 Pavel Haiduc, HP InfoTech s.r.l.
                 ;http://www.hpinfotech.com
                 
                 ;Chip type                : ATmega32
                 ;Program type             : Application
                 ;Clock frequency          : 12.000000 MHz
                 ;Memory model             : Small
                 ;Optimize for             : Size
                 ;(s)printf features       : int, width
                 ;(s)scanf features        : int, width
                 ;External RAM size        : 0
                 ;Data Stack size          : 512 byte(s)
                 ;Heap size                : 0 byte(s)
                 ;Promote 'char' to 'int'  : Yes
                 ;'char' is unsigned       : Yes
                 ;8 bit enums              : Yes
                 ;global 'const' stored in FLASH: No
                 ;Enhanced core instructions    : On
                 ;Smart register allocation     : On
                 ;Automatic register allocation : On
                 
                 	#pragma AVRPART ADMIN PART_NAME ATmega32
                 	#pragma AVRPART MEMORY PROG_FLASH 32768
                 	#pragma AVRPART MEMORY EEPROM 1024
                 	#pragma AVRPART MEMORY INT_SRAM SIZE 2143
                 	#pragma AVRPART MEMORY INT_SRAM START_ADDR 0x60
                 
                 	#define CALL_SUPPORTED 1
                 
                 	.LISTMAC
                 	.EQU UDRE=0x5
                 	.EQU RXC=0x7
                 	.EQU USR=0xB
                 	.EQU UDR=0xC
                 	.EQU SPSR=0xE
                 	.EQU SPDR=0xF
                 	.EQU EERE=0x0
                 	.EQU EEWE=0x1
                 	.EQU EEMWE=0x2
                 	.EQU EECR=0x1C
                 	.EQU EEDR=0x1D
                 	.EQU EEARL=0x1E
                 	.EQU EEARH=0x1F
                 	.EQU WDTCR=0x21
                 	.EQU MCUCR=0x35
                 	.EQU GICR=0x3B
                 	.EQU SPL=0x3D
                 	.EQU SPH=0x3E
                 	.EQU SREG=0x3F
                 
                 	.DEF R0X0=R0
                 	.DEF R0X1=R1
                 	.DEF R0X2=R2
                 	.DEF R0X3=R3
                 	.DEF R0X4=R4
                 	.DEF R0X5=R5
                 	.DEF R0X6=R6
                 	.DEF R0X7=R7
                 	.DEF R0X8=R8
                 	.DEF R0X9=R9
                 	.DEF R0XA=R10
                 	.DEF R0XB=R11
                 	.DEF R0XC=R12
                 	.DEF R0XD=R13
                 	.DEF R0XE=R14
                 	.DEF R0XF=R15
                 	.DEF R0X10=R16
                 	.DEF R0X11=R17
                 	.DEF R0X12=R18
                 	.DEF R0X13=R19
                 	.DEF R0X14=R20
                 	.DEF R0X15=R21
                 	.DEF R0X16=R22
                 	.DEF R0X17=R23
                 	.DEF R0X18=R24
                 	.DEF R0X19=R25
                 	.DEF R0X1A=R26
                 	.DEF R0X1B=R27
                 	.DEF R0X1C=R28
                 	.DEF R0X1D=R29
                 	.DEF R0X1E=R30
                 	.DEF R0X1F=R31
                 
                 	.EQU __SRAM_START=0x0060
                 	.EQU __SRAM_END=0x085F
                 	.EQU __DSTACK_SIZE=0x0200
                 	.EQU __HEAP_SIZE=0x0000
                 	.EQU __CLEAR_SRAM_SIZE=__SRAM_END-__SRAM_START+1
                 
                 	.MACRO __CPD1N
                 	CPI  R30,LOW(@0)
                 	LDI  R26,HIGH(@0)
                 	CPC  R31,R26
                 	LDI  R26,BYTE3(@0)
                 	CPC  R22,R26
                 	LDI  R26,BYTE4(@0)
                 	CPC  R23,R26
                 	.ENDM
                 
                 	.MACRO __CPD2N
                 	CPI  R26,LOW(@0)
                 	LDI  R30,HIGH(@0)
                 	CPC  R27,R30
                 	LDI  R30,BYTE3(@0)
                 	CPC  R24,R30
                 	LDI  R30,BYTE4(@0)
                 	CPC  R25,R30
                 	.ENDM
                 
                 	.MACRO __CPWRR
                 	CP   R@0,R@2
                 	CPC  R@1,R@3
                 	.ENDM
                 
                 	.MACRO __CPWRN
                 	CPI  R@0,LOW(@2)
                 	LDI  R30,HIGH(@2)
                 	CPC  R@1,R30
                 	.ENDM
                 
                 	.MACRO __ADDB1MN
                 	SUBI R30,LOW(-@0-(@1))
                 	.ENDM
                 
                 	.MACRO __ADDB2MN
                 	SUBI R26,LOW(-@0-(@1))
                 	.ENDM
                 
                 	.MACRO __ADDW1MN
                 	SUBI R30,LOW(-@0-(@1))
                 	SBCI R31,HIGH(-@0-(@1))
                 	.ENDM
                 
                 	.MACRO __ADDW2MN
                 	SUBI R26,LOW(-@0-(@1))
                 	SBCI R27,HIGH(-@0-(@1))
                 	.ENDM
                 
                 	.MACRO __ADDW1FN
                 	SUBI R30,LOW(-2*@0-(@1))
                 	SBCI R31,HIGH(-2*@0-(@1))
                 	.ENDM
                 
                 	.MACRO __ADDD1FN
                 	SUBI R30,LOW(-2*@0-(@1))
                 	SBCI R31,HIGH(-2*@0-(@1))
                 	SBCI R22,BYTE3(-2*@0-(@1))
                 	.ENDM
                 
                 	.MACRO __ADDD1N
                 	SUBI R30,LOW(-@0)
                 	SBCI R31,HIGH(-@0)
                 	SBCI R22,BYTE3(-@0)
                 	SBCI R23,BYTE4(-@0)
                 	.ENDM
                 
                 	.MACRO __ADDD2N
                 	SUBI R26,LOW(-@0)
                 	SBCI R27,HIGH(-@0)
                 	SBCI R24,BYTE3(-@0)
                 	SBCI R25,BYTE4(-@0)
                 	.ENDM
                 
                 	.MACRO __SUBD1N
                 	SUBI R30,LOW(@0)
                 	SBCI R31,HIGH(@0)
                 	SBCI R22,BYTE3(@0)
                 	SBCI R23,BYTE4(@0)
                 	.ENDM
                 
                 	.MACRO __SUBD2N
                 	SUBI R26,LOW(@0)
                 	SBCI R27,HIGH(@0)
                 	SBCI R24,BYTE3(@0)
                 	SBCI R25,BYTE4(@0)
                 	.ENDM
                 
                 	.MACRO __ANDBMNN
                 	LDS  R30,@0+(@1)
                 	ANDI R30,LOW(@2)
                 	STS  @0+(@1),R30
                 	.ENDM
                 
                 	.MACRO __ANDWMNN
                 	LDS  R30,@0+(@1)
                 	ANDI R30,LOW(@2)
                 	STS  @0+(@1),R30
                 	LDS  R30,@0+(@1)+1
                 	ANDI R30,HIGH(@2)
                 	STS  @0+(@1)+1,R30
                 	.ENDM
                 
                 	.MACRO __ANDD1N
                 	ANDI R30,LOW(@0)
                 	ANDI R31,HIGH(@0)
                 	ANDI R22,BYTE3(@0)
                 	ANDI R23,BYTE4(@0)
                 	.ENDM
                 
                 	.MACRO __ANDD2N
                 	ANDI R26,LOW(@0)
                 	ANDI R27,HIGH(@0)
                 	ANDI R24,BYTE3(@0)
                 	ANDI R25,BYTE4(@0)
                 	.ENDM
                 
                 	.MACRO __ORBMNN
                 	LDS  R30,@0+(@1)
                 	ORI  R30,LOW(@2)
                 	STS  @0+(@1),R30
                 	.ENDM
                 
                 	.MACRO __ORWMNN
                 	LDS  R30,@0+(@1)
                 	ORI  R30,LOW(@2)
                 	STS  @0+(@1),R30
                 	LDS  R30,@0+(@1)+1
                 	ORI  R30,HIGH(@2)
                 	STS  @0+(@1)+1,R30
                 	.ENDM
                 
                 	.MACRO __ORD1N
                 	ORI  R30,LOW(@0)
                 	ORI  R31,HIGH(@0)
                 	ORI  R22,BYTE3(@0)
                 	ORI  R23,BYTE4(@0)
                 	.ENDM
                 
                 	.MACRO __ORD2N
                 	ORI  R26,LOW(@0)
                 	ORI  R27,HIGH(@0)
                 	ORI  R24,BYTE3(@0)
                 	ORI  R25,BYTE4(@0)
                 	.ENDM
                 
                 	.MACRO __DELAY_USB
                 	LDI  R24,LOW(@0)
                 __DELAY_USB_LOOP:
                 	DEC  R24
                 	BRNE __DELAY_USB_LOOP
                 	.ENDM
                 
                 	.MACRO __DELAY_USW
                 	LDI  R24,LOW(@0)
                 	LDI  R25,HIGH(@0)
                 __DELAY_USW_LOOP:
                 	SBIW R24,1
                 	BRNE __DELAY_USW_LOOP
                 	.ENDM
                 
                 	.MACRO __GETD1S
                 	LDD  R30,Y+@0
                 	LDD  R31,Y+@0+1
                 	LDD  R22,Y+@0+2
                 	LDD  R23,Y+@0+3
                 	.ENDM
                 
                 	.MACRO __GETD2S
                 	LDD  R26,Y+@0
                 	LDD  R27,Y+@0+1
                 	LDD  R24,Y+@0+2
                 	LDD  R25,Y+@0+3
                 	.ENDM
                 
                 	.MACRO __PUTD1S
                 	STD  Y+@0,R30
                 	STD  Y+@0+1,R31
                 	STD  Y+@0+2,R22
                 	STD  Y+@0+3,R23
                 	.ENDM
                 
                 	.MACRO __PUTD2S
                 	STD  Y+@0,R26
                 	STD  Y+@0+1,R27
                 	STD  Y+@0+2,R24
                 	STD  Y+@0+3,R25
                 	.ENDM
                 
                 	.MACRO __PUTDZ2
                 	STD  Z+@0,R26
                 	STD  Z+@0+1,R27
                 	STD  Z+@0+2,R24
                 	STD  Z+@0+3,R25
                 	.ENDM
                 
                 	.MACRO __CLRD1S
                 	STD  Y+@0,R30
                 	STD  Y+@0+1,R30
                 	STD  Y+@0+2,R30
                 	STD  Y+@0+3,R30
                 	.ENDM
                 
                 	.MACRO __POINTB1MN
                 	LDI  R30,LOW(@0+(@1))
                 	.ENDM
                 
                 	.MACRO __POINTW1MN
                 	LDI  R30,LOW(@0+(@1))
                 	LDI  R31,HIGH(@0+(@1))
                 	.ENDM
                 
                 	.MACRO __POINTD1M
                 	LDI  R30,LOW(@0)
                 	LDI  R31,HIGH(@0)
                 	LDI  R22,BYTE3(@0)
                 	LDI  R23,BYTE4(@0)
                 	.ENDM
                 
                 	.MACRO __POINTW1FN
                 	LDI  R30,LOW(2*@0+(@1))
                 	LDI  R31,HIGH(2*@0+(@1))
                 	.ENDM
                 
                 	.MACRO __POINTD1FN
                 	LDI  R30,LOW(2*@0+(@1))
                 	LDI  R31,HIGH(2*@0+(@1))
                 	LDI  R22,BYTE3(2*@0+(@1))
                 	LDI  R23,BYTE4(2*@0+(@1))
                 	.ENDM
                 
                 	.MACRO __POINTB2MN
                 	LDI  R26,LOW(@0+(@1))
                 	.ENDM
                 
                 	.MACRO __POINTW2MN
                 	LDI  R26,LOW(@0+(@1))
                 	LDI  R27,HIGH(@0+(@1))
                 	.ENDM
                 
                 	.MACRO __POINTBRM
                 	LDI  R@0,LOW(@1)
                 	.ENDM
                 
                 	.MACRO __POINTWRM
                 	LDI  R@0,LOW(@2)
                 	LDI  R@1,HIGH(@2)
                 	.ENDM
                 
                 	.MACRO __POINTBRMN
                 	LDI  R@0,LOW(@1+(@2))
                 	.ENDM
                 
                 	.MACRO __POINTWRMN
                 	LDI  R@0,LOW(@2+(@3))
                 	LDI  R@1,HIGH(@2+(@3))
                 	.ENDM
                 
                 	.MACRO __POINTWRFN
                 	LDI  R@0,LOW(@2*2+(@3))
                 	LDI  R@1,HIGH(@2*2+(@3))
                 	.ENDM
                 
                 	.MACRO __GETD1N
                 	LDI  R30,LOW(@0)
                 	LDI  R31,HIGH(@0)
                 	LDI  R22,BYTE3(@0)
                 	LDI  R23,BYTE4(@0)
                 	.ENDM
                 
                 	.MACRO __GETD2N
                 	LDI  R26,LOW(@0)
                 	LDI  R27,HIGH(@0)
                 	LDI  R24,BYTE3(@0)
                 	LDI  R25,BYTE4(@0)
                 	.ENDM
                 
                 	.MACRO __GETB1MN
                 	LDS  R30,@0+(@1)
                 	.ENDM
                 
                 	.MACRO __GETB1HMN
                 	LDS  R31,@0+(@1)
                 	.ENDM
                 
                 	.MACRO __GETW1MN
                 	LDS  R30,@0+(@1)
                 	LDS  R31,@0+(@1)+1
                 	.ENDM
                 
                 	.MACRO __GETD1MN
                 	LDS  R30,@0+(@1)
                 	LDS  R31,@0+(@1)+1
                 	LDS  R22,@0+(@1)+2
                 	LDS  R23,@0+(@1)+3
                 	.ENDM
                 
                 	.MACRO __GETBRMN
                 	LDS  R@0,@1+(@2)
                 	.ENDM
                 
                 	.MACRO __GETWRMN
                 	LDS  R@0,@2+(@3)
                 	LDS  R@1,@2+(@3)+1
                 	.ENDM
                 
                 	.MACRO __GETWRZ
                 	LDD  R@0,Z+@2
                 	LDD  R@1,Z+@2+1
                 	.ENDM
                 
                 	.MACRO __GETD2Z
                 	LDD  R26,Z+@0
                 	LDD  R27,Z+@0+1
                 	LDD  R24,Z+@0+2
                 	LDD  R25,Z+@0+3
                 	.ENDM
                 
                 	.MACRO __GETB2MN
                 	LDS  R26,@0+(@1)
                 	.ENDM
                 
                 	.MACRO __GETW2MN
                 	LDS  R26,@0+(@1)
                 	LDS  R27,@0+(@1)+1
                 	.ENDM
                 
                 	.MACRO __GETD2MN
                 	LDS  R26,@0+(@1)
                 	LDS  R27,@0+(@1)+1
                 	LDS  R24,@0+(@1)+2
                 	LDS  R25,@0+(@1)+3
                 	.ENDM
                 
                 	.MACRO __PUTB1MN
                 	STS  @0+(@1),R30
                 	.ENDM
                 
                 	.MACRO __PUTW1MN
                 	STS  @0+(@1),R30
                 	STS  @0+(@1)+1,R31
                 	.ENDM
                 
                 	.MACRO __PUTD1MN
                 	STS  @0+(@1),R30
                 	STS  @0+(@1)+1,R31
                 	STS  @0+(@1)+2,R22
                 	STS  @0+(@1)+3,R23
                 	.ENDM
                 
                 	.MACRO __PUTB1EN
                 	LDI  R26,LOW(@0+(@1))
                 	LDI  R27,HIGH(@0+(@1))
                 	CALL __EEPROMWRB
                 	.ENDM
                 
                 	.MACRO __PUTW1EN
                 	LDI  R26,LOW(@0+(@1))
                 	LDI  R27,HIGH(@0+(@1))
                 	CALL __EEPROMWRW
                 	.ENDM
                 
                 	.MACRO __PUTD1EN
                 	LDI  R26,LOW(@0+(@1))
                 	LDI  R27,HIGH(@0+(@1))
                 	CALL __EEPROMWRD
                 	.ENDM
                 
                 	.MACRO __PUTBR0MN
                 	STS  @0+(@1),R0
                 	.ENDM
                 
                 	.MACRO __PUTBMRN
                 	STS  @0+(@1),R@2
                 	.ENDM
                 
                 	.MACRO __PUTWMRN
                 	STS  @0+(@1),R@2
                 	STS  @0+(@1)+1,R@3
                 	.ENDM
                 
                 	.MACRO __PUTBZR
                 	STD  Z+@1,R@0
                 	.ENDM
                 
                 	.MACRO __PUTWZR
                 	STD  Z+@2,R@0
                 	STD  Z+@2+1,R@1
                 	.ENDM
                 
                 	.MACRO __GETW1R
                 	MOV  R30,R@0
                 	MOV  R31,R@1
                 	.ENDM
                 
                 	.MACRO __GETW2R
                 	MOV  R26,R@0
                 	MOV  R27,R@1
                 	.ENDM
                 
                 	.MACRO __GETWRN
                 	LDI  R@0,LOW(@2)
                 	LDI  R@1,HIGH(@2)
                 	.ENDM
                 
                 	.MACRO __PUTW1R
                 	MOV  R@0,R30
                 	MOV  R@1,R31
                 	.ENDM
                 
                 	.MACRO __PUTW2R
                 	MOV  R@0,R26
                 	MOV  R@1,R27
                 	.ENDM
                 
                 	.MACRO __ADDWRN
                 	SUBI R@0,LOW(-@2)
                 	SBCI R@1,HIGH(-@2)
                 	.ENDM
                 
                 	.MACRO __ADDWRR
                 	ADD  R@0,R@2
                 	ADC  R@1,R@3
                 	.ENDM
                 
                 	.MACRO __SUBWRN
                 	SUBI R@0,LOW(@2)
                 	SBCI R@1,HIGH(@2)
                 	.ENDM
                 
                 	.MACRO __SUBWRR
                 	SUB  R@0,R@2
                 	SBC  R@1,R@3
                 	.ENDM
                 
                 	.MACRO __ANDWRN
                 	ANDI R@0,LOW(@2)
                 	ANDI R@1,HIGH(@2)
                 	.ENDM
                 
                 	.MACRO __ANDWRR
                 	AND  R@0,R@2
                 	AND  R@1,R@3
                 	.ENDM
                 
                 	.MACRO __ORWRN
                 	ORI  R@0,LOW(@2)
                 	ORI  R@1,HIGH(@2)
                 	.ENDM
                 
                 	.MACRO __ORWRR
                 	OR   R@0,R@2
                 	OR   R@1,R@3
                 	.ENDM
                 
                 	.MACRO __EORWRR
                 	EOR  R@0,R@2
                 	EOR  R@1,R@3
                 	.ENDM
                 
                 	.MACRO __GETWRS
                 	LDD  R@0,Y+@2
                 	LDD  R@1,Y+@2+1
                 	.ENDM
                 
                 	.MACRO __PUTBSR
                 	STD  Y+@1,R@0
                 	.ENDM
                 
                 	.MACRO __PUTWSR
                 	STD  Y+@2,R@0
                 	STD  Y+@2+1,R@1
                 	.ENDM
                 
                 	.MACRO __MOVEWRR
                 	MOV  R@0,R@2
                 	MOV  R@1,R@3
                 	.ENDM
                 
                 	.MACRO __INWR
                 	IN   R@0,@2
                 	IN   R@1,@2+1
                 	.ENDM
                 
                 	.MACRO __OUTWR
                 	OUT  @2+1,R@1
                 	OUT  @2,R@0
                 	.ENDM
                 
                 	.MACRO __CALL1MN
                 	LDS  R30,@0+(@1)
                 	LDS  R31,@0+(@1)+1
                 	ICALL
                 	.ENDM
                 
                 	.MACRO __CALL1FN
                 	LDI  R30,LOW(2*@0+(@1))
                 	LDI  R31,HIGH(2*@0+(@1))
                 	CALL __GETW1PF
                 	ICALL
                 	.ENDM
                 
                 	.MACRO __CALL2EN
                 	LDI  R26,LOW(@0+(@1))
                 	LDI  R27,HIGH(@0+(@1))
                 	CALL __EEPROMRDW
                 	ICALL
                 	.ENDM
                 
                 	.MACRO __GETW1STACK
                 	IN   R26,SPL
                 	IN   R27,SPH
                 	ADIW R26,@0+1
                 	LD   R30,X+
                 	LD   R31,X
                 	.ENDM
                 
                 	.MACRO __GETD1STACK
                 	IN   R26,SPL
                 	IN   R27,SPH
                 	ADIW R26,@0+1
                 	LD   R30,X+
                 	LD   R31,X+
                 	LD   R22,X
                 	.ENDM
                 
                 	.MACRO __NBST
                 	BST  R@0,@1
                 	IN   R30,SREG
                 	LDI  R31,0x40
                 	EOR  R30,R31
                 	OUT  SREG,R30
                 	.ENDM
                 
                 
                 	.MACRO __PUTB1SN
                 	LDD  R26,Y+@0
                 	LDD  R27,Y+@0+1
                 	SUBI R26,LOW(-@1)
                 	SBCI R27,HIGH(-@1)
                 	ST   X,R30
                 	.ENDM
                 
                 	.MACRO __PUTW1SN
                 	LDD  R26,Y+@0
                 	LDD  R27,Y+@0+1
                 	SUBI R26,LOW(-@1)
                 	SBCI R27,HIGH(-@1)
                 	ST   X+,R30
                 	ST   X,R31
                 	.ENDM
                 
                 	.MACRO __PUTD1SN
                 	LDD  R26,Y+@0
                 	LDD  R27,Y+@0+1
                 	SUBI R26,LOW(-@1)
                 	SBCI R27,HIGH(-@1)
                 	CALL __PUTDP1
                 	.ENDM
                 
                 	.MACRO __PUTB1SNS
                 	LDD  R26,Y+@0
                 	LDD  R27,Y+@0+1
                 	ADIW R26,@1
                 	ST   X,R30
                 	.ENDM
                 
                 	.MACRO __PUTW1SNS
                 	LDD  R26,Y+@0
                 	LDD  R27,Y+@0+1
                 	ADIW R26,@1
                 	ST   X+,R30
                 	ST   X,R31
                 	.ENDM
                 
                 	.MACRO __PUTD1SNS
                 	LDD  R26,Y+@0
                 	LDD  R27,Y+@0+1
                 	ADIW R26,@1
                 	CALL __PUTDP1
                 	.ENDM
                 
                 	.MACRO __PUTB1PMN
                 	LDS  R26,@0
                 	LDS  R27,@0+1
                 	SUBI R26,LOW(-@1)
                 	SBCI R27,HIGH(-@1)
                 	ST   X,R30
                 	.ENDM
                 
                 	.MACRO __PUTW1PMN
                 	LDS  R26,@0
                 	LDS  R27,@0+1
                 	SUBI R26,LOW(-@1)
                 	SBCI R27,HIGH(-@1)
                 	ST   X+,R30
                 	ST   X,R31
                 	.ENDM
                 
                 	.MACRO __PUTD1PMN
                 	LDS  R26,@0
                 	LDS  R27,@0+1
                 	SUBI R26,LOW(-@1)
                 	SBCI R27,HIGH(-@1)
                 	CALL __PUTDP1
                 	.ENDM
                 
                 	.MACRO __PUTB1PMNS
                 	LDS  R26,@0
                 	LDS  R27,@0+1
                 	ADIW R26,@1
                 	ST   X,R30
                 	.ENDM
                 
                 	.MACRO __PUTW1PMNS
                 	LDS  R26,@0
                 	LDS  R27,@0+1
                 	ADIW R26,@1
                 	ST   X+,R30
                 	ST   X,R31
                 	.ENDM
                 
                 	.MACRO __PUTD1PMNS
                 	LDS  R26,@0
                 	LDS  R27,@0+1
                 	ADIW R26,@1
                 	CALL __PUTDP1
                 	.ENDM
                 
                 	.MACRO __PUTB1RN
                 	MOVW R26,R@0
                 	SUBI R26,LOW(-@1)
                 	SBCI R27,HIGH(-@1)
                 	ST   X,R30
                 	.ENDM
                 
                 	.MACRO __PUTW1RN
                 	MOVW R26,R@0
                 	SUBI R26,LOW(-@1)
                 	SBCI R27,HIGH(-@1)
                 	ST   X+,R30
                 	ST   X,R31
                 	.ENDM
                 
                 	.MACRO __PUTD1RN
                 	MOVW R26,R@0
                 	SUBI R26,LOW(-@1)
                 	SBCI R27,HIGH(-@1)
                 	CALL __PUTDP1
                 	.ENDM
                 
                 	.MACRO __PUTB1RNS
                 	MOVW R26,R@0
                 	ADIW R26,@1
                 	ST   X,R30
                 	.ENDM
                 
                 	.MACRO __PUTW1RNS
                 	MOVW R26,R@0
                 	ADIW R26,@1
                 	ST   X+,R30
                 	ST   X,R31
                 	.ENDM
                 
                 	.MACRO __PUTD1RNS
                 	MOVW R26,R@0
                 	ADIW R26,@1
                 	CALL __PUTDP1
                 	.ENDM
                 
                 	.MACRO __PUTB1RON
                 	MOV  R26,R@0
                 	MOV  R27,R@1
                 	SUBI R26,LOW(-@2)
                 	SBCI R27,HIGH(-@2)
                 	ST   X,R30
                 	.ENDM
                 
                 	.MACRO __PUTW1RON
                 	MOV  R26,R@0
                 	MOV  R27,R@1
                 	SUBI R26,LOW(-@2)
                 	SBCI R27,HIGH(-@2)
                 	ST   X+,R30
                 	ST   X,R31
                 	.ENDM
                 
                 	.MACRO __PUTD1RON
                 	MOV  R26,R@0
                 	MOV  R27,R@1
                 	SUBI R26,LOW(-@2)
                 	SBCI R27,HIGH(-@2)
                 	CALL __PUTDP1
                 	.ENDM
                 
                 	.MACRO __PUTB1RONS
                 	MOV  R26,R@0
                 	MOV  R27,R@1
                 	ADIW R26,@2
                 	ST   X,R30
                 	.ENDM
                 
                 	.MACRO __PUTW1RONS
                 	MOV  R26,R@0
                 	MOV  R27,R@1
                 	ADIW R26,@2
                 	ST   X+,R30
                 	ST   X,R31
                 	.ENDM
                 
                 	.MACRO __PUTD1RONS
                 	MOV  R26,R@0
                 	MOV  R27,R@1
                 	ADIW R26,@2
                 	CALL __PUTDP1
                 	.ENDM
                 
                 
                 	.MACRO __GETB1SX
                 	MOVW R30,R28
                 	SUBI R30,LOW(-@0)
                 	SBCI R31,HIGH(-@0)
                 	LD   R30,Z
                 	.ENDM
                 
                 	.MACRO __GETB1HSX
                 	MOVW R30,R28
                 	SUBI R30,LOW(-@0)
                 	SBCI R31,HIGH(-@0)
                 	LD   R31,Z
                 	.ENDM
                 
                 	.MACRO __GETW1SX
                 	MOVW R30,R28
                 	SUBI R30,LOW(-@0)
                 	SBCI R31,HIGH(-@0)
                 	LD   R0,Z+
                 	LD   R31,Z
                 	MOV  R30,R0
                 	.ENDM
                 
                 	.MACRO __GETD1SX
                 	MOVW R30,R28
                 	SUBI R30,LOW(-@0)
                 	SBCI R31,HIGH(-@0)
                 	LD   R0,Z+
                 	LD   R1,Z+
                 	LD   R22,Z+
                 	LD   R23,Z
                 	MOVW R30,R0
                 	.ENDM
                 
                 	.MACRO __GETB2SX
                 	MOVW R26,R28
                 	SUBI R26,LOW(-@0)
                 	SBCI R27,HIGH(-@0)
                 	LD   R26,X
                 	.ENDM
                 
                 	.MACRO __GETW2SX
                 	MOVW R26,R28
                 	SUBI R26,LOW(-@0)
                 	SBCI R27,HIGH(-@0)
                 	LD   R0,X+
                 	LD   R27,X
                 	MOV  R26,R0
                 	.ENDM
                 
                 	.MACRO __GETD2SX
                 	MOVW R26,R28
                 	SUBI R26,LOW(-@0)
                 	SBCI R27,HIGH(-@0)
                 	LD   R0,X+
                 	LD   R1,X+
                 	LD   R24,X+
                 	LD   R25,X
                 	MOVW R26,R0
                 	.ENDM
                 
                 	.MACRO __GETBRSX
                 	MOVW R30,R28
                 	SUBI R30,LOW(-@1)
                 	SBCI R31,HIGH(-@1)
                 	LD   R@0,Z
                 	.ENDM
                 
                 	.MACRO __GETWRSX
                 	MOVW R30,R28
                 	SUBI R30,LOW(-@2)
                 	SBCI R31,HIGH(-@2)
                 	LD   R@0,Z+
                 	LD   R@1,Z
                 	.ENDM
                 
                 	.MACRO __GETBRSX2
                 	MOVW R26,R28
                 	SUBI R26,LOW(-@1)
                 	SBCI R27,HIGH(-@1)
                 	LD   R@0,X
                 	.ENDM
                 
                 	.MACRO __GETWRSX2
                 	MOVW R26,R28
                 	SUBI R26,LOW(-@2)
                 	SBCI R27,HIGH(-@2)
                 	LD   R@0,X+
                 	LD   R@1,X
                 	.ENDM
                 
                 	.MACRO __LSLW8SX
                 	MOVW R30,R28
                 	SUBI R30,LOW(-@0)
                 	SBCI R31,HIGH(-@0)
                 	LD   R31,Z
                 	CLR  R30
                 	.ENDM
                 
                 	.MACRO __PUTB1SX
                 	MOVW R26,R28
                 	SUBI R26,LOW(-@0)
                 	SBCI R27,HIGH(-@0)
                 	ST   X,R30
                 	.ENDM
                 
                 	.MACRO __PUTW1SX
                 	MOVW R26,R28
                 	SUBI R26,LOW(-@0)
                 	SBCI R27,HIGH(-@0)
                 	ST   X+,R30
                 	ST   X,R31
                 	.ENDM
                 
                 	.MACRO __PUTD1SX
                 	MOVW R26,R28
                 	SUBI R26,LOW(-@0)
                 	SBCI R27,HIGH(-@0)
                 	ST   X+,R30
                 	ST   X+,R31
                 	ST   X+,R22
                 	ST   X,R23
                 	.ENDM
                 
                 	.MACRO __CLRW1SX
                 	MOVW R26,R28
                 	SUBI R26,LOW(-@0)
                 	SBCI R27,HIGH(-@0)
                 	ST   X+,R30
                 	ST   X,R30
                 	.ENDM
                 
                 	.MACRO __CLRD1SX
                 	MOVW R26,R28
                 	SUBI R26,LOW(-@0)
                 	SBCI R27,HIGH(-@0)
                 	ST   X+,R30
                 	ST   X+,R30
                 	ST   X+,R30
                 	ST   X,R30
                 	.ENDM
                 
                 	.MACRO __PUTB2SX
                 	MOVW R30,R28
                 	SUBI R30,LOW(-@0)
                 	SBCI R31,HIGH(-@0)
                 	ST   Z,R26
                 	.ENDM
                 
                 	.MACRO __PUTW2SX
                 	MOVW R30,R28
                 	SUBI R30,LOW(-@0)
                 	SBCI R31,HIGH(-@0)
                 	ST   Z+,R26
                 	ST   Z,R27
                 	.ENDM
                 
                 	.MACRO __PUTD2SX
                 	MOVW R30,R28
                 	SUBI R30,LOW(-@0)
                 	SBCI R31,HIGH(-@0)
                 	ST   Z+,R26
                 	ST   Z+,R27
                 	ST   Z+,R24
                 	ST   Z,R25
                 	.ENDM
                 
                 	.MACRO __PUTBSRX
                 	MOVW R30,R28
                 	SUBI R30,LOW(-@1)
                 	SBCI R31,HIGH(-@1)
                 	ST   Z,R@0
                 	.ENDM
                 
                 	.MACRO __PUTWSRX
                 	MOVW R30,R28
                 	SUBI R30,LOW(-@2)
                 	SBCI R31,HIGH(-@2)
                 	ST   Z+,R@0
                 	ST   Z,R@1
                 	.ENDM
                 
                 	.MACRO __PUTB1SNX
                 	MOVW R26,R28
                 	SUBI R26,LOW(-@0)
                 	SBCI R27,HIGH(-@0)
                 	LD   R0,X+
                 	LD   R27,X
                 	MOV  R26,R0
                 	SUBI R26,LOW(-@1)
                 	SBCI R27,HIGH(-@1)
                 	ST   X,R30
                 	.ENDM
                 
                 	.MACRO __PUTW1SNX
                 	MOVW R26,R28
                 	SUBI R26,LOW(-@0)
                 	SBCI R27,HIGH(-@0)
                 	LD   R0,X+
                 	LD   R27,X
                 	MOV  R26,R0
                 	SUBI R26,LOW(-@1)
                 	SBCI R27,HIGH(-@1)
                 	ST   X+,R30
                 	ST   X,R31
                 	.ENDM
                 
                 	.MACRO __PUTD1SNX
                 	MOVW R26,R28
                 	SUBI R26,LOW(-@0)
                 	SBCI R27,HIGH(-@0)
                 	LD   R0,X+
                 	LD   R27,X
                 	MOV  R26,R0
                 	SUBI R26,LOW(-@1)
                 	SBCI R27,HIGH(-@1)
                 	ST   X+,R30
                 	ST   X+,R31
                 	ST   X+,R22
                 	ST   X,R23
                 	.ENDM
                 
                 	.MACRO __MULBRR
                 	MULS R@0,R@1
                 	MOVW R30,R0
                 	.ENDM
                 
                 	.MACRO __MULBRRU
                 	MUL  R@0,R@1
                 	MOVW R30,R0
                 	.ENDM
                 
                 	.MACRO __MULBRR0
                 	MULS R@0,R@1
                 	.ENDM
                 
                 	.MACRO __MULBRRU0
                 	MUL  R@0,R@1
                 	.ENDM
                 
                 	.MACRO __MULBNWRU
                 	LDI  R26,@2
                 	MUL  R26,R@0
                 	MOVW R30,R0
                 	MUL  R26,R@1
                 	ADD  R31,R0
                 	.ENDM
                 
                 ;NAME DEFINITIONS FOR GLOBAL VARIABLES ALLOCATED TO REGISTERS
                 	.DEF _kursorPID=R5
                 	.DEF _kursorSpeed=R4
                 	.DEF _kursorGaris=R7
                 	.DEF _sensor=R6
                 	.DEF _adc0=R9
                 	.DEF _adc1=R8
                 	.DEF _adc2=R11
                 	.DEF _adc3=R10
                 	.DEF _adc4=R13
                 	.DEF _adc5=R12
                 
                 	.CSEG
                 	.ORG 0x00
                 
                 ;START OF CODE MARKER
                 __START_OF_CODE:
                 
                 ;INTERRUPT VECTORS
000000 940c 01f6 	JMP  __RESET
000002 940c 0000 	JMP  0x00
000004 940c 0000 	JMP  0x00
000006 940c 0000 	JMP  0x00
000008 940c 0000 	JMP  0x00
00000a 940c 0000 	JMP  0x00
00000c 940c 0000 	JMP  0x00
00000e 940c 0000 	JMP  0x00
000010 940c 0000 	JMP  0x00
000012 940c 0000 	JMP  0x00
000014 940c 0000 	JMP  0x00
000016 940c 0226 	JMP  _timer0_ovf_isr
000018 940c 0000 	JMP  0x00
00001a 940c 0000 	JMP  0x00
00001c 940c 0000 	JMP  0x00
00001e 940c 0000 	JMP  0x00
000020 940c 0000 	JMP  0x00
000022 940c 0000 	JMP  0x00
000024 940c 0000 	JMP  0x00
000026 940c 0000 	JMP  0x00
000028 940c 0000 	JMP  0x00
                 
                 _char0:
00002a 1860
00002b 7f06
00002c 067f
00002d 6018      	.DB  0x60,0x18,0x6,0x7F,0x7F,0x6,0x18,0x60
                 _tbl10_G100:
00002e 2710
00002f 03e8
000030 0064
000031 000a      	.DB  0x10,0x27,0xE8,0x3,0x64,0x0,0xA,0x0
000032 0001      	.DB  0x1,0x0
                 _tbl16_G100:
000033 1000
000034 0100
000035 0010
000036 0001      	.DB  0x0,0x10,0x0,0x1,0x10,0x0,0x1,0x0
                 
                 ;REGISTER BIT VARIABLES INITIALIZATION
                 __REG_BIT_VARS:
000037 0000      	.DW  0x0000
                 
                 _0x0:
000038 7554
000039 696c
00003a 2073
00003b 656b      	.DB  0x54,0x75,0x6C,0x69,0x73,0x20,0x6B,0x65
00003c 4520
00003d 5045
00003e 4f52
00003f 204d      	.DB  0x20,0x45,0x45,0x50,0x52,0x4F,0x4D,0x20
000040 2e00
000041 2e2e
000042 2020
000043 2020      	.DB  0x0,0x2E,0x2E,0x2E,0x20,0x20,0x20,0x20
000044 2020
000045 2020
000046 2020
000047 2020      	.DB  0x20,0x20,0x20,0x20,0x20,0x20,0x20,0x20
000048 0020
000049 6553
00004a 2074
00004b 704b      	.DB  0x20,0x0,0x53,0x65,0x74,0x20,0x4B,0x70
00004c 3a20
00004d 2020
00004e 2020
00004f 2020      	.DB  0x20,0x3A,0x20,0x20,0x20,0x20,0x20,0x20
000050 2020
000051 5300
000052 7465
000053 4b20      	.DB  0x20,0x20,0x0,0x53,0x65,0x74,0x20,0x4B
000054 2069
000055 203a
000056 2020
000057 2020      	.DB  0x69,0x20,0x3A,0x20,0x20,0x20,0x20,0x20
000058 2020
000059 0020
00005a 6553
00005b 2074      	.DB  0x20,0x20,0x20,0x0,0x53,0x65,0x74,0x20
00005c 644b
00005d 3a20
00005e 2020
00005f 2020      	.DB  0x4B,0x64,0x20,0x3A,0x20,0x20,0x20,0x20
000060 2020
000061 2020
000062 5300
000063 7465      	.DB  0x20,0x20,0x20,0x20,0x0,0x53,0x65,0x74
000064 4d20
000065 5841
000066 5320
000067 6570      	.DB  0x20,0x4D,0x41,0x58,0x20,0x53,0x70,0x65
000068 6465
000069 3a20
00006a 0020
00006b 6553      	.DB  0x65,0x64,0x20,0x3A,0x20,0x0,0x53,0x65
00006c 2074
00006d 494d
00006e 204e
00006f 7053      	.DB  0x74,0x20,0x4D,0x49,0x4E,0x20,0x53,0x70
000070 6565
000071 2064
000072 203a
000073 5700      	.DB  0x65,0x65,0x64,0x20,0x3A,0x20,0x0,0x57
000074 7261
000075 616e
000076 4720
000077 7261      	.DB  0x61,0x72,0x6E,0x61,0x20,0x47,0x61,0x72
000078 7369
000079 2020
00007a 3a20
00007b 0020      	.DB  0x69,0x73,0x20,0x20,0x20,0x3A,0x20,0x0
00007c 6553
00007d 736e
00007e 694c
00007f 656e      	.DB  0x53,0x65,0x6E,0x73,0x4C,0x69,0x6E,0x65
000080 3a20
000081 2020
000082 2020
000083 2020      	.DB  0x20,0x3A,0x20,0x20,0x20,0x20,0x20,0x20
000084 5300
000085 656b
000086 616e
000087 6972      	.DB  0x0,0x53,0x6B,0x65,0x6E,0x61,0x72,0x69
000088 206f
000089 203a
00008a 2020
00008b 2020      	.DB  0x6F,0x20,0x3A,0x20,0x20,0x20,0x20,0x20
00008c 0020
00008d 2020
00008e 6553
00008f 2074      	.DB  0x20,0x0,0x20,0x20,0x53,0x65,0x74,0x20
000090 4950
000091 2044
000092 2020
000093 2020      	.DB  0x50,0x49,0x44,0x20,0x20,0x20,0x20,0x20
000094 2020
000095 2000
000096 5320
000097 7465      	.DB  0x20,0x20,0x0,0x20,0x20,0x53,0x65,0x74
000098 5320
000099 6570
00009a 6465
00009b 2020      	.DB  0x20,0x53,0x70,0x65,0x65,0x64,0x20,0x20
00009c 2020
00009d 0020
00009e 2020
00009f 6553      	.DB  0x20,0x20,0x20,0x0,0x20,0x20,0x53,0x65
0000a0 2074
0000a1 6147
0000a2 6972
0000a3 2073      	.DB  0x74,0x20,0x47,0x61,0x72,0x69,0x73,0x20
0000a4 2020
0000a5 2020
0000a6 2000
0000a7 4e20      	.DB  0x20,0x20,0x20,0x20,0x0,0x20,0x20,0x4E
0000a8 746f
0000a9 5520
0000aa 6573
0000ab 2064      	.DB  0x6F,0x74,0x20,0x55,0x73,0x65,0x64,0x20
0000ac 2021
0000ad 2020
0000ae 0020
0000af 2020      	.DB  0x21,0x20,0x20,0x20,0x20,0x0,0x20,0x20
0000b0 6553
0000b1 2074
0000b2 6f4d
0000b3 6564      	.DB  0x53,0x65,0x74,0x20,0x4D,0x6F,0x64,0x65
0000b4 2020
0000b5 2020
0000b6 2020
0000b7 2020      	.DB  0x20,0x20,0x20,0x20,0x20,0x20,0x20,0x20
0000b8 0020
0000b9 2020
0000ba 7453
0000bb 7261      	.DB  0x20,0x0,0x20,0x20,0x53,0x74,0x61,0x72
0000bc 2174
0000bd 2021
0000be 2020
0000bf 2020      	.DB  0x74,0x21,0x21,0x20,0x20,0x20,0x20,0x20
0000c0 0020
0000c1 2020
0000c2 704b
0000c3 2020      	.DB  0x20,0x0,0x20,0x20,0x4B,0x70,0x20,0x20
0000c4 4b20
0000c5 2069
0000c6 2020
0000c7 644b      	.DB  0x20,0x4B,0x69,0x20,0x20,0x20,0x4B,0x64
0000c8 2020
0000c9 2000
0000ca 2020
0000cb 414d      	.DB  0x20,0x20,0x0,0x20,0x20,0x20,0x4D,0x41
0000cc 2058
0000cd 2020
0000ce 4d20
0000cf 4e49      	.DB  0x58,0x20,0x20,0x20,0x20,0x4D,0x49,0x4E
0000d0 2020
0000d1 0020
0000d2 2020
0000d3 4157      	.DB  0x20,0x20,0x20,0x0,0x20,0x20,0x57,0x41
0000d4 4e52
0000d5 2041
0000d6 203a
0000d7 7550      	.DB  0x52,0x4E,0x41,0x20,0x3A,0x20,0x50,0x75
0000d8 6974
0000d9 2068
0000da 2000
0000db 5720      	.DB  0x74,0x69,0x68,0x20,0x0,0x20,0x20,0x57
0000dc 5241
0000dd 414e
0000de 3a20
0000df 4820      	.DB  0x41,0x52,0x4E,0x41,0x20,0x3A,0x20,0x48
0000e0 7469
0000e1 6d61
0000e2 0020
0000e3 2020      	.DB  0x69,0x74,0x61,0x6D,0x20,0x0,0x20,0x20
0000e4 6553
0000e5 736e
0000e6 204c
0000e7 203a      	.DB  0x53,0x65,0x6E,0x73,0x4C,0x20,0x3A,0x20
0000e8 2020
0000e9 2020
0000ea 2020
0000eb 0020      	.DB  0x20,0x20,0x20,0x20,0x20,0x20,0x20,0x0
0000ec 6b53
0000ed 6e65
0000ee 202e
0000ef 6779      	.DB  0x53,0x6B,0x65,0x6E,0x2E,0x20,0x79,0x67
0000f0 2020
0000f1 7064
0000f2 6b61
0000f3 3a65      	.DB  0x20,0x20,0x64,0x70,0x61,0x6B,0x65,0x3A
0000f4 2000
0000f5 6f4d
0000f6 6564
0000f7 3a20      	.DB  0x0,0x20,0x4D,0x6F,0x64,0x65,0x20,0x3A
0000f8 2020
0000f9 2020
0000fa 2020
0000fb 2020      	.DB  0x20,0x20,0x20,0x20,0x20,0x20,0x20,0x20
0000fc 0020
0000fd 3120
0000fe 4c2e
0000ff 6869      	.DB  0x20,0x0,0x20,0x31,0x2E,0x4C,0x69,0x68
000100 7461
000101 4120
000102 4344
000103 2000      	.DB  0x61,0x74,0x20,0x41,0x44,0x43,0x0,0x20
000104 2e32
000105 6554
000106 7473
000107 4d20      	.DB  0x32,0x2E,0x54,0x65,0x73,0x74,0x20,0x4D
000108 646f
000109 0065
00010a 3320
00010b 432e      	.DB  0x6F,0x64,0x65,0x0,0x20,0x33,0x2E,0x43
00010c 6b65
00010d 5320
00010e 6e65
00010f 6f73      	.DB  0x65,0x6B,0x20,0x53,0x65,0x6E,0x73,0x6F
000110 2072
000111 2000
000112 2e34
000113 7541      	.DB  0x72,0x20,0x0,0x20,0x34,0x2E,0x41,0x75
000114 6f74
000115 5420
000116 6e75
000117 2065      	.DB  0x74,0x6F,0x20,0x54,0x75,0x6E,0x65,0x20
000118 2d31
000119 0031
00011a 3520
00011b 412e      	.DB  0x31,0x2D,0x31,0x0,0x20,0x35,0x2E,0x41
00011c 7475
00011d 206f
00011e 7554
00011f 656e      	.DB  0x75,0x74,0x6F,0x20,0x54,0x75,0x6E,0x65
000120 0020
000121 3620
000122 432e
000123 6b65      	.DB  0x20,0x0,0x20,0x36,0x2E,0x43,0x65,0x6B
000124 5020
000125 4d57
000126 4120
000127 746b      	.DB  0x20,0x50,0x57,0x4D,0x20,0x41,0x6B,0x74
000128 6669
000129 2000
00012a 6425
00012b 2520      	.DB  0x69,0x66,0x0,0x20,0x25,0x64,0x20,0x25
00012c 2064
00012d 6425
00012e 2520
00012f 0064      	.DB  0x64,0x20,0x25,0x64,0x20,0x25,0x64,0x0
000130 5420
000131 7365
000132 3a74
000133 6553      	.DB  0x20,0x54,0x65,0x73,0x74,0x3A,0x53,0x65
000134 736e
000135 726f
000136 2020
000137 2020      	.DB  0x6E,0x73,0x6F,0x72,0x20,0x20,0x20,0x20
000138 2000
000139 6262
00013a 2030
00013b 6220      	.DB  0x0,0x20,0x62,0x62,0x30,0x20,0x20,0x62
00013c 3061
00013d 2020
00013e 7462
00013f 0030      	.DB  0x61,0x30,0x20,0x20,0x62,0x74,0x30,0x0
000140 2520
000141 2064
000142 2520
000143 2064      	.DB  0x20,0x25,0x64,0x20,0x20,0x25,0x64,0x20
000144 2520
000145 0064
000146 6220
000147 3162      	.DB  0x20,0x25,0x64,0x0,0x20,0x62,0x62,0x31
000148 2020
000149 6162
00014a 2031
00014b 6220      	.DB  0x20,0x20,0x62,0x61,0x31,0x20,0x20,0x62
00014c 3174
00014d 2000
00014e 6262
00014f 2032      	.DB  0x74,0x31,0x0,0x20,0x62,0x62,0x32,0x20
000150 6220
000151 3261
000152 2020
000153 7462      	.DB  0x20,0x62,0x61,0x32,0x20,0x20,0x62,0x74
000154 0032
000155 6220
000156 3362
000157 2020      	.DB  0x32,0x0,0x20,0x62,0x62,0x33,0x20,0x20
000158 6162
000159 2033
00015a 6220
00015b 3374      	.DB  0x62,0x61,0x33,0x20,0x20,0x62,0x74,0x33
00015c 2000
00015d 6262
00015e 2034
00015f 6220      	.DB  0x0,0x20,0x62,0x62,0x34,0x20,0x20,0x62
000160 3461
000161 2020
000162 7462
000163 0034      	.DB  0x61,0x34,0x20,0x20,0x62,0x74,0x34,0x0
000164 6220
000165 3562
000166 2020
000167 6162      	.DB  0x20,0x62,0x62,0x35,0x20,0x20,0x62,0x61
000168 2035
000169 6220
00016a 3574
00016b 2000      	.DB  0x35,0x20,0x20,0x62,0x74,0x35,0x0,0x20
00016c 6262
00016d 2036
00016e 6220
00016f 3661      	.DB  0x62,0x62,0x36,0x20,0x20,0x62,0x61,0x36
000170 2020
000171 7462
000172 0036
000173 6220      	.DB  0x20,0x20,0x62,0x74,0x36,0x0,0x20,0x62
000174 3762
000175 2020
000176 6162
000177 2037      	.DB  0x62,0x37,0x20,0x20,0x62,0x61,0x37,0x20
000178 6220
000179 3774
00017a 2500
00017b 2064      	.DB  0x20,0x62,0x74,0x37,0x0,0x25,0x64,0x20
00017c 6425
00017d 2520
00017e 2064
00017f 6425      	.DB  0x25,0x64,0x20,0x25,0x64,0x20,0x25,0x64
000180 2520
000181 2064
000182 6425
000183 2520      	.DB  0x20,0x25,0x64,0x20,0x25,0x64,0x20,0x25
000184 2064
000185 6425
000186 2500
000187 2064      	.DB  0x64,0x20,0x25,0x64,0x0,0x25,0x64,0x20
000188 2020
000189 6425
00018a 2000
00018b 2020      	.DB  0x20,0x20,0x25,0x64,0x0,0x20,0x20,0x20
00018c 2020
00018d 2020
00018e 2020
00018f 2020      	.DB  0x20,0x20,0x20,0x20,0x20,0x20,0x20,0x20
000190 2020
000191 2020
000192 0020
000193 5320      	.DB  0x20,0x20,0x20,0x20,0x20,0x0,0x20,0x53
000194 656b
000195 616e
000196 6972
000197 2d6f      	.DB  0x6B,0x65,0x6E,0x61,0x72,0x69,0x6F,0x2D
000198 7453
000199 7261
00019a 4174
00019b 2000      	.DB  0x53,0x74,0x61,0x72,0x74,0x41,0x0,0x20
00019c 4f20
00019d 204b
00019e 003f
00019f 2020      	.DB  0x20,0x4F,0x4B,0x20,0x3F,0x0,0x20,0x20
0001a0 6b53
0001a1 6e65
0001a2 7261
0001a3 6f69      	.DB  0x53,0x6B,0x65,0x6E,0x61,0x72,0x69,0x6F
0001a4 312d
0001a5 0041
0001a6 2020
0001a7 6b53      	.DB  0x2D,0x31,0x41,0x0,0x20,0x20,0x53,0x6B
0001a8 6e65
0001a9 7261
0001aa 6f69
0001ab 322d      	.DB  0x65,0x6E,0x61,0x72,0x69,0x6F,0x2D,0x32
0001ac 0041
0001ad 2020
0001ae 6b53
0001af 6e65      	.DB  0x41,0x0,0x20,0x20,0x53,0x6B,0x65,0x6E
0001b0 7261
0001b1 6f69
0001b2 332d
0001b3 0041      	.DB  0x61,0x72,0x69,0x6F,0x2D,0x33,0x41,0x0
0001b4 2020
0001b5 6b53
0001b6 6e65
0001b7 7261      	.DB  0x20,0x20,0x53,0x6B,0x65,0x6E,0x61,0x72
0001b8 6f69
0001b9 342d
0001ba 0041
0001bb 2020      	.DB  0x69,0x6F,0x2D,0x34,0x41,0x0,0x20,0x20
0001bc 6b53
0001bd 6e65
0001be 7261
0001bf 6f69      	.DB  0x53,0x6B,0x65,0x6E,0x61,0x72,0x69,0x6F
0001c0 352d
0001c1 0041
0001c2 5320
0001c3 656b      	.DB  0x2D,0x35,0x41,0x0,0x20,0x53,0x6B,0x65
0001c4 616e
0001c5 6972
0001c6 2d6f
0001c7 7453      	.DB  0x6E,0x61,0x72,0x69,0x6F,0x2D,0x53,0x74
0001c8 7261
0001c9 4274
0001ca 2000
0001cb 5320      	.DB  0x61,0x72,0x74,0x42,0x0,0x20,0x20,0x53
0001cc 656b
0001cd 616e
0001ce 6972
0001cf 2d6f      	.DB  0x6B,0x65,0x6E,0x61,0x72,0x69,0x6F,0x2D
0001d0 4231
0001d1 2000
0001d2 5320
0001d3 656b      	.DB  0x31,0x42,0x0,0x20,0x20,0x53,0x6B,0x65
0001d4 616e
0001d5 6972
0001d6 2d6f
0001d7 4232      	.DB  0x6E,0x61,0x72,0x69,0x6F,0x2D,0x32,0x42
0001d8 2000
0001d9 5320
0001da 656b
0001db 616e      	.DB  0x0,0x20,0x20,0x53,0x6B,0x65,0x6E,0x61
0001dc 6972
0001dd 2d6f
0001de 4233
0001df 2000      	.DB  0x72,0x69,0x6F,0x2D,0x33,0x42,0x0,0x20
0001e0 5320
0001e1 656b
0001e2 616e
0001e3 6972      	.DB  0x20,0x53,0x6B,0x65,0x6E,0x61,0x72,0x69
0001e4 2d6f
0001e5 4234
0001e6 2000
0001e7 5320      	.DB  0x6F,0x2D,0x34,0x42,0x0,0x20,0x20,0x53
0001e8 656b
0001e9 616e
0001ea 6972
0001eb 2d6f      	.DB  0x6B,0x65,0x6E,0x61,0x72,0x69,0x6F,0x2D
0001ec 4235
C:\Documents and Settings\Explorer\Desktop\LIFOCO 2012\List\penyisihan.asm(1221): warning: .cseg .db misalignment - padding zero byte
0001ed 0000      	.DB  0x35,0x42,0x0
                 _0x2020003:
0001ee c080      	.DB  0x80,0xC0
                 
                 __GLOBAL_INI_TBL:
0001ef 0002      	.DW  0x02
0001f0 0002      	.DW  0x02
0001f1 006e      	.DW  __REG_BIT_VARS*2
                 
0001f2 0002      	.DW  0x02
0001f3 02a6      	.DW  __base_y_G101
0001f4 03dc      	.DW  _0x2020003*2
                 
                 _0xFFFFFFFF:
0001f5 0000      	.DW  0
                 
                 __RESET:
0001f6 94f8      	CLI
0001f7 27ee      	CLR  R30
0001f8 bbec      	OUT  EECR,R30
                 
                 ;INTERRUPT VECTORS ARE PLACED
                 ;AT THE START OF FLASH
0001f9 e0f1      	LDI  R31,1
0001fa bffb      	OUT  GICR,R31
0001fb bfeb      	OUT  GICR,R30
0001fc bfe5      	OUT  MCUCR,R30
                 
                 ;DISABLE WATCHDOG
0001fd e1f8      	LDI  R31,0x18
0001fe bdf1      	OUT  WDTCR,R31
0001ff bde1      	OUT  WDTCR,R30
                 
                 ;CLEAR R2-R14
000200 e08d      	LDI  R24,(14-2)+1
000201 e0a2      	LDI  R26,2
000202 27bb      	CLR  R27
                 __CLEAR_REG:
000203 93ed      	ST   X+,R30
000204 958a      	DEC  R24
000205 f7e9      	BRNE __CLEAR_REG
                 
                 ;CLEAR SRAM
000206 e080      	LDI  R24,LOW(__CLEAR_SRAM_SIZE)
000207 e098      	LDI  R25,HIGH(__CLEAR_SRAM_SIZE)
000208 e6a0      	LDI  R26,__SRAM_START
                 __CLEAR_SRAM:
000209 93ed      	ST   X+,R30
00020a 9701      	SBIW R24,1
00020b f7e9      	BRNE __CLEAR_SRAM
                 
                 ;GLOBAL VARIABLES INITIALIZATION
00020c edee      	LDI  R30,LOW(__GLOBAL_INI_TBL*2)
00020d e0f3      	LDI  R31,HIGH(__GLOBAL_INI_TBL*2)
                 __GLOBAL_INI_NEXT:
00020e 9185      	LPM  R24,Z+
00020f 9195      	LPM  R25,Z+
000210 9700      	SBIW R24,0
000211 f061      	BREQ __GLOBAL_INI_END
000212 91a5      	LPM  R26,Z+
000213 91b5      	LPM  R27,Z+
000214 9005      	LPM  R0,Z+
000215 9015      	LPM  R1,Z+
000216 01bf      	MOVW R22,R30
000217 01f0      	MOVW R30,R0
                 __GLOBAL_INI_LOOP:
000218 9005      	LPM  R0,Z+
000219 920d      	ST   X+,R0
00021a 9701      	SBIW R24,1
00021b f7e1      	BRNE __GLOBAL_INI_LOOP
00021c 01fb      	MOVW R30,R22
00021d cff0      	RJMP __GLOBAL_INI_NEXT
                 __GLOBAL_INI_END:
                 
                 ;HARDWARE STACK POINTER INITIALIZATION
00021e e5ef      	LDI  R30,LOW(__SRAM_END-__HEAP_SIZE)
00021f bfed      	OUT  SPL,R30
000220 e0e8      	LDI  R30,HIGH(__SRAM_END-__HEAP_SIZE)
000221 bfee      	OUT  SPH,R30
                 
                 ;DATA STACK POINTER INITIALIZATION
000222 e6c0      	LDI  R28,LOW(__SRAM_START+__DSTACK_SIZE)
000223 e0d2      	LDI  R29,HIGH(__SRAM_START+__DSTACK_SIZE)
                 
000224 940c 1336 	JMP  _main
                 
                 	.ESEG
                 	.ORG 0
                 
                 	.DSEG
                 	.ORG 0x260
                 
                 	.CSEG
                 ;/*****************************************************
                 ;This program was produced by the
                 ;CodeWizardAVR V2.05.0 Professional
                 ;Automatic Program Generator
                 ; Copyright 1998-2010 Pavel Haiduc, HP InfoTech s.r.l.
                 ;http://www.hpinfotech.com
                 ;
                 ;Project : Line Follower Micro - Liffoco 2012
                 ;Version : v1.0
                 ;Date    : 12/6/2012
                 ;Author  : Handiko Gesang
                 ;Company : Lab. STTK
                 ;Comments: Lalalalalalalala
                 ;
                 ;
                 ;Chip type               : ATmega16
                 ;Program type            : Application
                 ;AVR Core Clock frequency: 12.000000 MHz
                 ;Memory model            : Small
                 ;External RAM size       : 0
                 ;Data Stack size         : 256
                 ;*****************************************************/
                 ;
                 ;#include <mega32.h>
                 	#ifndef __SLEEP_DEFINED__
                 	#define __SLEEP_DEFINED__
                 	.EQU __se_bit=0x80
                 	.EQU __sm_mask=0x70
                 	.EQU __sm_powerdown=0x20
                 	.EQU __sm_powersave=0x30
                 	.EQU __sm_standby=0x60
                 	.EQU __sm_ext_standby=0x70
                 	.EQU __sm_adc_noise_red=0x10
                 	.SET power_ctrl_reg=mcucr
                 	#endif
                 ;#include <stdio.h>
                 ;#include <delay.h>
                 ;
                 ;// Alphanumeric LCD Module functions
                 ;#include <alcd.h>
                 ;
                 ;#define ADC_VREF_TYPE 0x20
                 ;
                 ;#define sw_up           PIND.4
                 ;#define sw_down         PIND.6
                 ;#define sw_ok           PIND.5
                 ;#define sw_cancel       PIND.3
                 ;
                 ;#define backlight       PORTB.3
                 ;
                 ;//#define sKa     PINC.0
                 ;//#define sKi     PINC.1
                 ;
                 ;#define Enki    PORTC.2
                 ;#define kirplus PORTC.3
                 ;#define kirmin  PORTC.4
                 ;#define Enka    PORTC.5
                 ;#define kaplus  PORTC.7
                 ;#define kamin   PORTC.6
                 ;
                 ;bit s0,s1,s2,s3,s4,s5,s6,s7,sKa,sKi;
                 ;char lcd[32];
                 ;//char diffPWM = 10;
                 ;unsigned char kursorPID, kursorSpeed, kursorGaris;
                 ;unsigned char sensor, adc0, adc1, adc2, adc3, adc4, adc5, adc6, adc7;
                 ;unsigned char xcount;
                 ;unsigned char SP = 0;
                 ;int lpwm, rpwm, MAXPWM, MINPWM, _MINPWM, intervalPWM;
                 ;int MV, P, I, D, PV, error, last_error, rate;
                 ;int var_Kp, var_Ki, var_Kd;
                 ;
                 ;eeprom unsigned char Kp = 17; //33
                 ;eeprom unsigned char Ki = 0;
                 ;eeprom unsigned char Kd = 11; //16
                 ;eeprom unsigned char tempKp = 17; //33
                 ;eeprom unsigned char tempKi = 0;
                 ;eeprom unsigned char tempKd = 11; //16
                 ;eeprom unsigned char MAXSpeed = 255;
                 ;eeprom unsigned char MINSpeed = 100;
                 ;eeprom unsigned char WarnaGaris = 1; // 1 : putih; 0 : hitam
                 ;eeprom unsigned char SensLine = 2; // banyaknya sensor dlm 1 garis
                 ;eeprom unsigned char Skenario = 2;
                 ;eeprom unsigned char Mode = 1;
                 ;eeprom unsigned char NoStrategi = 1;
                 ;eeprom unsigned char bt7=7,bt6=7,bt5=7,bt4=7,bt3=7,bt2=7,bt1=7,bt0=7;
                 ;eeprom unsigned char ba7=7,ba6=7,ba5=7,ba4=7,ba3=7,ba2=7,ba1=7,ba0=7;
                 ;eeprom unsigned char bb7=200,bb6=200,bb5=200,bb4=200,bb3=200,bb2=200,bb1=200,bb0=200;
                 ;
                 ;interrupt [TIM0_OVF] void timer0_ovf_isr(void)
                 ; 0000 004F {
                 
                 	.CSEG
                 _timer0_ovf_isr:
000226 93aa      	ST   -Y,R26
000227 93ba      	ST   -Y,R27
000228 93ea      	ST   -Y,R30
000229 93fa      	ST   -Y,R31
00022a b7ef      	IN   R30,SREG
00022b 93ea      	ST   -Y,R30
                 ; 0000 0050         // Place your code here
                 ; 0000 0051         xcount++;
00022c 91e0 0282 	LDS  R30,_xcount
00022e 5fef      	SUBI R30,-LOW(1)
00022f 93e0 0282 	STS  _xcount,R30
                 ; 0000 0052         if(xcount<=lpwm)Enki=1;
000231 940e 1669 	CALL SUBOPT_0x0
000233 940e 166e 	CALL SUBOPT_0x1
000235 f014      	BRLT _0x3
000236 9aaa      	SBI  0x15,2
                 ; 0000 0053         else Enki=0;
000237 c001      	RJMP _0x6
                 _0x3:
000238 98aa      	CBI  0x15,2
                 ; 0000 0054         if(xcount<=rpwm)Enka=1;
                 _0x6:
000239 940e 1674 	CALL SUBOPT_0x2
00023b 940e 166e 	CALL SUBOPT_0x1
00023d f014      	BRLT _0x9
00023e 9aad      	SBI  0x15,5
                 ; 0000 0055         else Enka=0;
00023f c001      	RJMP _0xC
                 _0x9:
000240 98ad      	CBI  0x15,5
                 ; 0000 0056         TCNT0=0xFF;
                 _0xC:
000241 efef      	LDI  R30,LOW(255)
000242 bfe2      	OUT  0x32,R30
                 ; 0000 0057 }
000243 91e9      	LD   R30,Y+
000244 bfef      	OUT  SREG,R30
000245 91f9      	LD   R31,Y+
000246 91e9      	LD   R30,Y+
000247 91b9      	LD   R27,Y+
000248 91a9      	LD   R26,Y+
000249 9518      	RETI
                 ;
                 ;typedef unsigned char byte;
                 ;flash byte char0[8]={
                 ;0b1100000,
                 ;0b0011000,
                 ;0b0000110,
                 ;0b1111111,
                 ;0b1111111,
                 ;0b0000110,
                 ;0b0011000,
                 ;0b1100000};
                 ;
                 ;unsigned char read_adc(unsigned char adc_input);
                 ;void define_char(byte flash *pc,byte char_code);
                 ;void tampil(unsigned char dat);
                 ;void tulisKeEEPROM ( byte NoMenu, byte NoSubMenu, byte var_in_eeprom );
                 ;void setByte( byte NoMenu, byte NoSubMenu );
                 ;void showMenu(void);
                 ;void baca_sensor(void);
                 ;void displaySensorBit(void);
                 ;void maju(void);
                 ;void mundur(void);
                 ;void stop(char s);
                 ;void pemercepat(void);
                 ;void pelambat(void);
                 ;void rotkan(void);
                 ;void rotkir(void);
                 ;void cek_sensor(void);
                 ;void tune_batas(void);
                 ;void auto_scan(void);
                 ;void scanBlackLine(void);
                 ;void scanSudut(void);
                 ;void cekPointStarta(void);
                 ;void cekPoint1a(void);
                 ;void cekPoint2a(void);
                 ;void cekPoint3a(void);
                 ;void cekPoint4a(void);
                 ;void cekPoint5a(void);
                 ;void strategiA(void);
                 ;void cekPointStartb(void);
                 ;void cekPoint1b(void);
                 ;void cekPoint2b(void);
                 ;void cekPoint3b(void);
                 ;void cekPoint4b(void);
                 ;void cekPoint5b(void);
                 ;void strategiB(void);
                 ;void indikatorSudut(void);
                 ;void indikatorPerempatan(void);
                 ;
                 ;unsigned char read_adc(unsigned char adc_input)
                 ; 0000 008A {
                 _read_adc:
                 ; 0000 008B         ADMUX=adc_input | (ADC_VREF_TYPE & 0xff);
                 ;	adc_input -> Y+0
00024a 81e8      	LD   R30,Y
00024b 62e0      	ORI  R30,0x20
00024c b9e7      	OUT  0x7,R30
                 ; 0000 008C 
                 ; 0000 008D         // Delay needed for the stabilization of the ADC input voltage
                 ; 0000 008E         delay_us(10);
                +
00024d e288     +LDI R24 , LOW ( 40 )
                +__DELAY_USB_LOOP :
00024e 958a     +DEC R24
00024f f7f1     +BRNE __DELAY_USB_LOOP
                 	__DELAY_USB 40
                 ; 0000 008F 
                 ; 0000 0090         // Start the AD conversion
                 ; 0000 0091         ADCSRA|=0x40;
000250 9a36      	SBI  0x6,6
                 ; 0000 0092 
                 ; 0000 0093         // Wait for the AD conversion to complete
                 ; 0000 0094         while ((ADCSRA & 0x10)==0);
                 _0xF:
000251 9b34      	SBIS 0x6,4
000252 cffe      	RJMP _0xF
                 ; 0000 0095         ADCSRA|=0x10;
000253 9a34      	SBI  0x6,4
                 ; 0000 0096         return ADCH;
000254 b1e5      	IN   R30,0x5
000255 9621      	ADIW R28,1
000256 9508      	RET
                 ; 0000 0097 }
                 ;
                 ;void define_char(byte flash *pc,byte char_code)
                 ; 0000 009A {
                 _define_char:
                 ; 0000 009B         byte i,a;
                 ; 0000 009C         a=(char_code<<3) | 0x40;
000257 931a      	ST   -Y,R17
000258 930a      	ST   -Y,R16
                 ;	*pc -> Y+3
                 ;	char_code -> Y+2
                 ;	i -> R17
                 ;	a -> R16
000259 81ea      	LDD  R30,Y+2
00025a 0fee      	LSL  R30
00025b 0fee      	LSL  R30
00025c 0fee      	LSL  R30
00025d 64e0      	ORI  R30,0x40
00025e 2f0e      	MOV  R16,R30
                 ; 0000 009D         for (i=0; i<8; i++) lcd_write_byte(a++,*pc++);
00025f e010      	LDI  R17,LOW(0)
                 _0x13:
000260 3018      	CPI  R17,8
000261 f470      	BRSH _0x14
000262 930a      	ST   -Y,R16
000263 9503      	INC  R16
000264 81ec      	LDD  R30,Y+4
000265 81fd      	LDD  R31,Y+4+1
000266 9631      	ADIW R30,1
000267 83ec      	STD  Y+4,R30
000268 83fd      	STD  Y+4+1,R31
000269 9731      	SBIW R30,1
00026a 91e4      	LPM  R30,Z
00026b 93ea      	ST   -Y,R30
00026c 940e 15be 	CALL _lcd_write_byte
00026e 5f1f      	SUBI R17,-1
00026f cff0      	RJMP _0x13
                 _0x14:
                 ; 0000 009E }
000270 8119      	LDD  R17,Y+1
000271 8108      	LDD  R16,Y+0
000272 9625      	ADIW R28,5
000273 9508      	RET
                 ;
                 ;void tampil(unsigned char dat)
                 ; 0000 00A1 {
                 _tampil:
                 ; 0000 00A2         unsigned char data;
                 ; 0000 00A3 
                 ; 0000 00A4         data = dat / 100;
000274 931a      	ST   -Y,R17
                 ;	dat -> Y+1
                 ;	data -> R17
000275 81a9      	LDD  R26,Y+1
000276 e0b0      	LDI  R27,0
000277 e6e4      	LDI  R30,LOW(100)
000278 e0f0      	LDI  R31,HIGH(100)
000279 940e 1679 	CALL SUBOPT_0x3
                 ; 0000 00A5         data+=0x30;
                 ; 0000 00A6         lcd_putchar(data);
                 ; 0000 00A7 
                 ; 0000 00A8         dat%=100;
00027b e6e4      	LDI  R30,LOW(100)
00027c e0f0      	LDI  R31,HIGH(100)
00027d 940e 1a29 	CALL __MODW21
00027f 83e9      	STD  Y+1,R30
                 ; 0000 00A9         data = dat / 10;
000280 81a9      	LDD  R26,Y+1
000281 e0b0      	LDI  R27,0
000282 e0ea      	LDI  R30,LOW(10)
000283 e0f0      	LDI  R31,HIGH(10)
000284 940e 1679 	CALL SUBOPT_0x3
                 ; 0000 00AA         data+=0x30;
                 ; 0000 00AB         lcd_putchar(data);
                 ; 0000 00AC 
                 ; 0000 00AD         dat%=10;
000286 e0ea      	LDI  R30,LOW(10)
000287 e0f0      	LDI  R31,HIGH(10)
000288 940e 1a29 	CALL __MODW21
00028a 83e9      	STD  Y+1,R30
                 ; 0000 00AE         data = dat + 0x30;
00028b 5de0      	SUBI R30,-LOW(48)
00028c 2f1e      	MOV  R17,R30
                 ; 0000 00AF         lcd_putchar(data);
00028d 931a      	ST   -Y,R17
00028e 940e 15e4 	CALL _lcd_putchar
                 ; 0000 00B0 }
000290 8118      	LDD  R17,Y+0
000291 9622      	ADIW R28,2
000292 9508      	RET
                 ;
                 ;void tulisKeEEPROM ( byte NoMenu, byte NoSubMenu, byte var_in_eeprom )
                 ; 0000 00B3 {
                 _tulisKeEEPROM:
                 ; 0000 00B4         lcd_gotoxy(0, 0);
                 ;	NoMenu -> Y+2
                 ;	NoSubMenu -> Y+1
                 ;	var_in_eeprom -> Y+0
000293 940e 1683 	CALL SUBOPT_0x4
                 ; 0000 00B5         lcd_putsf("Tulis ke EEPROM ");
                +
000295 e7e0     +LDI R30 , LOW ( 2 * _0x0 + ( 0 ) )
000296 e0f0     +LDI R31 , HIGH ( 2 * _0x0 + ( 0 ) )
                 	__POINTW1FN _0x0,0
000297 940e 1688 	CALL SUBOPT_0x5
                 ; 0000 00B6         lcd_putsf("...             ");
                +
000299 e8e1     +LDI R30 , LOW ( 2 * _0x0 + ( 17 ) )
00029a e0f0     +LDI R31 , HIGH ( 2 * _0x0 + ( 17 ) )
                 	__POINTW1FN _0x0,17
00029b 940e 1688 	CALL SUBOPT_0x5
                 ; 0000 00B7         switch (NoMenu)
00029d 81ea      	LDD  R30,Y+2
00029e 940e 168c 	CALL SUBOPT_0x6
                 ; 0000 00B8         {
                 ; 0000 00B9                 case 1: // PID
0002a0 f4d1      	BRNE _0x18
                 ; 0000 00BA                 switch (NoSubMenu)
0002a1 81e9      	LDD  R30,Y+1
0002a2 940e 168c 	CALL SUBOPT_0x6
                 ; 0000 00BB                 {
                 ; 0000 00BC                         case 1: // Kp
0002a4 f421      	BRNE _0x1C
                 ; 0000 00BD                         Kp = var_in_eeprom;
0002a5 81e8      	LD   R30,Y
0002a6 e0a0      	LDI  R26,LOW(_Kp)
0002a7 e0b0      	LDI  R27,HIGH(_Kp)
0002a8 c00f      	RJMP _0x392
                 ; 0000 00BE                         break;
                 ; 0000 00BF 
                 ; 0000 00C0                         case 2: // Ki
                 _0x1C:
0002a9 30e2      	CPI  R30,LOW(0x2)
0002aa e0a0      	LDI  R26,HIGH(0x2)
0002ab 07fa      	CPC  R31,R26
0002ac f421      	BRNE _0x1D
                 ; 0000 00C1                         Ki = var_in_eeprom;
0002ad 81e8      	LD   R30,Y
0002ae e0a1      	LDI  R26,LOW(_Ki)
0002af e0b0      	LDI  R27,HIGH(_Ki)
0002b0 c007      	RJMP _0x392
                 ; 0000 00C2                         break;
                 ; 0000 00C3 
                 ; 0000 00C4                         case 3: // Kd
                 _0x1D:
0002b1 30e3      	CPI  R30,LOW(0x3)
0002b2 e0a0      	LDI  R26,HIGH(0x3)
0002b3 07fa      	CPC  R31,R26
0002b4 f429      	BRNE _0x1B
                 ; 0000 00C5                         Kd = var_in_eeprom;
0002b5 81e8      	LD   R30,Y
0002b6 e0a2      	LDI  R26,LOW(_Kd)
0002b7 e0b0      	LDI  R27,HIGH(_Kd)
                 _0x392:
0002b8 940e 1a5e 	CALL __EEPROMWRB
                 ; 0000 00C6                         break;
                 ; 0000 00C7                 }
                 _0x1B:
                 ; 0000 00C8                 break;
0002ba c035      	RJMP _0x17
                 ; 0000 00C9 
                 ; 0000 00CA                 case 2: // Speed
                 _0x18:
0002bb 30e2      	CPI  R30,LOW(0x2)
0002bc e0a0      	LDI  R26,HIGH(0x2)
0002bd 07fa      	CPC  R31,R26
0002be f491      	BRNE _0x1F
                 ; 0000 00CB                 switch (NoSubMenu)
0002bf 81e9      	LDD  R30,Y+1
0002c0 940e 168c 	CALL SUBOPT_0x6
                 ; 0000 00CC                 {
                 ; 0000 00CD                         case 1: // MAX
0002c2 f421      	BRNE _0x23
                 ; 0000 00CE                         MAXSpeed = var_in_eeprom;
0002c3 81e8      	LD   R30,Y
0002c4 e0a6      	LDI  R26,LOW(_MAXSpeed)
0002c5 e0b0      	LDI  R27,HIGH(_MAXSpeed)
0002c6 c007      	RJMP _0x393
                 ; 0000 00CF                         break;
                 ; 0000 00D0 
                 ; 0000 00D1                         case 2: // MIN
                 _0x23:
0002c7 30e2      	CPI  R30,LOW(0x2)
0002c8 e0a0      	LDI  R26,HIGH(0x2)
0002c9 07fa      	CPC  R31,R26
0002ca f429      	BRNE _0x22
                 ; 0000 00D2                         MINSpeed = var_in_eeprom;
0002cb 81e8      	LD   R30,Y
0002cc e0a7      	LDI  R26,LOW(_MINSpeed)
0002cd e0b0      	LDI  R27,HIGH(_MINSpeed)
                 _0x393:
0002ce 940e 1a5e 	CALL __EEPROMWRB
                 ; 0000 00D3                         break;
                 ; 0000 00D4                 }
                 _0x22:
                 ; 0000 00D5                 break;
0002d0 c01f      	RJMP _0x17
                 ; 0000 00D6 
                 ; 0000 00D7                 case 3: // Warna Garis
                 _0x1F:
0002d1 30e3      	CPI  R30,LOW(0x3)
0002d2 e0a0      	LDI  R26,HIGH(0x3)
0002d3 07fa      	CPC  R31,R26
0002d4 f491      	BRNE _0x25
                 ; 0000 00D8                 switch (NoSubMenu)
0002d5 81e9      	LDD  R30,Y+1
0002d6 940e 168c 	CALL SUBOPT_0x6
                 ; 0000 00D9                 {
                 ; 0000 00DA                         case 1: // Warna
0002d8 f421      	BRNE _0x29
                 ; 0000 00DB                         WarnaGaris = var_in_eeprom;
0002d9 81e8      	LD   R30,Y
0002da e0a8      	LDI  R26,LOW(_WarnaGaris)
0002db e0b0      	LDI  R27,HIGH(_WarnaGaris)
0002dc c007      	RJMP _0x394
                 ; 0000 00DC                         break;
                 ; 0000 00DD 
                 ; 0000 00DE                         case 2: // SensL
                 _0x29:
0002dd 30e2      	CPI  R30,LOW(0x2)
0002de e0a0      	LDI  R26,HIGH(0x2)
0002df 07fa      	CPC  R31,R26
0002e0 f429      	BRNE _0x28
                 ; 0000 00DF                         SensLine = var_in_eeprom;
0002e1 81e8      	LD   R30,Y
0002e2 e0a9      	LDI  R26,LOW(_SensLine)
0002e3 e0b0      	LDI  R27,HIGH(_SensLine)
                 _0x394:
0002e4 940e 1a5e 	CALL __EEPROMWRB
                 ; 0000 00E0                         break;
                 ; 0000 00E1                 }
                 _0x28:
                 ; 0000 00E2                 break;
0002e6 c009      	RJMP _0x17
                 ; 0000 00E3 
                 ; 0000 00E4                 case 4: // Skenario
                 _0x25:
0002e7 30e4      	CPI  R30,LOW(0x4)
0002e8 e0a0      	LDI  R26,HIGH(0x4)
0002e9 07fa      	CPC  R31,R26
0002ea f429      	BRNE _0x17
                 ; 0000 00E5                 Skenario = var_in_eeprom;
0002eb 81e8      	LD   R30,Y
0002ec e0aa      	LDI  R26,LOW(_Skenario)
0002ed e0b0      	LDI  R27,HIGH(_Skenario)
0002ee 940e 1a5e 	CALL __EEPROMWRB
                 ; 0000 00E6                 break;
                 ; 0000 00E7         }
                 _0x17:
                 ; 0000 00E8         delay_ms(200);
0002f0 940e 1691 	CALL SUBOPT_0x7
                 ; 0000 00E9 }
0002f2 9623      	ADIW R28,3
0002f3 9508      	RET
                 ;
                 ;void setByte( byte NoMenu, byte NoSubMenu )
                 ; 0000 00EC {
                 _setByte:
                 ; 0000 00ED         byte var_in_eeprom;
                 ; 0000 00EE         byte plus5 = 0;
                 ; 0000 00EF         char limitPilih = -1;
                 ; 0000 00F0 
                 ; 0000 00F1         lcd_clear();
0002f4 940e 1a75 	CALL __SAVELOCR4
                 ;	NoMenu -> Y+5
                 ;	NoSubMenu -> Y+4
                 ;	var_in_eeprom -> R17
                 ;	plus5 -> R16
                 ;	limitPilih -> R19
0002f6 e000      	LDI  R16,0
0002f7 ef3f      	LDI  R19,255
0002f8 940e 1697 	CALL SUBOPT_0x8
                 ; 0000 00F2         lcd_gotoxy(0, 0);
                 ; 0000 00F3         switch (NoMenu)
0002fa 81ed      	LDD  R30,Y+5
0002fb 940e 168c 	CALL SUBOPT_0x6
                 ; 0000 00F4         {
                 ; 0000 00F5                 case 1: // PID
0002fd f521      	BRNE _0x2F
                 ; 0000 00F6                 switch (NoSubMenu)
0002fe 81ec      	LDD  R30,Y+4
0002ff 940e 168c 	CALL SUBOPT_0x6
                 ; 0000 00F7                 {
                 ; 0000 00F8                         case 1: // Kp
000301 f439      	BRNE _0x33
                 ; 0000 00F9                         lcd_putsf("Set Kp :        ");
                +
000302 e9e2     +LDI R30 , LOW ( 2 * _0x0 + ( 34 ) )
000303 e0f0     +LDI R31 , HIGH ( 2 * _0x0 + ( 34 ) )
                 	__POINTW1FN _0x0,34
000304 940e 1688 	CALL SUBOPT_0x5
                 ; 0000 00FA                         var_in_eeprom = Kp;
000306 e0a0      	LDI  R26,LOW(_Kp)
000307 e0b0      	LDI  R27,HIGH(_Kp)
000308 c015      	RJMP _0x395
                 ; 0000 00FB                         break;
                 ; 0000 00FC 
                 ; 0000 00FD                         case 2: // Ki
                 _0x33:
000309 30e2      	CPI  R30,LOW(0x2)
00030a e0a0      	LDI  R26,HIGH(0x2)
00030b 07fa      	CPC  R31,R26
00030c f439      	BRNE _0x34
                 ; 0000 00FE                         lcd_putsf("Set Ki :        ");
                +
00030d eae3     +LDI R30 , LOW ( 2 * _0x0 + ( 51 ) )
00030e e0f0     +LDI R31 , HIGH ( 2 * _0x0 + ( 51 ) )
                 	__POINTW1FN _0x0,51
00030f 940e 1688 	CALL SUBOPT_0x5
                 ; 0000 00FF                         var_in_eeprom = Ki;
000311 e0a1      	LDI  R26,LOW(_Ki)
000312 e0b0      	LDI  R27,HIGH(_Ki)
000313 c00a      	RJMP _0x395
                 ; 0000 0100                         break;
                 ; 0000 0101 
                 ; 0000 0102                         case 3: // Kd
                 _0x34:
000314 30e3      	CPI  R30,LOW(0x3)
000315 e0a0      	LDI  R26,HIGH(0x3)
000316 07fa      	CPC  R31,R26
000317 f449      	BRNE _0x32
                 ; 0000 0103                         lcd_putsf("Set Kd :        ");
                +
000318 ebe4     +LDI R30 , LOW ( 2 * _0x0 + ( 68 ) )
000319 e0f0     +LDI R31 , HIGH ( 2 * _0x0 + ( 68 ) )
                 	__POINTW1FN _0x0,68
00031a 940e 1688 	CALL SUBOPT_0x5
                 ; 0000 0104                         var_in_eeprom = Kd;
00031c e0a2      	LDI  R26,LOW(_Kd)
00031d e0b0      	LDI  R27,HIGH(_Kd)
                 _0x395:
00031e 940e 1a52 	CALL __EEPROMRDB
000320 2f1e      	MOV  R17,R30
                 ; 0000 0105                         break;
                 ; 0000 0106                 }
                 _0x32:
                 ; 0000 0107                 break;
000321 c04b      	RJMP _0x2E
                 ; 0000 0108 
                 ; 0000 0109                 case 2: // Speed
                 _0x2F:
000322 30e2      	CPI  R30,LOW(0x2)
000323 e0a0      	LDI  R26,HIGH(0x2)
000324 07fa      	CPC  R31,R26
000325 f4d1      	BRNE _0x36
                 ; 0000 010A                 plus5 = 1;
000326 e001      	LDI  R16,LOW(1)
                 ; 0000 010B                 switch (NoSubMenu)
000327 81ec      	LDD  R30,Y+4
000328 940e 168c 	CALL SUBOPT_0x6
                 ; 0000 010C                 {
                 ; 0000 010D                         case 1: // MAX
00032a f439      	BRNE _0x3A
                 ; 0000 010E                         lcd_putsf("Set MAX Speed : ");
                +
00032b ece5     +LDI R30 , LOW ( 2 * _0x0 + ( 85 ) )
00032c e0f0     +LDI R31 , HIGH ( 2 * _0x0 + ( 85 ) )
                 	__POINTW1FN _0x0,85
00032d 940e 1688 	CALL SUBOPT_0x5
                 ; 0000 010F                         var_in_eeprom = MAXSpeed;
00032f e0a6      	LDI  R26,LOW(_MAXSpeed)
000330 e0b0      	LDI  R27,HIGH(_MAXSpeed)
000331 c00a      	RJMP _0x396
                 ; 0000 0110                         break;
                 ; 0000 0111 
                 ; 0000 0112                         case 2: // MIN
                 _0x3A:
000332 30e2      	CPI  R30,LOW(0x2)
000333 e0a0      	LDI  R26,HIGH(0x2)
000334 07fa      	CPC  R31,R26
000335 f449      	BRNE _0x39
                 ; 0000 0113                         lcd_putsf("Set MIN Speed : ");
                +
000336 ede6     +LDI R30 , LOW ( 2 * _0x0 + ( 102 ) )
000337 e0f0     +LDI R31 , HIGH ( 2 * _0x0 + ( 102 ) )
                 	__POINTW1FN _0x0,102
000338 940e 1688 	CALL SUBOPT_0x5
                 ; 0000 0114                         var_in_eeprom = MINSpeed;
00033a e0a7      	LDI  R26,LOW(_MINSpeed)
00033b e0b0      	LDI  R27,HIGH(_MINSpeed)
                 _0x396:
00033c 940e 1a52 	CALL __EEPROMRDB
00033e 2f1e      	MOV  R17,R30
                 ; 0000 0115                         break;
                 ; 0000 0116                 }
                 _0x39:
                 ; 0000 0117                 break;
00033f c02d      	RJMP _0x2E
                 ; 0000 0118 
                 ; 0000 0119                 case 3: // Warna Garis
                 _0x36:
000340 30e3      	CPI  R30,LOW(0x3)
000341 e0a0      	LDI  R26,HIGH(0x3)
000342 07fa      	CPC  R31,R26
000343 f4d9      	BRNE _0x3C
                 ; 0000 011A                 switch (NoSubMenu)
000344 81ec      	LDD  R30,Y+4
000345 940e 168c 	CALL SUBOPT_0x6
                 ; 0000 011B                 {
                 ; 0000 011C                         case 1: // Warna
000347 f441      	BRNE _0x40
                 ; 0000 011D                         limitPilih = 1;
000348 e031      	LDI  R19,LOW(1)
                 ; 0000 011E                         lcd_putsf("Warna Garis   : ");
                +
000349 eee7     +LDI R30 , LOW ( 2 * _0x0 + ( 119 ) )
00034a e0f0     +LDI R31 , HIGH ( 2 * _0x0 + ( 119 ) )
                 	__POINTW1FN _0x0,119
00034b 940e 1688 	CALL SUBOPT_0x5
                 ; 0000 011F                         var_in_eeprom = WarnaGaris;
00034d e0a8      	LDI  R26,LOW(_WarnaGaris)
00034e e0b0      	LDI  R27,HIGH(_WarnaGaris)
00034f c00b      	RJMP _0x397
                 ; 0000 0120                         break;
                 ; 0000 0121 
                 ; 0000 0122                         case 2: // SensL
                 _0x40:
000350 30e2      	CPI  R30,LOW(0x2)
000351 e0a0      	LDI  R26,HIGH(0x2)
000352 07fa      	CPC  R31,R26
000353 f451      	BRNE _0x3F
                 ; 0000 0123                         limitPilih = 3;
000354 e033      	LDI  R19,LOW(3)
                 ; 0000 0124                         lcd_putsf("SensLine :      ");
                +
000355 efe8     +LDI R30 , LOW ( 2 * _0x0 + ( 136 ) )
000356 e0f0     +LDI R31 , HIGH ( 2 * _0x0 + ( 136 ) )
                 	__POINTW1FN _0x0,136
000357 940e 1688 	CALL SUBOPT_0x5
                 ; 0000 0125                         var_in_eeprom = SensLine;
000359 e0a9      	LDI  R26,LOW(_SensLine)
00035a e0b0      	LDI  R27,HIGH(_SensLine)
                 _0x397:
00035b 940e 1a52 	CALL __EEPROMRDB
00035d 2f1e      	MOV  R17,R30
                 ; 0000 0126                         break;
                 ; 0000 0127                 }
                 _0x3F:
                 ; 0000 0128                 break;
00035e c00e      	RJMP _0x2E
                 ; 0000 0129 
                 ; 0000 012A                 case 4: // Skenario
                 _0x3C:
00035f 30e4      	CPI  R30,LOW(0x4)
000360 e0a0      	LDI  R26,HIGH(0x4)
000361 07fa      	CPC  R31,R26
000362 f451      	BRNE _0x2E
                 ; 0000 012B                 lcd_putsf("Skenario :      ");
                +
000363 e0e9     +LDI R30 , LOW ( 2 * _0x0 + ( 153 ) )
000364 e0f1     +LDI R31 , HIGH ( 2 * _0x0 + ( 153 ) )
                 	__POINTW1FN _0x0,153
000365 940e 1688 	CALL SUBOPT_0x5
                 ; 0000 012C                 var_in_eeprom = Skenario;
000367 e0aa      	LDI  R26,LOW(_Skenario)
000368 e0b0      	LDI  R27,HIGH(_Skenario)
000369 940e 1a52 	CALL __EEPROMRDB
00036b 2f1e      	MOV  R17,R30
                 ; 0000 012D                 limitPilih = 8;
00036c e038      	LDI  R19,LOW(8)
                 ; 0000 012E                 break;
                 ; 0000 012F         }
                 _0x2E:
                 ; 0000 0130 
                 ; 0000 0131         while (sw_cancel)
                 _0x43:
00036d 9b83      	SBIS 0x10,3
00036e c037      	RJMP _0x45
                 ; 0000 0132         {
                 ; 0000 0133                 delay_ms(150);
00036f 940e 169a 	CALL SUBOPT_0x9
                 ; 0000 0134                 lcd_gotoxy(0, 1);
000371 940e 16a0 	CALL SUBOPT_0xA
                 ; 0000 0135                 tampil(var_in_eeprom);
000373 931a      	ST   -Y,R17
000374 deff      	RCALL _tampil
                 ; 0000 0136 
                 ; 0000 0137                 if (!sw_ok)
000375 9985      	SBIC 0x10,5
000376 c009      	RJMP _0x46
                 ; 0000 0138                 {
                 ; 0000 0139                         lcd_clear();
000377 940e 15d5 	CALL _lcd_clear
                 ; 0000 013A                         tulisKeEEPROM( NoMenu, NoSubMenu, var_in_eeprom );
000379 81ed      	LDD  R30,Y+5
00037a 93ea      	ST   -Y,R30
00037b 81ed      	LDD  R30,Y+5
00037c 93ea      	ST   -Y,R30
00037d 931a      	ST   -Y,R17
00037e df14      	RCALL _tulisKeEEPROM
                 ; 0000 013B                         goto exitSetByte;
00037f c026      	RJMP _0x47
                 ; 0000 013C                 }
                 ; 0000 013D 
                 ; 0000 013E                 if (!sw_down)
                 _0x46:
000380 9986      	SBIC 0x10,6
000381 c012      	RJMP _0x48
                 ; 0000 013F                 {
                 ; 0000 0140                         if ( plus5 )
000382 3000      	CPI  R16,0
000383 f049      	BREQ _0x49
                 ; 0000 0141                                 if ( var_in_eeprom == 0 )
000384 3010      	CPI  R17,0
000385 f411      	BRNE _0x4A
                 ; 0000 0142                                         var_in_eeprom = 255;
000386 ef1f      	LDI  R17,LOW(255)
                 ; 0000 0143                                 else
000387 c004      	RJMP _0x4B
                 _0x4A:
                 ; 0000 0144                                         var_in_eeprom -= 5;
000388 2fe1      	MOV  R30,R17
000389 e0f0      	LDI  R31,0
00038a 9735      	SBIW R30,5
00038b 2f1e      	MOV  R17,R30
                 ; 0000 0145                         else
                 _0x4B:
00038c c007      	RJMP _0x4C
                 _0x49:
                 ; 0000 0146                                 if ( !limitPilih )
00038d 3030      	CPI  R19,0
00038e f021      	BREQ _0x398
                 ; 0000 0147                                         var_in_eeprom--;
                 ; 0000 0148                                 else
                 ; 0000 0149                                 {
                 ; 0000 014A                                         if ( var_in_eeprom == 0 )
00038f 3010      	CPI  R17,0
000390 f411      	BRNE _0x4F
                 ; 0000 014B                                                 var_in_eeprom = limitPilih;
000391 2f13      	MOV  R17,R19
                 ; 0000 014C                                         else
000392 c001      	RJMP _0x50
                 _0x4F:
                 ; 0000 014D                                                 var_in_eeprom--;
                 _0x398:
000393 5011      	SUBI R17,1
                 ; 0000 014E                                 }
                 _0x50:
                 _0x4C:
                 ; 0000 014F                 }
                 ; 0000 0150 
                 ; 0000 0151                 if (!sw_up)
                 _0x48:
000394 9984      	SBIC 0x10,4
000395 c00f      	RJMP _0x51
                 ; 0000 0152                 {
                 ; 0000 0153                         if ( plus5 )
000396 3000      	CPI  R16,0
000397 f031      	BREQ _0x52
                 ; 0000 0154                                 if ( var_in_eeprom == 255 )
000398 3f1f      	CPI  R17,255
000399 f411      	BRNE _0x53
                 ; 0000 0155                                         var_in_eeprom = 0;
00039a e010      	LDI  R17,LOW(0)
                 ; 0000 0156                                 else
00039b c001      	RJMP _0x54
                 _0x53:
                 ; 0000 0157                                         var_in_eeprom += 5;
00039c 5f1b      	SUBI R17,-LOW(5)
                 ; 0000 0158                         else
                 _0x54:
00039d c007      	RJMP _0x55
                 _0x52:
                 ; 0000 0159                                 if ( !limitPilih )
00039e 3030      	CPI  R19,0
00039f f021      	BREQ _0x399
                 ; 0000 015A                                         var_in_eeprom++;
                 ; 0000 015B                                 else
                 ; 0000 015C                                 {
                 ; 0000 015D                                         if ( var_in_eeprom == limitPilih )
0003a0 1731      	CP   R19,R17
0003a1 f411      	BRNE _0x58
                 ; 0000 015E                                                 var_in_eeprom = 0;
0003a2 e010      	LDI  R17,LOW(0)
                 ; 0000 015F                                         else
0003a3 c001      	RJMP _0x59
                 _0x58:
                 ; 0000 0160                                                 var_in_eeprom++;
                 _0x399:
0003a4 5f1f      	SUBI R17,-1
                 ; 0000 0161                                 }
                 _0x59:
                 _0x55:
                 ; 0000 0162                 }
                 ; 0000 0163         }
                 _0x51:
0003a5 cfc7      	RJMP _0x43
                 _0x45:
                 ; 0000 0164 
                 ; 0000 0165         exitSetByte:
                 _0x47:
                 ; 0000 0166         delay_ms(100);
0003a6 940e 16a6 	CALL SUBOPT_0xB
                 ; 0000 0167         lcd_clear();
                 ; 0000 0168 }
0003a8 940e 1a7c 	CALL __LOADLOCR4
0003aa 9626      	ADIW R28,6
0003ab 9508      	RET
                 ;
                 ;void showMenu(void)
                 ; 0000 016B {
                 _showMenu:
                 ; 0000 016C         lcd_clear();
0003ac 940e 15d5 	CALL _lcd_clear
                 ; 0000 016D     menu01:
                 _0x5A:
                 ; 0000 016E         delay_ms(125);   // bouncing sw
0003ae 940e 16ae 	CALL SUBOPT_0xC
                 ; 0000 016F         lcd_gotoxy(0,0);
0003b0 940e 1683 	CALL SUBOPT_0x4
                 ; 0000 0170                 // 0123456789abcdef
                 ; 0000 0171         lcd_putsf("  Set PID       ");
                +
0003b2 e1ea     +LDI R30 , LOW ( 2 * _0x0 + ( 170 ) )
0003b3 e0f1     +LDI R31 , HIGH ( 2 * _0x0 + ( 170 ) )
                 	__POINTW1FN _0x0,170
0003b4 940e 1688 	CALL SUBOPT_0x5
                 ; 0000 0172         lcd_gotoxy(0,1);
0003b6 940e 16a0 	CALL SUBOPT_0xA
                 ; 0000 0173         lcd_putsf("  Set Speed     ");
                +
0003b8 e2eb     +LDI R30 , LOW ( 2 * _0x0 + ( 187 ) )
0003b9 e0f1     +LDI R31 , HIGH ( 2 * _0x0 + ( 187 ) )
                 	__POINTW1FN _0x0,187
0003ba 940e 1688 	CALL SUBOPT_0x5
                 ; 0000 0174 
                 ; 0000 0175         // kursor awal
                 ; 0000 0176         lcd_gotoxy(0,0);
0003bc 940e 1683 	CALL SUBOPT_0x4
                 ; 0000 0177         lcd_putchar(0);
0003be 940e 16b4 	CALL SUBOPT_0xD
                 ; 0000 0178 
                 ; 0000 0179         if (!sw_ok)
0003c0 9985      	SBIC 0x10,5
0003c1 c005      	RJMP _0x5B
                 ; 0000 017A         {
                 ; 0000 017B                 lcd_clear();
0003c2 940e 15d5 	CALL _lcd_clear
                 ; 0000 017C                 kursorPID = 1;
0003c4 e0e1      	LDI  R30,LOW(1)
0003c5 2e5e      	MOV  R5,R30
                 ; 0000 017D                 goto setPID;
0003c6 c0c0      	RJMP _0x5C
                 ; 0000 017E         }
                 ; 0000 017F         if (!sw_down)
                 _0x5B:
0003c7 9b86      	SBIS 0x10,6
                 ; 0000 0180         {
                 ; 0000 0181                 goto menu02;
0003c8 c00b      	RJMP _0x5E
                 ; 0000 0182         }
                 ; 0000 0183         if (!sw_up)
0003c9 9984      	SBIC 0x10,4
0003ca c003      	RJMP _0x5F
                 ; 0000 0184         {
                 ; 0000 0185                 lcd_clear();
0003cb 940e 15d5 	CALL _lcd_clear
                 ; 0000 0186                 goto menu06;
0003cd c09a      	RJMP _0x60
                 ; 0000 0187         }
                 ; 0000 0188         if (!sw_cancel)
                 _0x5F:
0003ce 9983      	SBIC 0x10,3
0003cf c003      	RJMP _0x61
                 ; 0000 0189         {
                 ; 0000 018A                 delay_ms(125);
0003d0 940e 16ae 	CALL SUBOPT_0xC
                 ; 0000 018B                 backlight = 0;
0003d2 98c3      	CBI  0x18,3
                 ; 0000 018C         }
                 ; 0000 018D 
                 ; 0000 018E         goto menu01;
                 _0x61:
0003d3 cfda      	RJMP _0x5A
                 ; 0000 018F     menu02:
                 _0x5E:
                 ; 0000 0190         delay_ms(125);
0003d4 940e 16ae 	CALL SUBOPT_0xC
                 ; 0000 0191         lcd_gotoxy(0,0);
0003d6 940e 1683 	CALL SUBOPT_0x4
                 ; 0000 0192                  // 0123456789abcdef
                 ; 0000 0193         lcd_putsf("  Set PID       ");
                +
0003d8 e1ea     +LDI R30 , LOW ( 2 * _0x0 + ( 170 ) )
0003d9 e0f1     +LDI R31 , HIGH ( 2 * _0x0 + ( 170 ) )
                 	__POINTW1FN _0x0,170
0003da 940e 1688 	CALL SUBOPT_0x5
                 ; 0000 0194         lcd_gotoxy(0,1);
0003dc 940e 16a0 	CALL SUBOPT_0xA
                 ; 0000 0195         lcd_putsf("  Set Speed     ");
                +
0003de e2eb     +LDI R30 , LOW ( 2 * _0x0 + ( 187 ) )
0003df e0f1     +LDI R31 , HIGH ( 2 * _0x0 + ( 187 ) )
                 	__POINTW1FN _0x0,187
0003e0 940e 1688 	CALL SUBOPT_0x5
                 ; 0000 0196 
                 ; 0000 0197         lcd_gotoxy(0,1);
0003e2 940e 16a0 	CALL SUBOPT_0xA
                 ; 0000 0198         lcd_putchar(0);
0003e4 940e 16b4 	CALL SUBOPT_0xD
                 ; 0000 0199 
                 ; 0000 019A         if (!sw_ok)
0003e6 9985      	SBIC 0x10,5
0003e7 c005      	RJMP _0x64
                 ; 0000 019B         {
                 ; 0000 019C                 lcd_clear();
0003e8 940e 15d5 	CALL _lcd_clear
                 ; 0000 019D                 kursorSpeed = 1;
0003ea e0e1      	LDI  R30,LOW(1)
0003eb 2e4e      	MOV  R4,R30
                 ; 0000 019E                 goto setSpeed;
0003ec c0e9      	RJMP _0x65
                 ; 0000 019F         }
                 ; 0000 01A0         if (!sw_up)
                 _0x64:
0003ed 9b84      	SBIS 0x10,4
                 ; 0000 01A1         {
                 ; 0000 01A2                 goto menu01;
0003ee cfbf      	RJMP _0x5A
                 ; 0000 01A3         }
                 ; 0000 01A4         if (!sw_down)
0003ef 9986      	SBIC 0x10,6
0003f0 c003      	RJMP _0x67
                 ; 0000 01A5         {
                 ; 0000 01A6                 lcd_clear();
0003f1 940e 15d5 	CALL _lcd_clear
                 ; 0000 01A7                 goto menu03;
0003f3 c006      	RJMP _0x68
                 ; 0000 01A8         }
                 ; 0000 01A9         if (!sw_cancel)
                 _0x67:
0003f4 9983      	SBIC 0x10,3
0003f5 c003      	RJMP _0x69
                 ; 0000 01AA         {
                 ; 0000 01AB                 delay_ms(125);
0003f6 940e 16ae 	CALL SUBOPT_0xC
                 ; 0000 01AC                 backlight = 0;
0003f8 98c3      	CBI  0x18,3
                 ; 0000 01AD         }
                 ; 0000 01AE         goto menu02;
                 _0x69:
0003f9 cfda      	RJMP _0x5E
                 ; 0000 01AF     menu03:
                 _0x68:
                 ; 0000 01B0         delay_ms(125);
0003fa 940e 16ae 	CALL SUBOPT_0xC
                 ; 0000 01B1         lcd_gotoxy(0,0);
0003fc 940e 1683 	CALL SUBOPT_0x4
                 ; 0000 01B2                 // 0123456789abcdef
                 ; 0000 01B3         lcd_putsf("  Set Garis     ");
                +
0003fe e3ec     +LDI R30 , LOW ( 2 * _0x0 + ( 204 ) )
0003ff e0f1     +LDI R31 , HIGH ( 2 * _0x0 + ( 204 ) )
                 	__POINTW1FN _0x0,204
000400 940e 1688 	CALL SUBOPT_0x5
                 ; 0000 01B4         lcd_gotoxy(0,1);
000402 940e 16a0 	CALL SUBOPT_0xA
                 ; 0000 01B5         lcd_putsf("  Not Used !    ");
                +
000404 e4ed     +LDI R30 , LOW ( 2 * _0x0 + ( 221 ) )
000405 e0f1     +LDI R31 , HIGH ( 2 * _0x0 + ( 221 ) )
                 	__POINTW1FN _0x0,221
000406 940e 1688 	CALL SUBOPT_0x5
                 ; 0000 01B6 
                 ; 0000 01B7         lcd_gotoxy(0,0);
000408 940e 1683 	CALL SUBOPT_0x4
                 ; 0000 01B8         lcd_putchar(0);
00040a 940e 16b4 	CALL SUBOPT_0xD
                 ; 0000 01B9 
                 ; 0000 01BA         if (!sw_ok)
00040c 9985      	SBIC 0x10,5
00040d c005      	RJMP _0x6C
                 ; 0000 01BB         {
                 ; 0000 01BC                 lcd_clear();
00040e 940e 15d5 	CALL _lcd_clear
                 ; 0000 01BD                 kursorGaris = 1;
000410 e0e1      	LDI  R30,LOW(1)
000411 2e7e      	MOV  R7,R30
                 ; 0000 01BE                 goto setGaris;
000412 c110      	RJMP _0x6D
                 ; 0000 01BF         }
                 ; 0000 01C0         if (!sw_up)
                 _0x6C:
000413 9984      	SBIC 0x10,4
000414 c003      	RJMP _0x6E
                 ; 0000 01C1         {
                 ; 0000 01C2                 lcd_clear();
000415 940e 15d5 	CALL _lcd_clear
                 ; 0000 01C3                 goto menu02;
000417 cfbc      	RJMP _0x5E
                 ; 0000 01C4         }
                 ; 0000 01C5         if (!sw_down)
                 _0x6E:
000418 9b86      	SBIS 0x10,6
                 ; 0000 01C6         {
                 ; 0000 01C7                 goto menu04;
000419 c006      	RJMP _0x70
                 ; 0000 01C8         }
                 ; 0000 01C9         if (!sw_cancel)
00041a 9983      	SBIC 0x10,3
00041b c003      	RJMP _0x71
                 ; 0000 01CA         {
                 ; 0000 01CB                 delay_ms(125);
00041c 940e 16ae 	CALL SUBOPT_0xC
                 ; 0000 01CC                 backlight = 0;
00041e 98c3      	CBI  0x18,3
                 ; 0000 01CD         }
                 ; 0000 01CE         goto menu03;
                 _0x71:
00041f cfda      	RJMP _0x68
                 ; 0000 01CF     menu04:
                 _0x70:
                 ; 0000 01D0         delay_ms(125);
000420 940e 16ae 	CALL SUBOPT_0xC
                 ; 0000 01D1         lcd_gotoxy(0,0);
000422 940e 1683 	CALL SUBOPT_0x4
                 ; 0000 01D2                 // 0123456789abcdef
                 ; 0000 01D3         lcd_putsf("  Set Garis     ");
                +
000424 e3ec     +LDI R30 , LOW ( 2 * _0x0 + ( 204 ) )
000425 e0f1     +LDI R31 , HIGH ( 2 * _0x0 + ( 204 ) )
                 	__POINTW1FN _0x0,204
000426 940e 1688 	CALL SUBOPT_0x5
                 ; 0000 01D4         lcd_gotoxy(0,1);
000428 940e 16a0 	CALL SUBOPT_0xA
                 ; 0000 01D5         lcd_putsf("  Not Used !    ");
                +
00042a e4ed     +LDI R30 , LOW ( 2 * _0x0 + ( 221 ) )
00042b e0f1     +LDI R31 , HIGH ( 2 * _0x0 + ( 221 ) )
                 	__POINTW1FN _0x0,221
00042c 940e 1688 	CALL SUBOPT_0x5
                 ; 0000 01D6 
                 ; 0000 01D7         lcd_gotoxy(0,1);
00042e 940e 16a0 	CALL SUBOPT_0xA
                 ; 0000 01D8         lcd_putchar(0);
000430 940e 16b4 	CALL SUBOPT_0xD
                 ; 0000 01D9 
                 ; 0000 01DA         if (!sw_ok)
000432 9985      	SBIC 0x10,5
000433 c003      	RJMP _0x74
                 ; 0000 01DB         {
                 ; 0000 01DC                 lcd_clear();
000434 940e 15d5 	CALL _lcd_clear
                 ; 0000 01DD                 goto setSkenario;
000436 c140      	RJMP _0x75
                 ; 0000 01DE         }
                 ; 0000 01DF         if (!sw_up)
                 _0x74:
000437 9b84      	SBIS 0x10,4
                 ; 0000 01E0         {
                 ; 0000 01E1                 goto menu03;
000438 cfc1      	RJMP _0x68
                 ; 0000 01E2         }
                 ; 0000 01E3         if (!sw_down)
000439 9986      	SBIC 0x10,6
00043a c003      	RJMP _0x77
                 ; 0000 01E4         {
                 ; 0000 01E5                 lcd_clear();
00043b 940e 15d5 	CALL _lcd_clear
                 ; 0000 01E6                 goto menu05;
00043d c006      	RJMP _0x78
                 ; 0000 01E7         }
                 ; 0000 01E8         if (!sw_cancel)
                 _0x77:
00043e 9983      	SBIC 0x10,3
00043f c003      	RJMP _0x79
                 ; 0000 01E9         {
                 ; 0000 01EA                 delay_ms(125);
000440 940e 16ae 	CALL SUBOPT_0xC
                 ; 0000 01EB                 backlight = 0;
000442 98c3      	CBI  0x18,3
                 ; 0000 01EC         }
                 ; 0000 01ED         goto menu04;
                 _0x79:
000443 cfdc      	RJMP _0x70
                 ; 0000 01EE     menu05:            // Bikin sendiri lhoo ^^d
                 _0x78:
                 ; 0000 01EF         delay_ms(125);
000444 940e 16ae 	CALL SUBOPT_0xC
                 ; 0000 01F0         lcd_gotoxy(0,0);
000446 940e 1683 	CALL SUBOPT_0x4
                 ; 0000 01F1         lcd_putsf("  Set Mode         ");
                +
000448 e5ee     +LDI R30 , LOW ( 2 * _0x0 + ( 238 ) )
000449 e0f1     +LDI R31 , HIGH ( 2 * _0x0 + ( 238 ) )
                 	__POINTW1FN _0x0,238
00044a 940e 1688 	CALL SUBOPT_0x5
                 ; 0000 01F2         lcd_gotoxy(0,1);
00044c 940e 16a0 	CALL SUBOPT_0xA
                 ; 0000 01F3         lcd_putsf("  Start!!      ");
                +
00044e e7e2     +LDI R30 , LOW ( 2 * _0x0 + ( 258 ) )
00044f e0f1     +LDI R31 , HIGH ( 2 * _0x0 + ( 258 ) )
                 	__POINTW1FN _0x0,258
000450 940e 1688 	CALL SUBOPT_0x5
                 ; 0000 01F4 
                 ; 0000 01F5         lcd_gotoxy(0,0);
000452 940e 1683 	CALL SUBOPT_0x4
                 ; 0000 01F6         lcd_putchar(0);
000454 940e 16b4 	CALL SUBOPT_0xD
                 ; 0000 01F7 
                 ; 0000 01F8         if  (!sw_ok)
000456 9985      	SBIC 0x10,5
000457 c003      	RJMP _0x7C
                 ; 0000 01F9         {
                 ; 0000 01FA             lcd_clear();
000458 940e 15d5 	CALL _lcd_clear
                 ; 0000 01FB             goto mode;
00045a c13a      	RJMP _0x7D
                 ; 0000 01FC         }
                 ; 0000 01FD 
                 ; 0000 01FE         if  (!sw_up)
                 _0x7C:
00045b 9984      	SBIC 0x10,4
00045c c003      	RJMP _0x7E
                 ; 0000 01FF         {
                 ; 0000 0200             lcd_clear();
00045d 940e 15d5 	CALL _lcd_clear
                 ; 0000 0201             goto menu04;
00045f cfc0      	RJMP _0x70
                 ; 0000 0202         }
                 ; 0000 0203 
                 ; 0000 0204         if  (!sw_down)
                 _0x7E:
000460 9b86      	SBIS 0x10,6
                 ; 0000 0205         {
                 ; 0000 0206             goto menu06;
000461 c006      	RJMP _0x60
                 ; 0000 0207         }
                 ; 0000 0208         if (!sw_cancel)
000462 9983      	SBIC 0x10,3
000463 c003      	RJMP _0x80
                 ; 0000 0209         {
                 ; 0000 020A                 delay_ms(125);
000464 940e 16ae 	CALL SUBOPT_0xC
                 ; 0000 020B                 backlight = 0;
000466 98c3      	CBI  0x18,3
                 ; 0000 020C         }
                 ; 0000 020D 
                 ; 0000 020E         goto menu05;
                 _0x80:
000467 cfdc      	RJMP _0x78
                 ; 0000 020F     menu06:
                 _0x60:
                 ; 0000 0210         delay_ms(125);
000468 940e 16ae 	CALL SUBOPT_0xC
                 ; 0000 0211         lcd_gotoxy(0,0);
00046a 940e 1683 	CALL SUBOPT_0x4
                 ; 0000 0212         lcd_putsf("  Set Mode         ");
                +
00046c e5ee     +LDI R30 , LOW ( 2 * _0x0 + ( 238 ) )
00046d e0f1     +LDI R31 , HIGH ( 2 * _0x0 + ( 238 ) )
                 	__POINTW1FN _0x0,238
00046e 940e 1688 	CALL SUBOPT_0x5
                 ; 0000 0213         lcd_gotoxy(0,1);
000470 940e 16a0 	CALL SUBOPT_0xA
                 ; 0000 0214         lcd_putsf("  Start!!      ");
                +
000472 e7e2     +LDI R30 , LOW ( 2 * _0x0 + ( 258 ) )
000473 e0f1     +LDI R31 , HIGH ( 2 * _0x0 + ( 258 ) )
                 	__POINTW1FN _0x0,258
000474 940e 1688 	CALL SUBOPT_0x5
                 ; 0000 0215 
                 ; 0000 0216         lcd_gotoxy(0,1);
000476 940e 16a0 	CALL SUBOPT_0xA
                 ; 0000 0217         lcd_putchar(0);
000478 940e 16b4 	CALL SUBOPT_0xD
                 ; 0000 0218 
                 ; 0000 0219         if (!sw_ok)
00047a 9985      	SBIC 0x10,5
00047b c003      	RJMP _0x83
                 ; 0000 021A         {
                 ; 0000 021B                 lcd_clear();
00047c 940e 15d5 	CALL _lcd_clear
                 ; 0000 021C                 goto startRobot;
00047e c1fa      	RJMP _0x84
                 ; 0000 021D         }
                 ; 0000 021E 
                 ; 0000 021F         if (!sw_up)
                 _0x83:
00047f 9b84      	SBIS 0x10,4
                 ; 0000 0220         {
                 ; 0000 0221                 goto menu05;
000480 cfc3      	RJMP _0x78
                 ; 0000 0222         }
                 ; 0000 0223 
                 ; 0000 0224         if (!sw_down)
000481 9986      	SBIC 0x10,6
000482 c003      	RJMP _0x86
                 ; 0000 0225         {
                 ; 0000 0226                 lcd_clear();
000483 940e 15d5 	CALL _lcd_clear
                 ; 0000 0227                 goto menu01;
000485 cf28      	RJMP _0x5A
                 ; 0000 0228         }
                 ; 0000 0229 
                 ; 0000 022A         goto menu06;
                 _0x86:
000486 cfe1      	RJMP _0x60
                 ; 0000 022B 
                 ; 0000 022C 
                 ; 0000 022D     setPID:
                 _0x5C:
                 ; 0000 022E         delay_ms(150);
000487 940e 169a 	CALL SUBOPT_0x9
                 ; 0000 022F         lcd_gotoxy(0,0);
000489 940e 1683 	CALL SUBOPT_0x4
                 ; 0000 0230                 // 0123456789ABCDEF
                 ; 0000 0231         lcd_putsf("  Kp   Ki   Kd  ");
                +
00048b e8e2     +LDI R30 , LOW ( 2 * _0x0 + ( 274 ) )
00048c e0f1     +LDI R31 , HIGH ( 2 * _0x0 + ( 274 ) )
                 	__POINTW1FN _0x0,274
00048d 940e 1688 	CALL SUBOPT_0x5
                 ; 0000 0232         // lcd_putsf(" 250  200  300  ");
                 ; 0000 0233         lcd_putchar(' ');
00048f 940e 16b8 	CALL SUBOPT_0xE
                 ; 0000 0234         tampil(Kp); lcd_putchar(' '); lcd_putchar(' ');
000491 940e 16bc 	CALL SUBOPT_0xF
000493 940e 16c1 	CALL SUBOPT_0x10
000495 940e 16b8 	CALL SUBOPT_0xE
                 ; 0000 0235         tampil(Ki); lcd_putchar(' '); lcd_putchar(' ');
000497 940e 16c5 	CALL SUBOPT_0x11
000499 940e 16c1 	CALL SUBOPT_0x10
00049b 940e 16b8 	CALL SUBOPT_0xE
                 ; 0000 0236         tampil(Kd); lcd_putchar(' '); lcd_putchar(' ');
00049d e0a2      	LDI  R26,LOW(_Kd)
00049e e0b0      	LDI  R27,HIGH(_Kd)
00049f 940e 16ca 	CALL SUBOPT_0x12
0004a1 940e 16b8 	CALL SUBOPT_0xE
                 ; 0000 0237 
                 ; 0000 0238         switch (kursorPID)
0004a3 2de5      	MOV  R30,R5
0004a4 940e 168c 	CALL SUBOPT_0x6
                 ; 0000 0239         {
                 ; 0000 023A           case 1:
0004a6 f411      	BRNE _0x8A
                 ; 0000 023B                 lcd_gotoxy(1,0); // kursor Kp
0004a7 e0e1      	LDI  R30,LOW(1)
0004a8 c00b      	RJMP _0x39A
                 ; 0000 023C                 lcd_putchar(0);
                 ; 0000 023D                 break;
                 ; 0000 023E           case 2:
                 _0x8A:
0004a9 30e2      	CPI  R30,LOW(0x2)
0004aa e0a0      	LDI  R26,HIGH(0x2)
0004ab 07fa      	CPC  R31,R26
0004ac f411      	BRNE _0x8B
                 ; 0000 023F                 lcd_gotoxy(6,0); // kursor Ki
0004ad e0e6      	LDI  R30,LOW(6)
0004ae c005      	RJMP _0x39A
                 ; 0000 0240                 lcd_putchar(0);
                 ; 0000 0241                 break;
                 ; 0000 0242           case 3:
                 _0x8B:
0004af 30e3      	CPI  R30,LOW(0x3)
0004b0 e0a0      	LDI  R26,HIGH(0x3)
0004b1 07fa      	CPC  R31,R26
0004b2 f421      	BRNE _0x89
                 ; 0000 0243                 lcd_gotoxy(11,0); // kursor Kd
0004b3 e0eb      	LDI  R30,LOW(11)
                 _0x39A:
0004b4 93ea      	ST   -Y,R30
0004b5 940e 16cd 	CALL SUBOPT_0x13
                 ; 0000 0244                 lcd_putchar(0);
                 ; 0000 0245                 break;
                 ; 0000 0246         }
                 _0x89:
                 ; 0000 0247 
                 ; 0000 0248         if (!sw_ok)
0004b7 9985      	SBIC 0x10,5
0004b8 c005      	RJMP _0x8D
                 ; 0000 0249         {
                 ; 0000 024A                 setByte( 1, kursorPID);
0004b9 e0e1      	LDI  R30,LOW(1)
0004ba 93ea      	ST   -Y,R30
0004bb 925a      	ST   -Y,R5
0004bc 940e 16d2 	CALL SUBOPT_0x14
                 ; 0000 024B                 delay_ms(200);
                 ; 0000 024C         }
                 ; 0000 024D         if (!sw_up)
                 _0x8D:
0004be 9984      	SBIC 0x10,4
0004bf c007      	RJMP _0x8E
                 ; 0000 024E         {
                 ; 0000 024F                 if (kursorPID == 3) {
0004c0 e0e3      	LDI  R30,LOW(3)
0004c1 15e5      	CP   R30,R5
0004c2 f419      	BRNE _0x8F
                 ; 0000 0250                         kursorPID = 1;
0004c3 e0e1      	LDI  R30,LOW(1)
0004c4 2e5e      	MOV  R5,R30
                 ; 0000 0251                 } else kursorPID++;
0004c5 c001      	RJMP _0x90
                 _0x8F:
0004c6 9453      	INC  R5
                 ; 0000 0252         }
                 _0x90:
                 ; 0000 0253         if (!sw_down)
                 _0x8E:
0004c7 9986      	SBIC 0x10,6
0004c8 c007      	RJMP _0x91
                 ; 0000 0254         {
                 ; 0000 0255                 if (kursorPID == 1) {
0004c9 e0e1      	LDI  R30,LOW(1)
0004ca 15e5      	CP   R30,R5
0004cb f419      	BRNE _0x92
                 ; 0000 0256                         kursorPID = 3;
0004cc e0e3      	LDI  R30,LOW(3)
0004cd 2e5e      	MOV  R5,R30
                 ; 0000 0257                 } else kursorPID--;
0004ce c001      	RJMP _0x93
                 _0x92:
0004cf 945a      	DEC  R5
                 ; 0000 0258         }
                 _0x93:
                 ; 0000 0259 
                 ; 0000 025A         if (!sw_cancel)
                 _0x91:
0004d0 9983      	SBIC 0x10,3
0004d1 c003      	RJMP _0x94
                 ; 0000 025B         {
                 ; 0000 025C                 lcd_clear();
0004d2 940e 15d5 	CALL _lcd_clear
                 ; 0000 025D                 goto menu01;
0004d4 ced9      	RJMP _0x5A
                 ; 0000 025E         }
                 ; 0000 025F 
                 ; 0000 0260         goto setPID;
                 _0x94:
0004d5 cfb1      	RJMP _0x5C
                 ; 0000 0261 
                 ; 0000 0262     setSpeed:
                 _0x65:
                 ; 0000 0263         delay_ms(150);
0004d6 940e 169a 	CALL SUBOPT_0x9
                 ; 0000 0264         lcd_gotoxy(0,0);
0004d8 940e 1683 	CALL SUBOPT_0x4
                 ; 0000 0265                 // 0123456789ABCDEF
                 ; 0000 0266         lcd_putsf("   MAX    MIN   ");
                +
0004da e9e3     +LDI R30 , LOW ( 2 * _0x0 + ( 291 ) )
0004db e0f1     +LDI R31 , HIGH ( 2 * _0x0 + ( 291 ) )
                 	__POINTW1FN _0x0,291
0004dc 940e 1688 	CALL SUBOPT_0x5
                 ; 0000 0267         lcd_putchar(' ');lcd_putchar(' ');lcd_putchar(' ');
0004de 940e 16b8 	CALL SUBOPT_0xE
0004e0 940e 16b8 	CALL SUBOPT_0xE
0004e2 940e 16b8 	CALL SUBOPT_0xE
                 ; 0000 0268 
                 ; 0000 0269         //lcd_putsf("   250    200   ");
                 ; 0000 026A         tampil(MAXSpeed);
0004e4 e0a6      	LDI  R26,LOW(_MAXSpeed)
0004e5 e0b0      	LDI  R27,HIGH(_MAXSpeed)
0004e6 940e 16ca 	CALL SUBOPT_0x12
                 ; 0000 026B         lcd_putchar(' '); lcd_putchar(' ');lcd_putchar(' '); lcd_putchar(' ');
0004e8 940e 16b8 	CALL SUBOPT_0xE
0004ea 940e 16b8 	CALL SUBOPT_0xE
0004ec 940e 16b8 	CALL SUBOPT_0xE
                 ; 0000 026C         tampil(MINSpeed);
0004ee e0a7      	LDI  R26,LOW(_MINSpeed)
0004ef e0b0      	LDI  R27,HIGH(_MINSpeed)
0004f0 940e 16ca 	CALL SUBOPT_0x12
                 ; 0000 026D         lcd_putchar(' ');lcd_putchar(' ');lcd_putchar(' ');
0004f2 940e 16b8 	CALL SUBOPT_0xE
0004f4 940e 16b8 	CALL SUBOPT_0xE
                 ; 0000 026E 
                 ; 0000 026F         switch (kursorSpeed)
0004f6 2de4      	MOV  R30,R4
0004f7 940e 168c 	CALL SUBOPT_0x6
                 ; 0000 0270         {
                 ; 0000 0271           case 1:
0004f9 f411      	BRNE _0x98
                 ; 0000 0272                 lcd_gotoxy(2,0); // kursor MAX
0004fa e0e2      	LDI  R30,LOW(2)
0004fb c005      	RJMP _0x39B
                 ; 0000 0273                 lcd_putchar(0);
                 ; 0000 0274                 break;
                 ; 0000 0275           case 2:
                 _0x98:
0004fc 30e2      	CPI  R30,LOW(0x2)
0004fd e0a0      	LDI  R26,HIGH(0x2)
0004fe 07fa      	CPC  R31,R26
0004ff f421      	BRNE _0x97
                 ; 0000 0276                 lcd_gotoxy(9,0); // kursor MIN
000500 e0e9      	LDI  R30,LOW(9)
                 _0x39B:
000501 93ea      	ST   -Y,R30
000502 940e 16cd 	CALL SUBOPT_0x13
                 ; 0000 0277                 lcd_putchar(0);
                 ; 0000 0278                 break;
                 ; 0000 0279         }
                 _0x97:
                 ; 0000 027A 
                 ; 0000 027B         if (!sw_ok)
000504 9985      	SBIC 0x10,5
000505 c005      	RJMP _0x9A
                 ; 0000 027C         {
                 ; 0000 027D                 setByte( 2, kursorSpeed);
000506 e0e2      	LDI  R30,LOW(2)
000507 93ea      	ST   -Y,R30
000508 924a      	ST   -Y,R4
000509 940e 16d2 	CALL SUBOPT_0x14
                 ; 0000 027E                 delay_ms(200);
                 ; 0000 027F         }
                 ; 0000 0280         if (!sw_up)
                 _0x9A:
00050b 9984      	SBIC 0x10,4
00050c c007      	RJMP _0x9B
                 ; 0000 0281         {
                 ; 0000 0282                 if (kursorSpeed == 2)
00050d e0e2      	LDI  R30,LOW(2)
00050e 15e4      	CP   R30,R4
00050f f419      	BRNE _0x9C
                 ; 0000 0283                 {
                 ; 0000 0284                         kursorSpeed = 1;
000510 e0e1      	LDI  R30,LOW(1)
000511 2e4e      	MOV  R4,R30
                 ; 0000 0285                 } else kursorSpeed++;
000512 c001      	RJMP _0x9D
                 _0x9C:
000513 9443      	INC  R4
                 ; 0000 0286         }
                 _0x9D:
                 ; 0000 0287         if (!sw_down)
                 _0x9B:
000514 9986      	SBIC 0x10,6
000515 c007      	RJMP _0x9E
                 ; 0000 0288         {
                 ; 0000 0289                 if (kursorSpeed == 1)
000516 e0e1      	LDI  R30,LOW(1)
000517 15e4      	CP   R30,R4
000518 f419      	BRNE _0x9F
                 ; 0000 028A                 {
                 ; 0000 028B                         kursorSpeed = 2;
000519 e0e2      	LDI  R30,LOW(2)
00051a 2e4e      	MOV  R4,R30
                 ; 0000 028C                 } else kursorSpeed--;
00051b c001      	RJMP _0xA0
                 _0x9F:
00051c 944a      	DEC  R4
                 ; 0000 028D         }
                 _0xA0:
                 ; 0000 028E 
                 ; 0000 028F         if (!sw_cancel)
                 _0x9E:
00051d 9983      	SBIC 0x10,3
00051e c003      	RJMP _0xA1
                 ; 0000 0290         {
                 ; 0000 0291                 lcd_clear();
00051f 940e 15d5 	CALL _lcd_clear
                 ; 0000 0292                 goto menu02;
000521 ceb2      	RJMP _0x5E
                 ; 0000 0293         }
                 ; 0000 0294 
                 ; 0000 0295         goto setSpeed;
                 _0xA1:
000522 cfb3      	RJMP _0x65
                 ; 0000 0296 
                 ; 0000 0297      setGaris: // not yet
                 _0x6D:
                 ; 0000 0298         delay_ms(150);
000523 940e 169a 	CALL SUBOPT_0x9
                 ; 0000 0299         lcd_gotoxy(0,0);
000525 940e 1683 	CALL SUBOPT_0x4
                 ; 0000 029A                 // 0123456789ABCDEF
                 ; 0000 029B         if ( WarnaGaris == 1 )
000527 e0a8      	LDI  R26,LOW(_WarnaGaris)
000528 e0b0      	LDI  R27,HIGH(_WarnaGaris)
000529 940e 1a52 	CALL __EEPROMRDB
00052b 30e1      	CPI  R30,LOW(0x1)
00052c f419      	BRNE _0xA2
                 ; 0000 029C                 lcd_putsf("  WARNA : Putih ");
                +
00052d eae4     +LDI R30 , LOW ( 2 * _0x0 + ( 308 ) )
00052e e0f1     +LDI R31 , HIGH ( 2 * _0x0 + ( 308 ) )
                 	__POINTW1FN _0x0,308
00052f c002      	RJMP _0x39C
                 ; 0000 029D         else
                 _0xA2:
                 ; 0000 029E                 lcd_putsf("  WARNA : Hitam ");
                +
000530 ebe5     +LDI R30 , LOW ( 2 * _0x0 + ( 325 ) )
000531 e0f1     +LDI R31 , HIGH ( 2 * _0x0 + ( 325 ) )
                 	__POINTW1FN _0x0,325
                 _0x39C:
000532 93fa      	ST   -Y,R31
000533 93ea      	ST   -Y,R30
000534 940e 160f 	CALL _lcd_putsf
                 ; 0000 029F 
                 ; 0000 02A0         //lcd_putsf("  LEBAR: 1.5 cm ");
                 ; 0000 02A1         lcd_gotoxy(0,1);
000536 940e 16a0 	CALL SUBOPT_0xA
                 ; 0000 02A2         lcd_putsf("  SensL :        ");
                +
000538 ece6     +LDI R30 , LOW ( 2 * _0x0 + ( 342 ) )
000539 e0f1     +LDI R31 , HIGH ( 2 * _0x0 + ( 342 ) )
                 	__POINTW1FN _0x0,342
00053a 940e 1688 	CALL SUBOPT_0x5
                 ; 0000 02A3         lcd_gotoxy(10,1);
00053c e0ea      	LDI  R30,LOW(10)
00053d 940e 16d5 	CALL SUBOPT_0x15
                 ; 0000 02A4         tampil( SensLine );
00053f e0a9      	LDI  R26,LOW(_SensLine)
000540 e0b0      	LDI  R27,HIGH(_SensLine)
000541 940e 1a52 	CALL __EEPROMRDB
000543 93ea      	ST   -Y,R30
000544 dd2f      	RCALL _tampil
                 ; 0000 02A5 
                 ; 0000 02A6         switch (kursorGaris)
000545 2de7      	MOV  R30,R7
000546 940e 168c 	CALL SUBOPT_0x6
                 ; 0000 02A7         {
                 ; 0000 02A8           case 1:
000548 f419      	BRNE _0xA7
                 ; 0000 02A9                 lcd_gotoxy(0,0); // kursor Warna
000549 e0e0      	LDI  R30,LOW(0)
00054a 93ea      	ST   -Y,R30
00054b c007      	RJMP _0x39D
                 ; 0000 02AA                 lcd_putchar(0);
                 ; 0000 02AB                 break;
                 ; 0000 02AC           case 2:
                 _0xA7:
00054c 30e2      	CPI  R30,LOW(0x2)
00054d e0a0      	LDI  R26,HIGH(0x2)
00054e 07fa      	CPC  R31,R26
00054f f441      	BRNE _0xA6
                 ; 0000 02AD                 lcd_gotoxy(0,1); // kursor SensL
000550 e0e0      	LDI  R30,LOW(0)
000551 93ea      	ST   -Y,R30
000552 e0e1      	LDI  R30,LOW(1)
                 _0x39D:
000553 93ea      	ST   -Y,R30
000554 940e 15c4 	CALL _lcd_gotoxy
                 ; 0000 02AE                 lcd_putchar(0);
000556 940e 16b4 	CALL SUBOPT_0xD
                 ; 0000 02AF                 break;
                 ; 0000 02B0         }
                 _0xA6:
                 ; 0000 02B1 
                 ; 0000 02B2         if (!sw_ok)
000558 9985      	SBIC 0x10,5
000559 c005      	RJMP _0xA9
                 ; 0000 02B3         {
                 ; 0000 02B4                 setByte( 3, kursorGaris);
00055a e0e3      	LDI  R30,LOW(3)
00055b 93ea      	ST   -Y,R30
00055c 927a      	ST   -Y,R7
00055d 940e 16d2 	CALL SUBOPT_0x14
                 ; 0000 02B5                 delay_ms(200);
                 ; 0000 02B6         }
                 ; 0000 02B7         if (!sw_up)
                 _0xA9:
00055f 9984      	SBIC 0x10,4
000560 c007      	RJMP _0xAA
                 ; 0000 02B8         {
                 ; 0000 02B9                 if (kursorGaris == 2)
000561 e0e2      	LDI  R30,LOW(2)
000562 15e7      	CP   R30,R7
000563 f419      	BRNE _0xAB
                 ; 0000 02BA                 {
                 ; 0000 02BB                         kursorGaris = 1;
000564 e0e1      	LDI  R30,LOW(1)
000565 2e7e      	MOV  R7,R30
                 ; 0000 02BC                 } else kursorGaris++;
000566 c001      	RJMP _0xAC
                 _0xAB:
000567 9473      	INC  R7
                 ; 0000 02BD         }
                 _0xAC:
                 ; 0000 02BE         if (!sw_down)
                 _0xAA:
000568 9986      	SBIC 0x10,6
000569 c007      	RJMP _0xAD
                 ; 0000 02BF         {
                 ; 0000 02C0                 if (kursorGaris == 1)
00056a e0e1      	LDI  R30,LOW(1)
00056b 15e7      	CP   R30,R7
00056c f419      	BRNE _0xAE
                 ; 0000 02C1                 {
                 ; 0000 02C2                         kursorGaris = 2;
00056d e0e2      	LDI  R30,LOW(2)
00056e 2e7e      	MOV  R7,R30
                 ; 0000 02C3                 } else kursorGaris--;
00056f c001      	RJMP _0xAF
                 _0xAE:
000570 947a      	DEC  R7
                 ; 0000 02C4         }
                 _0xAF:
                 ; 0000 02C5 
                 ; 0000 02C6         if (!sw_cancel)
                 _0xAD:
000571 9983      	SBIC 0x10,3
000572 c003      	RJMP _0xB0
                 ; 0000 02C7         {
                 ; 0000 02C8                 lcd_clear();
000573 940e 15d5 	CALL _lcd_clear
                 ; 0000 02C9                 goto menu03;
000575 ce84      	RJMP _0x68
                 ; 0000 02CA         }
                 ; 0000 02CB 
                 ; 0000 02CC         goto setGaris;
                 _0xB0:
000576 cfac      	RJMP _0x6D
                 ; 0000 02CD 
                 ; 0000 02CE      setSkenario:
                 _0x75:
                 ; 0000 02CF         delay_ms(150);
000577 940e 169a 	CALL SUBOPT_0x9
                 ; 0000 02D0         lcd_gotoxy(0,0);
000579 940e 1683 	CALL SUBOPT_0x4
                 ; 0000 02D1                 // 0123456789ABCDEF
                 ; 0000 02D2         lcd_putsf("Sken. yg  dpake:");
                +
00057b ede8     +LDI R30 , LOW ( 2 * _0x0 + ( 360 ) )
00057c e0f1     +LDI R31 , HIGH ( 2 * _0x0 + ( 360 ) )
                 	__POINTW1FN _0x0,360
00057d 940e 1688 	CALL SUBOPT_0x5
                 ; 0000 02D3         lcd_gotoxy(0, 1);
00057f 940e 16a0 	CALL SUBOPT_0xA
                 ; 0000 02D4         tampil( Skenario );
000581 e0aa      	LDI  R26,LOW(_Skenario)
000582 e0b0      	LDI  R27,HIGH(_Skenario)
000583 940e 1a52 	CALL __EEPROMRDB
000585 93ea      	ST   -Y,R30
000586 dced      	RCALL _tampil
                 ; 0000 02D5 
                 ; 0000 02D6         if (!sw_ok)
000587 9985      	SBIC 0x10,5
000588 c006      	RJMP _0xB1
                 ; 0000 02D7         {
                 ; 0000 02D8                 setByte( 4, 0);
000589 e0e4      	LDI  R30,LOW(4)
00058a 93ea      	ST   -Y,R30
00058b e0e0      	LDI  R30,LOW(0)
00058c 93ea      	ST   -Y,R30
00058d 940e 16d2 	CALL SUBOPT_0x14
                 ; 0000 02D9                 delay_ms(200);
                 ; 0000 02DA         }
                 ; 0000 02DB 
                 ; 0000 02DC         if (!sw_cancel)
                 _0xB1:
00058f 9983      	SBIC 0x10,3
000590 c003      	RJMP _0xB2
                 ; 0000 02DD         {
                 ; 0000 02DE                 lcd_clear();
000591 940e 15d5 	CALL _lcd_clear
                 ; 0000 02DF                 goto menu04;
000593 ce8c      	RJMP _0x70
                 ; 0000 02E0         }
                 ; 0000 02E1 
                 ; 0000 02E2         goto setSkenario;
                 _0xB2:
000594 cfe2      	RJMP _0x75
                 ; 0000 02E3 
                 ; 0000 02E4      mode:
                 _0x7D:
                 ; 0000 02E5         delay_ms(125);
000595 940e 16ae 	CALL SUBOPT_0xC
                 ; 0000 02E6         if  (!sw_up)
000597 9984      	SBIC 0x10,4
000598 c011      	RJMP _0xB3
                 ; 0000 02E7         {
                 ; 0000 02E8             if (Mode==6)
000599 940e 16da 	CALL SUBOPT_0x16
00059b 30e6      	CPI  R30,LOW(0x6)
00059c f431      	BRNE _0xB4
                 ; 0000 02E9             {
                 ; 0000 02EA                 Mode=1;
00059d e0ab      	LDI  R26,LOW(_Mode)
00059e e0b0      	LDI  R27,HIGH(_Mode)
00059f e0e1      	LDI  R30,LOW(1)
0005a0 940e 1a5e 	CALL __EEPROMWRB
                 ; 0000 02EB             }
                 ; 0000 02EC 
                 ; 0000 02ED             else Mode++;
0005a2 c006      	RJMP _0xB5
                 _0xB4:
0005a3 940e 16da 	CALL SUBOPT_0x16
0005a5 5fef      	SUBI R30,-LOW(1)
0005a6 940e 1a5e 	CALL __EEPROMWRB
0005a8 50e1      	SUBI R30,LOW(1)
                 ; 0000 02EE 
                 ; 0000 02EF             goto nomorMode;
                 _0xB5:
0005a9 c012      	RJMP _0xB6
                 ; 0000 02F0         }
                 ; 0000 02F1 
                 ; 0000 02F2         if  (!sw_down)
                 _0xB3:
0005aa 9986      	SBIC 0x10,6
0005ab c010      	RJMP _0xB7
                 ; 0000 02F3         {
                 ; 0000 02F4             if  (Mode==1)
0005ac 940e 16da 	CALL SUBOPT_0x16
0005ae 30e1      	CPI  R30,LOW(0x1)
0005af f431      	BRNE _0xB8
                 ; 0000 02F5             {
                 ; 0000 02F6                 Mode=6;
0005b0 e0ab      	LDI  R26,LOW(_Mode)
0005b1 e0b0      	LDI  R27,HIGH(_Mode)
0005b2 e0e6      	LDI  R30,LOW(6)
0005b3 940e 1a5e 	CALL __EEPROMWRB
                 ; 0000 02F7             }
                 ; 0000 02F8 
                 ; 0000 02F9             else Mode--;
0005b5 c006      	RJMP _0xB9
                 _0xB8:
0005b6 940e 16da 	CALL SUBOPT_0x16
0005b8 50e1      	SUBI R30,LOW(1)
0005b9 940e 1a5e 	CALL __EEPROMWRB
0005bb 5fef      	SUBI R30,-LOW(1)
                 ; 0000 02FA 
                 ; 0000 02FB             goto nomorMode;
                 _0xB9:
                 ; 0000 02FC         }
                 ; 0000 02FD 
                 ; 0000 02FE         nomorMode:
                 _0xB7:
                 _0xB6:
                 ; 0000 02FF             if (Mode==1)
0005bc 940e 16da 	CALL SUBOPT_0x16
0005be 30e1      	CPI  R30,LOW(0x1)
0005bf f451      	BRNE _0xBA
                 ; 0000 0300             {
                 ; 0000 0301                 lcd_clear();
0005c0 940e 1697 	CALL SUBOPT_0x8
                 ; 0000 0302                 lcd_gotoxy(0,0);
                 ; 0000 0303                 lcd_putsf(" Mode :         ");
0005c2 940e 16df 	CALL SUBOPT_0x17
                 ; 0000 0304                 lcd_gotoxy(0,1);
0005c4 940e 16a0 	CALL SUBOPT_0xA
                 ; 0000 0305                 lcd_putsf(" 1.Lihat ADC");
                +
0005c6 efea     +LDI R30 , LOW ( 2 * _0x0 + ( 394 ) )
0005c7 e0f1     +LDI R31 , HIGH ( 2 * _0x0 + ( 394 ) )
                 	__POINTW1FN _0x0,394
0005c8 940e 1688 	CALL SUBOPT_0x5
                 ; 0000 0306             }
                 ; 0000 0307 
                 ; 0000 0308             if  (Mode==2)
                 _0xBA:
0005ca 940e 16da 	CALL SUBOPT_0x16
0005cc 30e2      	CPI  R30,LOW(0x2)
0005cd f451      	BRNE _0xBB
                 ; 0000 0309             {
                 ; 0000 030A                 lcd_clear();
0005ce 940e 1697 	CALL SUBOPT_0x8
                 ; 0000 030B                 lcd_gotoxy(0,0);
                 ; 0000 030C                 lcd_putsf(" Mode :         ");
0005d0 940e 16df 	CALL SUBOPT_0x17
                 ; 0000 030D                 lcd_gotoxy(0,1);
0005d2 940e 16a0 	CALL SUBOPT_0xA
                 ; 0000 030E                 lcd_putsf(" 2.Test Mode");
                +
0005d4 e0e7     +LDI R30 , LOW ( 2 * _0x0 + ( 407 ) )
0005d5 e0f2     +LDI R31 , HIGH ( 2 * _0x0 + ( 407 ) )
                 	__POINTW1FN _0x0,407
0005d6 940e 1688 	CALL SUBOPT_0x5
                 ; 0000 030F             }
                 ; 0000 0310 
                 ; 0000 0311             if  (Mode==3)
                 _0xBB:
0005d8 940e 16da 	CALL SUBOPT_0x16
0005da 30e3      	CPI  R30,LOW(0x3)
0005db f451      	BRNE _0xBC
                 ; 0000 0312             {
                 ; 0000 0313                 lcd_clear();
0005dc 940e 1697 	CALL SUBOPT_0x8
                 ; 0000 0314                 lcd_gotoxy(0,0);
                 ; 0000 0315                 lcd_putsf(" Mode :         ");
0005de 940e 16df 	CALL SUBOPT_0x17
                 ; 0000 0316                 lcd_gotoxy(0,1);
0005e0 940e 16a0 	CALL SUBOPT_0xA
                 ; 0000 0317                 lcd_putsf(" 3.Cek Sensor ");
                +
0005e2 e1e4     +LDI R30 , LOW ( 2 * _0x0 + ( 420 ) )
0005e3 e0f2     +LDI R31 , HIGH ( 2 * _0x0 + ( 420 ) )
                 	__POINTW1FN _0x0,420
0005e4 940e 1688 	CALL SUBOPT_0x5
                 ; 0000 0318             }
                 ; 0000 0319 
                 ; 0000 031A             if  (Mode==4)
                 _0xBC:
0005e6 940e 16da 	CALL SUBOPT_0x16
0005e8 30e4      	CPI  R30,LOW(0x4)
0005e9 f451      	BRNE _0xBD
                 ; 0000 031B             {
                 ; 0000 031C                 lcd_clear();
0005ea 940e 1697 	CALL SUBOPT_0x8
                 ; 0000 031D                 lcd_gotoxy(0,0);
                 ; 0000 031E                 lcd_putsf(" Mode :         ");
0005ec 940e 16df 	CALL SUBOPT_0x17
                 ; 0000 031F                 lcd_gotoxy(0,1);
0005ee 940e 16a0 	CALL SUBOPT_0xA
                 ; 0000 0320                 lcd_putsf(" 4.Auto Tune 1-1");
                +
0005f0 e2e3     +LDI R30 , LOW ( 2 * _0x0 + ( 435 ) )
0005f1 e0f2     +LDI R31 , HIGH ( 2 * _0x0 + ( 435 ) )
                 	__POINTW1FN _0x0,435
0005f2 940e 1688 	CALL SUBOPT_0x5
                 ; 0000 0321             }
                 ; 0000 0322 
                 ; 0000 0323              if  (Mode==5)
                 _0xBD:
0005f4 940e 16da 	CALL SUBOPT_0x16
0005f6 30e5      	CPI  R30,LOW(0x5)
0005f7 f451      	BRNE _0xBE
                 ; 0000 0324             {
                 ; 0000 0325                 lcd_clear();
0005f8 940e 1697 	CALL SUBOPT_0x8
                 ; 0000 0326                 lcd_gotoxy(0,0);
                 ; 0000 0327                 lcd_putsf(" Mode :         ");
0005fa 940e 16df 	CALL SUBOPT_0x17
                 ; 0000 0328                 lcd_gotoxy(0,1);
0005fc 940e 16a0 	CALL SUBOPT_0xA
                 ; 0000 0329                 lcd_putsf(" 5.Auto Tune ");
                +
0005fe e3e4     +LDI R30 , LOW ( 2 * _0x0 + ( 452 ) )
0005ff e0f2     +LDI R31 , HIGH ( 2 * _0x0 + ( 452 ) )
                 	__POINTW1FN _0x0,452
000600 940e 1688 	CALL SUBOPT_0x5
                 ; 0000 032A             }
                 ; 0000 032B 
                 ; 0000 032C             if  (Mode==6)
                 _0xBE:
000602 940e 16da 	CALL SUBOPT_0x16
000604 30e6      	CPI  R30,LOW(0x6)
000605 f451      	BRNE _0xBF
                 ; 0000 032D             {
                 ; 0000 032E                 lcd_clear();
000606 940e 1697 	CALL SUBOPT_0x8
                 ; 0000 032F                 lcd_gotoxy(0,0);
                 ; 0000 0330                 lcd_putsf(" Mode :         ");
000608 940e 16df 	CALL SUBOPT_0x17
                 ; 0000 0331                 lcd_gotoxy(0,1);
00060a 940e 16a0 	CALL SUBOPT_0xA
                 ; 0000 0332                 lcd_putsf(" 6.Cek PWM Aktif");
                +
00060c e4e2     +LDI R30 , LOW ( 2 * _0x0 + ( 466 ) )
00060d e0f2     +LDI R31 , HIGH ( 2 * _0x0 + ( 466 ) )
                 	__POINTW1FN _0x0,466
00060e 940e 1688 	CALL SUBOPT_0x5
                 ; 0000 0333             }
                 ; 0000 0334 
                 ; 0000 0335         if  (!sw_ok)
                 _0xBF:
000610 9985      	SBIC 0x10,5
000611 c061      	RJMP _0xC0
                 ; 0000 0336         {
                 ; 0000 0337             switch  (Mode)
000612 940e 16da 	CALL SUBOPT_0x16
000614 940e 168c 	CALL SUBOPT_0x6
                 ; 0000 0338             {
                 ; 0000 0339                 case 1:
000616 f5e9      	BRNE _0xC4
                 ; 0000 033A                 {
                 ; 0000 033B                     for(;;)
                 _0xC6:
                 ; 0000 033C                     {
                 ; 0000 033D                         lcd_gotoxy(2,0);
000617 e0e2      	LDI  R30,LOW(2)
000618 940e 16e2 	CALL SUBOPT_0x18
                 ; 0000 033E                         sprintf(lcd," %d %d %d %d",read_adc(3),read_adc(2),read_adc(1),read_adc(0));
00061a 940e 16e7 	CALL SUBOPT_0x19
                +
00061c e5e3     +LDI R30 , LOW ( 2 * _0x0 + ( 483 ) )
00061d e0f2     +LDI R31 , HIGH ( 2 * _0x0 + ( 483 ) )
                 	__POINTW1FN _0x0,483
00061e 93fa      	ST   -Y,R31
00061f 93ea      	ST   -Y,R30
000620 940e 16ec 	CALL SUBOPT_0x1A
000622 940e 16f0 	CALL SUBOPT_0x1B
000624 940e 16f6 	CALL SUBOPT_0x1C
000626 940e 16f0 	CALL SUBOPT_0x1B
000628 940e 16fa 	CALL SUBOPT_0x1D
00062a 940e 16f0 	CALL SUBOPT_0x1B
00062c 940e 16fe 	CALL SUBOPT_0x1E
00062e 940e 16f0 	CALL SUBOPT_0x1B
000630 940e 1702 	CALL SUBOPT_0x1F
                 ; 0000 033F                         lcd_puts(lcd);
000632 940e 1602 	CALL _lcd_puts
                 ; 0000 0340                         lcd_gotoxy(1,1);
000634 e0e1      	LDI  R30,LOW(1)
000635 940e 16d5 	CALL SUBOPT_0x15
                 ; 0000 0341                         sprintf(lcd,"%d %d %d %d",read_adc(7),read_adc(6),read_adc(5),read_adc(4));
000637 940e 16e7 	CALL SUBOPT_0x19
                +
000639 e5e4     +LDI R30 , LOW ( 2 * _0x0 + ( 484 ) )
00063a e0f2     +LDI R31 , HIGH ( 2 * _0x0 + ( 484 ) )
                 	__POINTW1FN _0x0,484
00063b 93fa      	ST   -Y,R31
00063c 93ea      	ST   -Y,R30
00063d 940e 1707 	CALL SUBOPT_0x20
00063f 940e 16f0 	CALL SUBOPT_0x1B
000641 940e 170b 	CALL SUBOPT_0x21
000643 940e 16f0 	CALL SUBOPT_0x1B
000645 940e 170f 	CALL SUBOPT_0x22
000647 940e 16f0 	CALL SUBOPT_0x1B
000649 940e 1713 	CALL SUBOPT_0x23
00064b 940e 16f0 	CALL SUBOPT_0x1B
00064d 940e 1702 	CALL SUBOPT_0x1F
                 ; 0000 0342                         lcd_puts(lcd);
00064f 940e 1602 	CALL _lcd_puts
                 ; 0000 0343                         delay_ms(100);
000651 940e 16a6 	CALL SUBOPT_0xB
                 ; 0000 0344                         lcd_clear();
                 ; 0000 0345                     }
000653 cfc3      	RJMP _0xC6
                 ; 0000 0346                 }
                 ; 0000 0347                 break;
                 ; 0000 0348 
                 ; 0000 0349                 case 2:
                 _0xC4:
000654 30e2      	CPI  R30,LOW(0x2)
000655 e0a0      	LDI  R26,HIGH(0x2)
000656 07fa      	CPC  R31,R26
000657 f411      	BRNE _0xC8
                 ; 0000 034A                 {
                 ; 0000 034B                     cek_sensor();
000658 d185      	RCALL _cek_sensor
                 ; 0000 034C                 }
                 ; 0000 034D                 break;
000659 c019      	RJMP _0xC3
                 ; 0000 034E 
                 ; 0000 034F                 case 3:
                 _0xC8:
00065a 30e3      	CPI  R30,LOW(0x3)
00065b e0a0      	LDI  R26,HIGH(0x3)
00065c 07fa      	CPC  R31,R26
00065d f411      	BRNE _0xC9
                 ; 0000 0350                 {
                 ; 0000 0351                     cek_sensor();
00065e d17f      	RCALL _cek_sensor
                 ; 0000 0352                 }
                 ; 0000 0353                 break;
00065f c013      	RJMP _0xC3
                 ; 0000 0354 
                 ; 0000 0355                 case 4:
                 _0xC9:
000660 30e4      	CPI  R30,LOW(0x4)
000661 e0a0      	LDI  R26,HIGH(0x4)
000662 07fa      	CPC  R31,R26
000663 f411      	BRNE _0xCA
                 ; 0000 0356                 {
                 ; 0000 0357                     tune_batas();
000664 d191      	RCALL _tune_batas
                 ; 0000 0358 
                 ; 0000 0359                 }
                 ; 0000 035A                 break;
000665 c00d      	RJMP _0xC3
                 ; 0000 035B 
                 ; 0000 035C                 case 5:
                 _0xCA:
000666 30e5      	CPI  R30,LOW(0x5)
000667 e0a0      	LDI  R26,HIGH(0x5)
000668 07fa      	CPC  R31,R26
000669 f411      	BRNE _0xCB
                 ; 0000 035D                 {
                 ; 0000 035E                     auto_scan();
00066a d3b8      	RCALL _auto_scan
                 ; 0000 035F                     goto menu01;
00066b cd42      	RJMP _0x5A
                 ; 0000 0360                 }
                 ; 0000 0361                 break;
                 ; 0000 0362 
                 ; 0000 0363                 case 6:
                 _0xCB:
00066c 30e6      	CPI  R30,LOW(0x6)
00066d e0a0      	LDI  R26,HIGH(0x6)
00066e 07fa      	CPC  R31,R26
00066f f419      	BRNE _0xC3
                 ; 0000 0364                 {
                 ; 0000 0365                     pemercepat();
000670 d119      	RCALL _pemercepat
                 ; 0000 0366                     pelambat();
000671 d13f      	RCALL _pelambat
                 ; 0000 0367                     goto menu01;
000672 cd3b      	RJMP _0x5A
                 ; 0000 0368                 }
                 ; 0000 0369                 break;
                 ; 0000 036A             }
                 _0xC3:
                 ; 0000 036B         }
                 ; 0000 036C 
                 ; 0000 036D         if  (!sw_cancel)
                 _0xC0:
000673 9983      	SBIC 0x10,3
000674 c003      	RJMP _0xCD
                 ; 0000 036E         {
                 ; 0000 036F             lcd_clear();
000675 940e 15d5 	CALL _lcd_clear
                 ; 0000 0370             goto menu05;
000677 cdcc      	RJMP _0x78
                 ; 0000 0371         }
                 ; 0000 0372 
                 ; 0000 0373         goto mode;
                 _0xCD:
000678 cf1c      	RJMP _0x7D
                 ; 0000 0374 
                 ; 0000 0375      startRobot:
                 _0x84:
                 ; 0000 0376         lcd_clear();
000679 940e 15d5 	CALL _lcd_clear
                 ; 0000 0377 }
00067b 9508      	RET
                 ;
                 ;void baca_sensor(void)
                 ; 0000 037A {
                 _baca_sensor:
                 ; 0000 037B     sensor=0;
00067c 2466      	CLR  R6
                 ; 0000 037C     adc0=read_adc(7);
00067d 940e 1707 	CALL SUBOPT_0x20
00067f 2e9e      	MOV  R9,R30
                 ; 0000 037D     adc1=read_adc(6);
000680 940e 170b 	CALL SUBOPT_0x21
000682 2e8e      	MOV  R8,R30
                 ; 0000 037E     adc2=read_adc(5);
000683 940e 170f 	CALL SUBOPT_0x22
000685 2ebe      	MOV  R11,R30
                 ; 0000 037F     adc3=read_adc(4);
000686 940e 1713 	CALL SUBOPT_0x23
000688 2eae      	MOV  R10,R30
                 ; 0000 0380     adc4=read_adc(3);
000689 940e 16ec 	CALL SUBOPT_0x1A
00068b 2ede      	MOV  R13,R30
                 ; 0000 0381     adc5=read_adc(2);
00068c 940e 16f6 	CALL SUBOPT_0x1C
00068e 2ece      	MOV  R12,R30
                 ; 0000 0382     adc6=read_adc(1);
00068f 940e 16fa 	CALL SUBOPT_0x1D
000691 93e0 0280 	STS  _adc6,R30
                 ; 0000 0383     adc7=read_adc(0);
000693 940e 16fe 	CALL SUBOPT_0x1E
000695 93e0 0281 	STS  _adc7,R30
                 ; 0000 0384 
                 ; 0000 0385     if(adc0>bt0){s0=1;sensor=sensor|1<<0;}      // deteksi hitam
000697 940e 1717 	CALL SUBOPT_0x24
000699 15e9      	CP   R30,R9
00069a f420      	BRSH _0xCE
00069b 9468      	SET
00069c f820      	BLD  R2,0
00069d e0e1      	LDI  R30,LOW(1)
00069e c003      	RJMP _0x39E
                 ; 0000 0386     else {s0=0;sensor=sensor|0<<0;}             // deteksi putih
                 _0xCE:
00069f 94e8      	CLT
0006a0 f820      	BLD  R2,0
0006a1 e0e0      	LDI  R30,LOW(0)
                 _0x39E:
0006a2 2a6e      	OR   R6,R30
                 ; 0000 0387 
                 ; 0000 0388     if(adc1>bt1){s1=1;sensor=sensor|1<<1;}
0006a3 940e 171c 	CALL SUBOPT_0x25
0006a5 15e8      	CP   R30,R8
0006a6 f420      	BRSH _0xD0
0006a7 9468      	SET
0006a8 f821      	BLD  R2,1
0006a9 e0e2      	LDI  R30,LOW(2)
0006aa c003      	RJMP _0x39F
                 ; 0000 0389     else {s1=0;sensor=sensor|0<<1;}
                 _0xD0:
0006ab 94e8      	CLT
0006ac f821      	BLD  R2,1
0006ad e0e0      	LDI  R30,LOW(0)
                 _0x39F:
0006ae 2a6e      	OR   R6,R30
                 ; 0000 038A 
                 ; 0000 038B     if(adc2>bt2){s2=1;sensor=sensor|1<<2;}
0006af 940e 1721 	CALL SUBOPT_0x26
0006b1 15eb      	CP   R30,R11
0006b2 f420      	BRSH _0xD2
0006b3 9468      	SET
0006b4 f822      	BLD  R2,2
0006b5 e0e4      	LDI  R30,LOW(4)
0006b6 c003      	RJMP _0x3A0
                 ; 0000 038C     else {s2=0;sensor=sensor|0<<2;}
                 _0xD2:
0006b7 94e8      	CLT
0006b8 f822      	BLD  R2,2
0006b9 e0e0      	LDI  R30,LOW(0)
                 _0x3A0:
0006ba 2a6e      	OR   R6,R30
                 ; 0000 038D 
                 ; 0000 038E     if(adc3>bt3){s3=1;sensor=sensor|1<<3;}
0006bb 940e 1726 	CALL SUBOPT_0x27
0006bd 15ea      	CP   R30,R10
0006be f420      	BRSH _0xD4
0006bf 9468      	SET
0006c0 f823      	BLD  R2,3
0006c1 e0e8      	LDI  R30,LOW(8)
0006c2 c003      	RJMP _0x3A1
                 ; 0000 038F     else {s3=0;sensor=sensor|0<<3;}
                 _0xD4:
0006c3 94e8      	CLT
0006c4 f823      	BLD  R2,3
0006c5 e0e0      	LDI  R30,LOW(0)
                 _0x3A1:
0006c6 2a6e      	OR   R6,R30
                 ; 0000 0390 
                 ; 0000 0391     if(adc4>bt4){s4=1;sensor=sensor|1<<4;}
0006c7 940e 172b 	CALL SUBOPT_0x28
0006c9 15ed      	CP   R30,R13
0006ca f420      	BRSH _0xD6
0006cb 9468      	SET
0006cc f824      	BLD  R2,4
0006cd e1e0      	LDI  R30,LOW(16)
0006ce c003      	RJMP _0x3A2
                 ; 0000 0392     else {s4=0;sensor=sensor|0<<4;}
                 _0xD6:
0006cf 94e8      	CLT
0006d0 f824      	BLD  R2,4
0006d1 e0e0      	LDI  R30,LOW(0)
                 _0x3A2:
0006d2 2a6e      	OR   R6,R30
                 ; 0000 0393 
                 ; 0000 0394     if(adc5>bt5){s5=1;sensor=sensor|1<<5;}
0006d3 940e 1730 	CALL SUBOPT_0x29
0006d5 15ec      	CP   R30,R12
0006d6 f420      	BRSH _0xD8
0006d7 9468      	SET
0006d8 f825      	BLD  R2,5
0006d9 e2e0      	LDI  R30,LOW(32)
0006da c003      	RJMP _0x3A3
                 ; 0000 0395     else {s5=0;sensor=sensor|0<<5;}
                 _0xD8:
0006db 94e8      	CLT
0006dc f825      	BLD  R2,5
0006dd e0e0      	LDI  R30,LOW(0)
                 _0x3A3:
0006de 2a6e      	OR   R6,R30
                 ; 0000 0396 
                 ; 0000 0397     if(adc6>bt6){s6=1;sensor=sensor|1<<6;}
0006df 940e 1735 	CALL SUBOPT_0x2A
0006e1 91a0 0280 	LDS  R26,_adc6
0006e3 17ea      	CP   R30,R26
0006e4 f420      	BRSH _0xDA
0006e5 9468      	SET
0006e6 f826      	BLD  R2,6
0006e7 e4e0      	LDI  R30,LOW(64)
0006e8 c003      	RJMP _0x3A4
                 ; 0000 0398     else {s6=0;sensor=sensor|0<<6;}
                 _0xDA:
0006e9 94e8      	CLT
0006ea f826      	BLD  R2,6
0006eb e0e0      	LDI  R30,LOW(0)
                 _0x3A4:
0006ec 2a6e      	OR   R6,R30
                 ; 0000 0399 
                 ; 0000 039A     if(adc7>bt7){s7=1;sensor=sensor|1<<7;}
0006ed 940e 173a 	CALL SUBOPT_0x2B
0006ef 91a0 0281 	LDS  R26,_adc7
0006f1 17ea      	CP   R30,R26
0006f2 f420      	BRSH _0xDC
0006f3 9468      	SET
0006f4 f827      	BLD  R2,7
0006f5 e8e0      	LDI  R30,LOW(128)
0006f6 c003      	RJMP _0x3A5
                 ; 0000 039B     else {s7=0;sensor=sensor|0<<7;}
                 _0xDC:
0006f7 94e8      	CLT
0006f8 f827      	BLD  R2,7
0006f9 e0e0      	LDI  R30,LOW(0)
                 _0x3A5:
0006fa 2a6e      	OR   R6,R30
                 ; 0000 039C 
                 ; 0000 039D     // hitam dari 1 dibuat 0
                 ; 0000 039E     // putih dari 0 dibuat 1
                 ; 0000 039F     s0 = ~s0;
0006fb e0e1      	LDI  R30,LOW(1)
0006fc 262e      	EOR  R2,R30
                 ; 0000 03A0     s1 = ~s1;
0006fd e0e2      	LDI  R30,LOW(2)
0006fe 262e      	EOR  R2,R30
                 ; 0000 03A1     s2 = ~s2;
0006ff e0e4      	LDI  R30,LOW(4)
000700 262e      	EOR  R2,R30
                 ; 0000 03A2     s3 = ~s3;
000701 e0e8      	LDI  R30,LOW(8)
000702 262e      	EOR  R2,R30
                 ; 0000 03A3     s4 = ~s4;
000703 e1e0      	LDI  R30,LOW(16)
000704 262e      	EOR  R2,R30
                 ; 0000 03A4     s5 = ~s5;
000705 e2e0      	LDI  R30,LOW(32)
000706 262e      	EOR  R2,R30
                 ; 0000 03A5     s6 = ~s6;
000707 e4e0      	LDI  R30,LOW(64)
000708 262e      	EOR  R2,R30
                 ; 0000 03A6     s7 = ~s7;
000709 e8e0      	LDI  R30,LOW(128)
00070a 262e      	EOR  R2,R30
                 ; 0000 03A7 
                 ; 0000 03A8     sensor = ~sensor;
00070b 9460      	COM  R6
                 ; 0000 03A9 
                 ; 0000 03AA     if(PINC.0)  sKa = 0;
00070c 9b98      	SBIS 0x13,0
00070d c002      	RJMP _0xDE
00070e 94e8      	CLT
00070f c001      	RJMP _0x3A6
                 ; 0000 03AB     else        sKa = 1;
                 _0xDE:
000710 9468      	SET
                 _0x3A6:
000711 f830      	BLD  R3,0
                 ; 0000 03AC 
                 ; 0000 03AD     if(PINC.1)  sKi = 0;
000712 9b99      	SBIS 0x13,1
000713 c002      	RJMP _0xE0
000714 94e8      	CLT
000715 c001      	RJMP _0x3A7
                 ; 0000 03AE     else        sKi = 1;
                 _0xE0:
000716 9468      	SET
                 _0x3A7:
000717 f831      	BLD  R3,1
                 ; 0000 03AF }
000718 9508      	RET
                 ;
                 ;void displaySensorBit(void)
                 ; 0000 03B2 {
                 _displaySensorBit:
                 ; 0000 03B3     baca_sensor();
000719 df62      	RCALL _baca_sensor
                 ; 0000 03B4 
                 ; 0000 03B5     lcd_gotoxy(2,1);
00071a e0e2      	LDI  R30,LOW(2)
00071b 940e 16d5 	CALL SUBOPT_0x15
                 ; 0000 03B6     if (s7) lcd_putchar('1');
00071d fe27      	SBRS R2,7
00071e c002      	RJMP _0xE2
00071f e3e1      	LDI  R30,LOW(49)
000720 c001      	RJMP _0x3A8
                 ; 0000 03B7     else    lcd_putchar('0');
                 _0xE2:
000721 e3e0      	LDI  R30,LOW(48)
                 _0x3A8:
000722 93ea      	ST   -Y,R30
000723 940e 15e4 	CALL _lcd_putchar
                 ; 0000 03B8     if (s6) lcd_putchar('1');
000725 fe26      	SBRS R2,6
000726 c002      	RJMP _0xE4
000727 e3e1      	LDI  R30,LOW(49)
000728 c001      	RJMP _0x3A9
                 ; 0000 03B9     else    lcd_putchar('0');
                 _0xE4:
000729 e3e0      	LDI  R30,LOW(48)
                 _0x3A9:
00072a 93ea      	ST   -Y,R30
00072b 940e 15e4 	CALL _lcd_putchar
                 ; 0000 03BA     if (s5) lcd_putchar('1');
00072d fe25      	SBRS R2,5
00072e c002      	RJMP _0xE6
00072f e3e1      	LDI  R30,LOW(49)
000730 c001      	RJMP _0x3AA
                 ; 0000 03BB     else    lcd_putchar('0');
                 _0xE6:
000731 e3e0      	LDI  R30,LOW(48)
                 _0x3AA:
000732 93ea      	ST   -Y,R30
000733 940e 15e4 	CALL _lcd_putchar
                 ; 0000 03BC     if (s4) lcd_putchar('1');
000735 fe24      	SBRS R2,4
000736 c002      	RJMP _0xE8
000737 e3e1      	LDI  R30,LOW(49)
000738 c001      	RJMP _0x3AB
                 ; 0000 03BD     else    lcd_putchar('0');
                 _0xE8:
000739 e3e0      	LDI  R30,LOW(48)
                 _0x3AB:
00073a 93ea      	ST   -Y,R30
00073b 940e 15e4 	CALL _lcd_putchar
                 ; 0000 03BE     if (s3) lcd_putchar('1');
00073d fe23      	SBRS R2,3
00073e c002      	RJMP _0xEA
00073f e3e1      	LDI  R30,LOW(49)
000740 c001      	RJMP _0x3AC
                 ; 0000 03BF     else    lcd_putchar('0');
                 _0xEA:
000741 e3e0      	LDI  R30,LOW(48)
                 _0x3AC:
000742 93ea      	ST   -Y,R30
000743 940e 15e4 	CALL _lcd_putchar
                 ; 0000 03C0     if (s2) lcd_putchar('1');
000745 fe22      	SBRS R2,2
000746 c002      	RJMP _0xEC
000747 e3e1      	LDI  R30,LOW(49)
000748 c001      	RJMP _0x3AD
                 ; 0000 03C1     else    lcd_putchar('0');
                 _0xEC:
000749 e3e0      	LDI  R30,LOW(48)
                 _0x3AD:
00074a 93ea      	ST   -Y,R30
00074b 940e 15e4 	CALL _lcd_putchar
                 ; 0000 03C2     if (s1) lcd_putchar('1');
00074d fe21      	SBRS R2,1
00074e c002      	RJMP _0xEE
00074f e3e1      	LDI  R30,LOW(49)
000750 c001      	RJMP _0x3AE
                 ; 0000 03C3     else    lcd_putchar('0');
                 _0xEE:
000751 e3e0      	LDI  R30,LOW(48)
                 _0x3AE:
000752 93ea      	ST   -Y,R30
000753 940e 15e4 	CALL _lcd_putchar
                 ; 0000 03C4     if (s0) lcd_putchar('1');
000755 fe20      	SBRS R2,0
000756 c002      	RJMP _0xF0
000757 e3e1      	LDI  R30,LOW(49)
000758 c001      	RJMP _0x3AF
                 ; 0000 03C5     else    lcd_putchar('0');
                 _0xF0:
000759 e3e0      	LDI  R30,LOW(48)
                 _0x3AF:
00075a 93ea      	ST   -Y,R30
00075b 940e 15e4 	CALL _lcd_putchar
                 ; 0000 03C6 }
00075d 9508      	RET
                 ;
                 ;void maju(void)
                 ; 0000 03C9 {
                 _maju:
                 ; 0000 03CA         kaplus=1;kirplus=1;
00075e 9aaf      	SBI  0x15,7
00075f 9aab      	SBI  0x15,3
                 ; 0000 03CB         kamin=0;kirmin=0;
000760 98ae      	CBI  0x15,6
000761 c021      	RJMP _0x208000C
                 ; 0000 03CC }
                 ;
                 ;void mundur(void)
                 ; 0000 03CF {
                 _mundur:
                 ; 0000 03D0         kaplus=0;kirplus=0;
000762 98af      	CBI  0x15,7
000763 98ab      	CBI  0x15,3
                 ; 0000 03D1         kamin=1;kirmin=1;
000764 9aae      	SBI  0x15,6
000765 c022      	RJMP _0x208000B
                 ; 0000 03D2 }
                 ;
                 ;void bkir(void)
                 ; 0000 03D5 {
                 _bkir:
                 ; 0000 03D6         kirplus=0;
000766 c020      	RJMP _0x208000A
                 ; 0000 03D7         kirmin=1;
                 ; 0000 03D8 }
                 ;
                 ;void bkan(void)
                 ; 0000 03DB {
                 _bkan:
                 ; 0000 03DC         kaplus=0;
000767 98af      	CBI  0x15,7
                 ; 0000 03DD         kamin=1;
000768 9aae      	SBI  0x15,6
                 ; 0000 03DE }
000769 9508      	RET
                 ;
                 ;void stop(char s)
                 ; 0000 03E1 {
                 _stop:
                 ; 0000 03E2         char i;
                 ; 0000 03E3         for(i=0;i<s;i++)
00076a 931a      	ST   -Y,R17
                 ;	s -> Y+1
                 ;	i -> R17
00076b e010      	LDI  R17,LOW(0)
                 _0x10B:
00076c 81e9      	LDD  R30,Y+1
00076d 171e      	CP   R17,R30
00076e f470      	BRSH _0x10C
                 ; 0000 03E4         {
                 ; 0000 03E5                 rpwm=255;lpwm=255;
00076f 940e 173f 	CALL SUBOPT_0x2C
000771 940e 1746 	CALL SUBOPT_0x2D
                 ; 0000 03E6                 Enki = 1;
000773 9aaa      	SBI  0x15,2
                 ; 0000 03E7                 Enka = 1;
000774 9aad      	SBI  0x15,5
                 ; 0000 03E8                 kaplus=1;kirplus=1;
000775 9aaf      	SBI  0x15,7
000776 9aab      	SBI  0x15,3
                 ; 0000 03E9                 kamin=1;kirmin=1;
000777 9aae      	SBI  0x15,6
000778 9aac      	SBI  0x15,4
                 ; 0000 03EA                 delay_ms(10);
000779 940e 174d 	CALL SUBOPT_0x2E
                 ; 0000 03EB         }
00077b 5f1f      	SUBI R17,-1
00077c cfef      	RJMP _0x10B
                 _0x10C:
                 ; 0000 03EC }
00077d 8118      	LDD  R17,Y+0
00077e 9622      	ADIW R28,2
00077f 9508      	RET
                 ;
                 ;void releaseStop(void)
                 ; 0000 03EF {
                 ; 0000 03F0         lpwm = 0;
                 ; 0000 03F1         rpwm = 0;
                 ; 0000 03F2 }
                 ;
                 ;void rotkan(void)
                 ; 0000 03F5 {
                 _rotkan:
                 ; 0000 03F6         kaplus=0;kamin=1;
000780 98af      	CBI  0x15,7
000781 9aae      	SBI  0x15,6
                 ; 0000 03F7         kirplus=1;kirmin=0;
000782 9aab      	SBI  0x15,3
                 _0x208000C:
000783 98ac      	CBI  0x15,4
                 ; 0000 03F8 }
000784 9508      	RET
                 ;
                 ;void rotkir(void)
                 ; 0000 03FB {
                 _rotkir:
                 ; 0000 03FC         kaplus=1;kamin=0;
000785 9aaf      	SBI  0x15,7
000786 98ae      	CBI  0x15,6
                 ; 0000 03FD         kirplus=0;kirmin=1;
                 _0x208000A:
000787 98ab      	CBI  0x15,3
                 _0x208000B:
000788 9aac      	SBI  0x15,4
                 ; 0000 03FE }
000789 9508      	RET
                 ;
                 ;void pemercepat(void)
                 ; 0000 0401 {
                 _pemercepat:
                 ; 0000 0402         int b;
                 ; 0000 0403 
                 ; 0000 0404         #asm("sei")
00078a 931a      	ST   -Y,R17
00078b 930a      	ST   -Y,R16
                 ;	b -> R16,R17
00078c 9478      	sei
                 ; 0000 0405 
                 ; 0000 0406         lpwm=0;
00078d 940e 1753 	CALL SUBOPT_0x2F
                 ; 0000 0407         rpwm=0;
                 ; 0000 0408 
                 ; 0000 0409         maju();
00078f dfce      	RCALL _maju
                 ; 0000 040A 
                 ; 0000 040B         for(b=0;b<255;b++)
                +
000790 e000     +LDI R16 , LOW ( 0 )
000791 e010     +LDI R17 , HIGH ( 0 )
                 	__GETWRN 16,17,0
                 _0x12A:
                +
000792 3f0f     +CPI R16 , LOW ( 255 )
000793 e0e0     +LDI R30 , HIGH ( 255 )
000794 071e     +CPC R17 , R30
                 	__CPWRN 16,17,255
000795 f4ac      	BRGE _0x12B
                 ; 0000 040C         {
                 ; 0000 040D             delay_ms(125);
000796 940e 16ae 	CALL SUBOPT_0xC
                 ; 0000 040E 
                 ; 0000 040F             lpwm++;
000798 e8a4      	LDI  R26,LOW(_lpwm)
000799 e0b2      	LDI  R27,HIGH(_lpwm)
00079a 940e 175d 	CALL SUBOPT_0x30
                 ; 0000 0410             rpwm++;
00079c e8a6      	LDI  R26,LOW(_rpwm)
00079d e0b2      	LDI  R27,HIGH(_rpwm)
00079e 940e 175d 	CALL SUBOPT_0x30
                 ; 0000 0411 
                 ; 0000 0412             lcd_clear();
0007a0 940e 1697 	CALL SUBOPT_0x8
                 ; 0000 0413 
                 ; 0000 0414             lcd_gotoxy(0,0);
                 ; 0000 0415             sprintf(lcd," %d %d",lpwm,rpwm);
0007a2 940e 16e7 	CALL SUBOPT_0x19
0007a4 940e 1763 	CALL SUBOPT_0x31
                 ; 0000 0416             lcd_puts(lcd);
0007a6 940e 1602 	CALL _lcd_puts
                 ; 0000 0417         }
                +
0007a8 5f0f     +SUBI R16 , LOW ( - 1 )
0007a9 4f1f     +SBCI R17 , HIGH ( - 1 )
                 	__ADDWRN 16,17,1
0007aa cfe7      	RJMP _0x12A
                 _0x12B:
                 ; 0000 0418         lpwm=0;
0007ab 940e 1753 	CALL SUBOPT_0x2F
                 ; 0000 0419         rpwm=0;
                 ; 0000 041A 
                 ; 0000 041B         #asm("cli")
0007ad 94f8      	cli
                 ; 0000 041C }
0007ae 9109      	LD   R16,Y+
0007af 9119      	LD   R17,Y+
0007b0 9508      	RET
                 ;
                 ;void pelambat(void)
                 ; 0000 041F {
                 _pelambat:
                 ; 0000 0420         int b;
                 ; 0000 0421 
                 ; 0000 0422         #asm("sei")
0007b1 931a      	ST   -Y,R17
0007b2 930a      	ST   -Y,R16
                 ;	b -> R16,R17
0007b3 9478      	sei
                 ; 0000 0423 
                 ; 0000 0424         lpwm=255;
0007b4 940e 1746 	CALL SUBOPT_0x2D
                 ; 0000 0425         rpwm=255;
0007b6 940e 173f 	CALL SUBOPT_0x2C
                 ; 0000 0426 
                 ; 0000 0427         mundur();
0007b8 dfa9      	RCALL _mundur
                 ; 0000 0428 
                 ; 0000 0429         for(b=0;b<255;b++)
                +
0007b9 e000     +LDI R16 , LOW ( 0 )
0007ba e010     +LDI R17 , HIGH ( 0 )
                 	__GETWRN 16,17,0
                 _0x12D:
                +
0007bb 3f0f     +CPI R16 , LOW ( 255 )
0007bc e0e0     +LDI R30 , HIGH ( 255 )
0007bd 071e     +CPC R17 , R30
                 	__CPWRN 16,17,255
0007be f4dc      	BRGE _0x12E
                 ; 0000 042A         {
                 ; 0000 042B             delay_ms(125);
0007bf 940e 16ae 	CALL SUBOPT_0xC
                 ; 0000 042C 
                 ; 0000 042D             lpwm--;
0007c1 e8a4      	LDI  R26,LOW(_lpwm)
0007c2 e0b2      	LDI  R27,HIGH(_lpwm)
0007c3 91ed      	LD   R30,X+
0007c4 91fd      	LD   R31,X+
0007c5 9731      	SBIW R30,1
0007c6 93fe      	ST   -X,R31
0007c7 93ee      	ST   -X,R30
                 ; 0000 042E             rpwm--;
0007c8 e8a6      	LDI  R26,LOW(_rpwm)
0007c9 e0b2      	LDI  R27,HIGH(_rpwm)
0007ca 91ed      	LD   R30,X+
0007cb 91fd      	LD   R31,X+
0007cc 9731      	SBIW R30,1
0007cd 93fe      	ST   -X,R31
0007ce 93ee      	ST   -X,R30
                 ; 0000 042F 
                 ; 0000 0430             lcd_clear();
0007cf 940e 1697 	CALL SUBOPT_0x8
                 ; 0000 0431 
                 ; 0000 0432             lcd_gotoxy(0,0);
                 ; 0000 0433             sprintf(lcd," %d %d",lpwm,rpwm);
0007d1 940e 16e7 	CALL SUBOPT_0x19
0007d3 940e 1763 	CALL SUBOPT_0x31
                 ; 0000 0434             lcd_puts(lcd);
0007d5 940e 1602 	CALL _lcd_puts
                 ; 0000 0435         }
                +
0007d7 5f0f     +SUBI R16 , LOW ( - 1 )
0007d8 4f1f     +SBCI R17 , HIGH ( - 1 )
                 	__ADDWRN 16,17,1
0007d9 cfe1      	RJMP _0x12D
                 _0x12E:
                 ; 0000 0436         lpwm=0;
0007da 940e 1753 	CALL SUBOPT_0x2F
                 ; 0000 0437         rpwm=0;
                 ; 0000 0438 
                 ; 0000 0439         #asm("cli")
0007dc 94f8      	cli
                 ; 0000 043A }
0007dd c39e      	RJMP _0x2080009
                 ;
                 ;void cek_sensor(void)
                 ; 0000 043D {
                 _cek_sensor:
                 ; 0000 043E         int t;
                 ; 0000 043F 
                 ; 0000 0440         baca_sensor();
0007de 931a      	ST   -Y,R17
0007df 930a      	ST   -Y,R16
                 ;	t -> R16,R17
0007e0 de9b      	RCALL _baca_sensor
                 ; 0000 0441         lcd_clear();
0007e1 940e 15d5 	CALL _lcd_clear
                 ; 0000 0442         delay_ms(125);
0007e3 940e 16ae 	CALL SUBOPT_0xC
                 ; 0000 0443                 // wait 125ms
                 ; 0000 0444         lcd_gotoxy(0,0);
0007e5 940e 1683 	CALL SUBOPT_0x4
                 ; 0000 0445                 //0123456789abcdef
                 ; 0000 0446         lcd_putsf(" Test:Sensor    ");
                +
0007e7 e6e0     +LDI R30 , LOW ( 2 * _0x0 + ( 496 ) )
0007e8 e0f2     +LDI R31 , HIGH ( 2 * _0x0 + ( 496 ) )
                 	__POINTW1FN _0x0,496
0007e9 940e 1688 	CALL SUBOPT_0x5
                 ; 0000 0447 
                 ; 0000 0448         for (t=0; t<30000; t++) {displaySensorBit();}
                +
0007eb e000     +LDI R16 , LOW ( 0 )
0007ec e010     +LDI R17 , HIGH ( 0 )
                 	__GETWRN 16,17,0
                 _0x130:
                +
0007ed 3300     +CPI R16 , LOW ( 30000 )
0007ee e7e5     +LDI R30 , HIGH ( 30000 )
0007ef 071e     +CPC R17 , R30
                 	__CPWRN 16,17,30000
0007f0 f424      	BRGE _0x131
0007f1 df27      	RCALL _displaySensorBit
                +
0007f2 5f0f     +SUBI R16 , LOW ( - 1 )
0007f3 4f1f     +SBCI R17 , HIGH ( - 1 )
                 	__ADDWRN 16,17,1
0007f4 cff8      	RJMP _0x130
                 _0x131:
                 ; 0000 0449 }
0007f5 c386      	RJMP _0x2080009
                 ;
                 ;void tune_batas(void)
                 ; 0000 044C {
                 _tune_batas:
                 ; 0000 044D         int k;
                 ; 0000 044E 
                 ; 0000 044F         ba7=7;
0007f6 940e 1776 	CALL SUBOPT_0x32
                 ;	k -> R16,R17
                 ; 0000 0450         ba6=7;
                 ; 0000 0451         ba5=7;
                 ; 0000 0452         ba4=7;
                 ; 0000 0453         ba3=7;
                 ; 0000 0454         ba2=7;
                 ; 0000 0455         ba1=7;
                 ; 0000 0456         ba0=7;
                 ; 0000 0457         bb7=200;
                 ; 0000 0458         bb6=200;
                 ; 0000 0459         bb5=200;
                 ; 0000 045A         bb4=200;
                 ; 0000 045B         bb3=200;
                 ; 0000 045C         bb2=200;
                 ; 0000 045D         bb1=200;
                 ; 0000 045E         bb0=200;
                 ; 0000 045F 
                 ; 0000 0460         lcd_clear();
0007f8 940e 15d5 	CALL _lcd_clear
                 ; 0000 0461 
                 ; 0000 0462     for(;;)
                 _0x133:
                 ; 0000 0463     {
                 ; 0000 0464         k = 0;
                +
0007fa e000     +LDI R16 , LOW ( 0 )
0007fb e010     +LDI R17 , HIGH ( 0 )
                 	__GETWRN 16,17,0
                 ; 0000 0465 
                 ; 0000 0466         k = read_adc(0);
0007fc 940e 16fe 	CALL SUBOPT_0x1E
0007fe 940e 17bb 	CALL SUBOPT_0x33
                 ; 0000 0467         if  (k<bb0)   {bb0=k;}
000800 f42c      	BRGE _0x135
000801 2fe0      	MOV  R30,R16
000802 e2a4      	LDI  R26,LOW(_bb0)
000803 e0b0      	LDI  R27,HIGH(_bb0)
000804 940e 1a5e 	CALL __EEPROMWRB
                 ; 0000 0468         if  (k>ba0)   {ba0=k;}
                 _0x135:
000806 940e 17c6 	CALL SUBOPT_0x34
000808 940e 17cb 	CALL SUBOPT_0x35
00080a 17ea      	CP   R30,R26
00080b 07fb      	CPC  R31,R27
00080c f42c      	BRGE _0x136
00080d 2fe0      	MOV  R30,R16
00080e e1ac      	LDI  R26,LOW(_ba0)
00080f e0b0      	LDI  R27,HIGH(_ba0)
000810 940e 1a5e 	CALL __EEPROMWRB
                 ; 0000 0469 
                 ; 0000 046A         bt0=((bb0+ba0)/2);
                 _0x136:
000812 940e 17ce 	CALL SUBOPT_0x36
000814 2e0e      	MOV  R0,R30
000815 2411      	CLR  R1
000816 940e 17c6 	CALL SUBOPT_0x34
000818 940e 17d3 	CALL SUBOPT_0x37
00081a e1a4      	LDI  R26,LOW(_bt0)
00081b e0b0      	LDI  R27,HIGH(_bt0)
00081c 940e 17dc 	CALL SUBOPT_0x38
                 ; 0000 046B 
                 ; 0000 046C         lcd_clear();
                 ; 0000 046D         lcd_gotoxy(1,0);
                 ; 0000 046E         lcd_putsf(" bb0  ba0  bt0");
                +
00081e e7e1     +LDI R30 , LOW ( 2 * _0x0 + ( 513 ) )
00081f e0f2     +LDI R31 , HIGH ( 2 * _0x0 + ( 513 ) )
                 	__POINTW1FN _0x0,513
000820 940e 1688 	CALL SUBOPT_0x5
                 ; 0000 046F         lcd_gotoxy(1,1);
000822 e0e1      	LDI  R30,LOW(1)
000823 940e 16d5 	CALL SUBOPT_0x15
                 ; 0000 0470         sprintf(lcd," %d  %d  %d",bb0,ba0,bt0);
000825 940e 16e7 	CALL SUBOPT_0x19
000827 940e 17e2 	CALL SUBOPT_0x39
000829 940e 17ce 	CALL SUBOPT_0x36
00082b 940e 16f0 	CALL SUBOPT_0x1B
00082d 940e 17c6 	CALL SUBOPT_0x34
00082f 940e 16f0 	CALL SUBOPT_0x1B
000831 940e 1717 	CALL SUBOPT_0x24
000833 940e 16f0 	CALL SUBOPT_0x1B
000835 940e 17e7 	CALL SUBOPT_0x3A
                 ; 0000 0471         lcd_puts(lcd);
000837 940e 17ec 	CALL SUBOPT_0x3B
                 ; 0000 0472         delay_ms(50);
                 ; 0000 0473 
                 ; 0000 0474         if(!sw_ok)
000839 9985      	SBIC 0x10,5
00083a c003      	RJMP _0x137
                 ; 0000 0475         {
                 ; 0000 0476             delay_ms(125);
00083b 940e 16ae 	CALL SUBOPT_0xC
                 ; 0000 0477             goto sensor1;
00083d c001      	RJMP _0x138
                 ; 0000 0478         }
                 ; 0000 0479     }
                 _0x137:
00083e cfbb      	RJMP _0x133
                 ; 0000 047A     sensor1:
                 _0x138:
                 ; 0000 047B     for(;;)
                 _0x13A:
                 ; 0000 047C     {
                 ; 0000 047D         k = read_adc(1);
00083f 940e 16fa 	CALL SUBOPT_0x1D
000841 940e 17f4 	CALL SUBOPT_0x3C
                 ; 0000 047E         if  (k<bb1)   {bb1=k;}
000843 17ae      	CP   R26,R30
000844 07bf      	CPC  R27,R31
000845 f42c      	BRGE _0x13C
000846 2fe0      	MOV  R30,R16
000847 e2a3      	LDI  R26,LOW(_bb1)
000848 e0b0      	LDI  R27,HIGH(_bb1)
000849 940e 1a5e 	CALL __EEPROMWRB
                 ; 0000 047F         if  (k>ba1)   {ba1=k;}
                 _0x13C:
00084b 940e 17fb 	CALL SUBOPT_0x3D
00084d 940e 17cb 	CALL SUBOPT_0x35
00084f 17ea      	CP   R30,R26
000850 07fb      	CPC  R31,R27
000851 f42c      	BRGE _0x13D
000852 2fe0      	MOV  R30,R16
000853 e1ab      	LDI  R26,LOW(_ba1)
000854 e0b0      	LDI  R27,HIGH(_ba1)
000855 940e 1a5e 	CALL __EEPROMWRB
                 ; 0000 0480 
                 ; 0000 0481         bt1=((bb1+ba1)/2);
                 _0x13D:
000857 940e 1800 	CALL SUBOPT_0x3E
000859 2e0e      	MOV  R0,R30
00085a 2411      	CLR  R1
00085b 940e 17fb 	CALL SUBOPT_0x3D
00085d 940e 17d3 	CALL SUBOPT_0x37
00085f e1a3      	LDI  R26,LOW(_bt1)
000860 e0b0      	LDI  R27,HIGH(_bt1)
000861 940e 17dc 	CALL SUBOPT_0x38
                 ; 0000 0482 
                 ; 0000 0483         lcd_clear();
                 ; 0000 0484         lcd_gotoxy(1,0);
                 ; 0000 0485         lcd_putsf(" bb1  ba1  bt1");
                +
000863 e8ec     +LDI R30 , LOW ( 2 * _0x0 + ( 540 ) )
000864 e0f2     +LDI R31 , HIGH ( 2 * _0x0 + ( 540 ) )
                 	__POINTW1FN _0x0,540
000865 940e 1688 	CALL SUBOPT_0x5
                 ; 0000 0486         lcd_gotoxy(1,1);
000867 e0e1      	LDI  R30,LOW(1)
000868 940e 16d5 	CALL SUBOPT_0x15
                 ; 0000 0487         sprintf(lcd," %d  %d  %d",bb1,ba1,bt1);
00086a 940e 16e7 	CALL SUBOPT_0x19
00086c 940e 17e2 	CALL SUBOPT_0x39
00086e 940e 1800 	CALL SUBOPT_0x3E
000870 940e 16f0 	CALL SUBOPT_0x1B
000872 940e 17fb 	CALL SUBOPT_0x3D
000874 940e 16f0 	CALL SUBOPT_0x1B
000876 940e 171c 	CALL SUBOPT_0x25
000878 940e 16f0 	CALL SUBOPT_0x1B
00087a 940e 17e7 	CALL SUBOPT_0x3A
                 ; 0000 0488         lcd_puts(lcd);
00087c 940e 17ec 	CALL SUBOPT_0x3B
                 ; 0000 0489         delay_ms(50);
                 ; 0000 048A 
                 ; 0000 048B         if(!sw_ok)
00087e 9985      	SBIC 0x10,5
00087f c003      	RJMP _0x13E
                 ; 0000 048C         {
                 ; 0000 048D             delay_ms(150);
000880 940e 169a 	CALL SUBOPT_0x9
                 ; 0000 048E             goto sensor2;
000882 c001      	RJMP _0x13F
                 ; 0000 048F         }
                 ; 0000 0490     }
                 _0x13E:
000883 cfbb      	RJMP _0x13A
                 ; 0000 0491     sensor2:
                 _0x13F:
                 ; 0000 0492     for(;;)
                 _0x141:
                 ; 0000 0493     {
                 ; 0000 0494         k = read_adc(2);
000884 940e 16f6 	CALL SUBOPT_0x1C
000886 940e 1805 	CALL SUBOPT_0x3F
                 ; 0000 0495         if  (k<bb2)   {bb2=k;}
000888 17ae      	CP   R26,R30
000889 07bf      	CPC  R27,R31
00088a f42c      	BRGE _0x143
00088b 2fe0      	MOV  R30,R16
00088c e2a2      	LDI  R26,LOW(_bb2)
00088d e0b0      	LDI  R27,HIGH(_bb2)
00088e 940e 1a5e 	CALL __EEPROMWRB
                 ; 0000 0496         if  (k>ba2)   {ba2=k;}
                 _0x143:
000890 940e 180c 	CALL SUBOPT_0x40
000892 940e 17cb 	CALL SUBOPT_0x35
000894 17ea      	CP   R30,R26
000895 07fb      	CPC  R31,R27
000896 f42c      	BRGE _0x144
000897 2fe0      	MOV  R30,R16
000898 e1aa      	LDI  R26,LOW(_ba2)
000899 e0b0      	LDI  R27,HIGH(_ba2)
00089a 940e 1a5e 	CALL __EEPROMWRB
                 ; 0000 0497 
                 ; 0000 0498         bt2=((bb2+ba2)/2);
                 _0x144:
00089c 940e 1811 	CALL SUBOPT_0x41
00089e 2e0e      	MOV  R0,R30
00089f 2411      	CLR  R1
0008a0 940e 180c 	CALL SUBOPT_0x40
0008a2 940e 17d3 	CALL SUBOPT_0x37
0008a4 e1a2      	LDI  R26,LOW(_bt2)
0008a5 e0b0      	LDI  R27,HIGH(_bt2)
0008a6 940e 17dc 	CALL SUBOPT_0x38
                 ; 0000 0499 
                 ; 0000 049A         lcd_clear();
                 ; 0000 049B         lcd_gotoxy(1,0);
                 ; 0000 049C         lcd_putsf(" bb2  ba2  bt2");
                +
0008a8 e9eb     +LDI R30 , LOW ( 2 * _0x0 + ( 555 ) )
0008a9 e0f2     +LDI R31 , HIGH ( 2 * _0x0 + ( 555 ) )
                 	__POINTW1FN _0x0,555
0008aa 940e 1688 	CALL SUBOPT_0x5
                 ; 0000 049D         lcd_gotoxy(1,1);
0008ac e0e1      	LDI  R30,LOW(1)
0008ad 940e 16d5 	CALL SUBOPT_0x15
                 ; 0000 049E         sprintf(lcd," %d  %d  %d",bb2,ba2,bt2);
0008af 940e 16e7 	CALL SUBOPT_0x19
0008b1 940e 17e2 	CALL SUBOPT_0x39
0008b3 940e 1811 	CALL SUBOPT_0x41
0008b5 940e 16f0 	CALL SUBOPT_0x1B
0008b7 940e 180c 	CALL SUBOPT_0x40
0008b9 940e 16f0 	CALL SUBOPT_0x1B
0008bb 940e 1721 	CALL SUBOPT_0x26
0008bd 940e 16f0 	CALL SUBOPT_0x1B
0008bf 940e 17e7 	CALL SUBOPT_0x3A
                 ; 0000 049F         lcd_puts(lcd);
0008c1 940e 1816 	CALL SUBOPT_0x42
                 ; 0000 04A0         delay_ms(10);
                 ; 0000 04A1 
                 ; 0000 04A2         if(!sw_ok)
0008c3 9985      	SBIC 0x10,5
0008c4 c003      	RJMP _0x145
                 ; 0000 04A3         {
                 ; 0000 04A4             delay_ms(150);
0008c5 940e 169a 	CALL SUBOPT_0x9
                 ; 0000 04A5             goto sensor3;
0008c7 c001      	RJMP _0x146
                 ; 0000 04A6         }
                 ; 0000 04A7     }
                 _0x145:
0008c8 cfbb      	RJMP _0x141
                 ; 0000 04A8     sensor3:
                 _0x146:
                 ; 0000 04A9     for(;;)
                 _0x148:
                 ; 0000 04AA     {
                 ; 0000 04AB         k = read_adc(3);
0008c9 940e 16ec 	CALL SUBOPT_0x1A
0008cb 940e 1819 	CALL SUBOPT_0x43
                 ; 0000 04AC         if  (k<bb3)   {bb3=k;}
0008cd 17ae      	CP   R26,R30
0008ce 07bf      	CPC  R27,R31
0008cf f42c      	BRGE _0x14A
0008d0 2fe0      	MOV  R30,R16
0008d1 e2a1      	LDI  R26,LOW(_bb3)
0008d2 e0b0      	LDI  R27,HIGH(_bb3)
0008d3 940e 1a5e 	CALL __EEPROMWRB
                 ; 0000 04AD         if  (k>ba3)   {ba3=k;}
                 _0x14A:
0008d5 940e 1820 	CALL SUBOPT_0x44
0008d7 940e 17cb 	CALL SUBOPT_0x35
0008d9 17ea      	CP   R30,R26
0008da 07fb      	CPC  R31,R27
0008db f42c      	BRGE _0x14B
0008dc 2fe0      	MOV  R30,R16
0008dd e1a9      	LDI  R26,LOW(_ba3)
0008de e0b0      	LDI  R27,HIGH(_ba3)
0008df 940e 1a5e 	CALL __EEPROMWRB
                 ; 0000 04AE 
                 ; 0000 04AF         bt3=((bb3+ba3)/2);
                 _0x14B:
0008e1 940e 1825 	CALL SUBOPT_0x45
0008e3 2e0e      	MOV  R0,R30
0008e4 2411      	CLR  R1
0008e5 940e 1820 	CALL SUBOPT_0x44
0008e7 940e 17d3 	CALL SUBOPT_0x37
0008e9 e1a1      	LDI  R26,LOW(_bt3)
0008ea e0b0      	LDI  R27,HIGH(_bt3)
0008eb 940e 17dc 	CALL SUBOPT_0x38
                 ; 0000 04B0 
                 ; 0000 04B1         lcd_clear();
                 ; 0000 04B2         lcd_gotoxy(1,0);
                 ; 0000 04B3         lcd_putsf(" bb3  ba3  bt3");
                +
0008ed eaea     +LDI R30 , LOW ( 2 * _0x0 + ( 570 ) )
0008ee e0f2     +LDI R31 , HIGH ( 2 * _0x0 + ( 570 ) )
                 	__POINTW1FN _0x0,570
0008ef 940e 1688 	CALL SUBOPT_0x5
                 ; 0000 04B4         lcd_gotoxy(1,1);
0008f1 e0e1      	LDI  R30,LOW(1)
0008f2 940e 16d5 	CALL SUBOPT_0x15
                 ; 0000 04B5         sprintf(lcd," %d  %d  %d",bb3,ba3,bt3);
0008f4 940e 16e7 	CALL SUBOPT_0x19
0008f6 940e 17e2 	CALL SUBOPT_0x39
0008f8 940e 1825 	CALL SUBOPT_0x45
0008fa 940e 16f0 	CALL SUBOPT_0x1B
0008fc 940e 1820 	CALL SUBOPT_0x44
0008fe 940e 16f0 	CALL SUBOPT_0x1B
000900 940e 1726 	CALL SUBOPT_0x27
000902 940e 16f0 	CALL SUBOPT_0x1B
000904 940e 17e7 	CALL SUBOPT_0x3A
                 ; 0000 04B6         lcd_puts(lcd);
000906 940e 1816 	CALL SUBOPT_0x42
                 ; 0000 04B7         delay_ms(10);
                 ; 0000 04B8 
                 ; 0000 04B9         if(!sw_ok)
000908 9985      	SBIC 0x10,5
000909 c003      	RJMP _0x14C
                 ; 0000 04BA         {
                 ; 0000 04BB             delay_ms(150);
00090a 940e 169a 	CALL SUBOPT_0x9
                 ; 0000 04BC             goto sensor4;
00090c c001      	RJMP _0x14D
                 ; 0000 04BD         }
                 ; 0000 04BE     }
                 _0x14C:
00090d cfbb      	RJMP _0x148
                 ; 0000 04BF     sensor4:
                 _0x14D:
                 ; 0000 04C0     for(;;)
                 _0x14F:
                 ; 0000 04C1     {
                 ; 0000 04C2         k = read_adc(4);
00090e 940e 1713 	CALL SUBOPT_0x23
000910 940e 182a 	CALL SUBOPT_0x46
                 ; 0000 04C3         if  (k<bb4)   {bb4=k;}
000912 17ae      	CP   R26,R30
000913 07bf      	CPC  R27,R31
000914 f42c      	BRGE _0x151
000915 2fe0      	MOV  R30,R16
000916 e2a0      	LDI  R26,LOW(_bb4)
000917 e0b0      	LDI  R27,HIGH(_bb4)
000918 940e 1a5e 	CALL __EEPROMWRB
                 ; 0000 04C4         if  (k>ba4)   {ba4=k;}
                 _0x151:
00091a 940e 1831 	CALL SUBOPT_0x47
00091c 940e 17cb 	CALL SUBOPT_0x35
00091e 17ea      	CP   R30,R26
00091f 07fb      	CPC  R31,R27
000920 f42c      	BRGE _0x152
000921 2fe0      	MOV  R30,R16
000922 e1a8      	LDI  R26,LOW(_ba4)
000923 e0b0      	LDI  R27,HIGH(_ba4)
000924 940e 1a5e 	CALL __EEPROMWRB
                 ; 0000 04C5 
                 ; 0000 04C6         bt4=((bb4+ba4)/2);
                 _0x152:
000926 940e 1836 	CALL SUBOPT_0x48
000928 2e0e      	MOV  R0,R30
000929 2411      	CLR  R1
00092a 940e 1831 	CALL SUBOPT_0x47
00092c 940e 17d3 	CALL SUBOPT_0x37
00092e e1a0      	LDI  R26,LOW(_bt4)
00092f e0b0      	LDI  R27,HIGH(_bt4)
000930 940e 17dc 	CALL SUBOPT_0x38
                 ; 0000 04C7 
                 ; 0000 04C8         lcd_clear();
                 ; 0000 04C9         lcd_gotoxy(1,0);
                 ; 0000 04CA         lcd_putsf(" bb4  ba4  bt4");
                +
000932 ebe9     +LDI R30 , LOW ( 2 * _0x0 + ( 585 ) )
000933 e0f2     +LDI R31 , HIGH ( 2 * _0x0 + ( 585 ) )
                 	__POINTW1FN _0x0,585
000934 940e 1688 	CALL SUBOPT_0x5
                 ; 0000 04CB         lcd_gotoxy(1,1);
000936 e0e1      	LDI  R30,LOW(1)
000937 940e 16d5 	CALL SUBOPT_0x15
                 ; 0000 04CC         sprintf(lcd," %d  %d  %d",bb4,ba4,bt4);
000939 940e 16e7 	CALL SUBOPT_0x19
00093b 940e 17e2 	CALL SUBOPT_0x39
00093d 940e 1836 	CALL SUBOPT_0x48
00093f 940e 16f0 	CALL SUBOPT_0x1B
000941 940e 1831 	CALL SUBOPT_0x47
000943 940e 16f0 	CALL SUBOPT_0x1B
000945 940e 172b 	CALL SUBOPT_0x28
000947 940e 16f0 	CALL SUBOPT_0x1B
000949 940e 17e7 	CALL SUBOPT_0x3A
                 ; 0000 04CD         lcd_puts(lcd);
00094b 940e 1816 	CALL SUBOPT_0x42
                 ; 0000 04CE         delay_ms(10);
                 ; 0000 04CF 
                 ; 0000 04D0         if(!sw_ok)
00094d 9985      	SBIC 0x10,5
00094e c003      	RJMP _0x153
                 ; 0000 04D1         {
                 ; 0000 04D2             delay_ms(150);
00094f 940e 169a 	CALL SUBOPT_0x9
                 ; 0000 04D3             goto sensor5;
000951 c001      	RJMP _0x154
                 ; 0000 04D4         }
                 ; 0000 04D5     }
                 _0x153:
000952 cfbb      	RJMP _0x14F
                 ; 0000 04D6     sensor5:
                 _0x154:
                 ; 0000 04D7     for(;;)
                 _0x156:
                 ; 0000 04D8     {
                 ; 0000 04D9         k = read_adc(5);
000953 940e 170f 	CALL SUBOPT_0x22
000955 940e 183b 	CALL SUBOPT_0x49
                 ; 0000 04DA         if  (k<bb5)   {bb5=k;}
000957 17ae      	CP   R26,R30
000958 07bf      	CPC  R27,R31
000959 f42c      	BRGE _0x158
00095a 2fe0      	MOV  R30,R16
00095b e1af      	LDI  R26,LOW(_bb5)
00095c e0b0      	LDI  R27,HIGH(_bb5)
00095d 940e 1a5e 	CALL __EEPROMWRB
                 ; 0000 04DB         if  (k>ba5)   {ba5=k;}
                 _0x158:
00095f 940e 1842 	CALL SUBOPT_0x4A
000961 940e 17cb 	CALL SUBOPT_0x35
000963 17ea      	CP   R30,R26
000964 07fb      	CPC  R31,R27
000965 f42c      	BRGE _0x159
000966 2fe0      	MOV  R30,R16
000967 e1a7      	LDI  R26,LOW(_ba5)
000968 e0b0      	LDI  R27,HIGH(_ba5)
000969 940e 1a5e 	CALL __EEPROMWRB
                 ; 0000 04DC 
                 ; 0000 04DD         bt5=((bb5+ba5)/2);
                 _0x159:
00096b 940e 1847 	CALL SUBOPT_0x4B
00096d 2e0e      	MOV  R0,R30
00096e 2411      	CLR  R1
00096f 940e 1842 	CALL SUBOPT_0x4A
000971 940e 17d3 	CALL SUBOPT_0x37
000973 e0af      	LDI  R26,LOW(_bt5)
000974 e0b0      	LDI  R27,HIGH(_bt5)
000975 940e 17dc 	CALL SUBOPT_0x38
                 ; 0000 04DE 
                 ; 0000 04DF         lcd_clear();
                 ; 0000 04E0         lcd_gotoxy(1,0);
                 ; 0000 04E1         lcd_putsf(" bb5  ba5  bt5");
                +
000977 ece8     +LDI R30 , LOW ( 2 * _0x0 + ( 600 ) )
000978 e0f2     +LDI R31 , HIGH ( 2 * _0x0 + ( 600 ) )
                 	__POINTW1FN _0x0,600
000979 940e 1688 	CALL SUBOPT_0x5
                 ; 0000 04E2         lcd_gotoxy(1,1);
00097b e0e1      	LDI  R30,LOW(1)
00097c 940e 16d5 	CALL SUBOPT_0x15
                 ; 0000 04E3         sprintf(lcd," %d  %d  %d",bb5,ba5,bt5);
00097e 940e 16e7 	CALL SUBOPT_0x19
000980 940e 17e2 	CALL SUBOPT_0x39
000982 940e 1847 	CALL SUBOPT_0x4B
000984 940e 16f0 	CALL SUBOPT_0x1B
000986 940e 1842 	CALL SUBOPT_0x4A
000988 940e 16f0 	CALL SUBOPT_0x1B
00098a 940e 1730 	CALL SUBOPT_0x29
00098c 940e 16f0 	CALL SUBOPT_0x1B
00098e 940e 17e7 	CALL SUBOPT_0x3A
                 ; 0000 04E4         lcd_puts(lcd);
000990 940e 1816 	CALL SUBOPT_0x42
                 ; 0000 04E5         delay_ms(10);
                 ; 0000 04E6 
                 ; 0000 04E7         if(!sw_ok)
000992 9985      	SBIC 0x10,5
000993 c003      	RJMP _0x15A
                 ; 0000 04E8         {
                 ; 0000 04E9             delay_ms(150);
000994 940e 169a 	CALL SUBOPT_0x9
                 ; 0000 04EA             goto sensor6;
000996 c001      	RJMP _0x15B
                 ; 0000 04EB         }
                 ; 0000 04EC     }
                 _0x15A:
000997 cfbb      	RJMP _0x156
                 ; 0000 04ED     sensor6:
                 _0x15B:
                 ; 0000 04EE     for(;;)
                 _0x15D:
                 ; 0000 04EF     {
                 ; 0000 04F0         k = read_adc(06);
000998 940e 170b 	CALL SUBOPT_0x21
00099a 940e 184c 	CALL SUBOPT_0x4C
                 ; 0000 04F1         if  (k<bb6)   {bb6=k;}
00099c 17ae      	CP   R26,R30
00099d 07bf      	CPC  R27,R31
00099e f42c      	BRGE _0x15F
00099f 2fe0      	MOV  R30,R16
0009a0 e1ae      	LDI  R26,LOW(_bb6)
0009a1 e0b0      	LDI  R27,HIGH(_bb6)
0009a2 940e 1a5e 	CALL __EEPROMWRB
                 ; 0000 04F2         if  (k>ba6)   {ba6=k;}
                 _0x15F:
0009a4 940e 1853 	CALL SUBOPT_0x4D
0009a6 940e 17cb 	CALL SUBOPT_0x35
0009a8 17ea      	CP   R30,R26
0009a9 07fb      	CPC  R31,R27
0009aa f42c      	BRGE _0x160
0009ab 2fe0      	MOV  R30,R16
0009ac e1a6      	LDI  R26,LOW(_ba6)
0009ad e0b0      	LDI  R27,HIGH(_ba6)
0009ae 940e 1a5e 	CALL __EEPROMWRB
                 ; 0000 04F3 
                 ; 0000 04F4         bt6=((bb6+ba6)/2);
                 _0x160:
0009b0 940e 1858 	CALL SUBOPT_0x4E
0009b2 2e0e      	MOV  R0,R30
0009b3 2411      	CLR  R1
0009b4 940e 1853 	CALL SUBOPT_0x4D
0009b6 940e 17d3 	CALL SUBOPT_0x37
0009b8 e0ae      	LDI  R26,LOW(_bt6)
0009b9 e0b0      	LDI  R27,HIGH(_bt6)
0009ba 940e 17dc 	CALL SUBOPT_0x38
                 ; 0000 04F5 
                 ; 0000 04F6         lcd_clear();
                 ; 0000 04F7         lcd_gotoxy(1,0);
                 ; 0000 04F8         lcd_putsf(" bb6  ba6  bt6");
                +
0009bc ede7     +LDI R30 , LOW ( 2 * _0x0 + ( 615 ) )
0009bd e0f2     +LDI R31 , HIGH ( 2 * _0x0 + ( 615 ) )
                 	__POINTW1FN _0x0,615
0009be 940e 1688 	CALL SUBOPT_0x5
                 ; 0000 04F9         lcd_gotoxy(1,1);
0009c0 e0e1      	LDI  R30,LOW(1)
0009c1 940e 16d5 	CALL SUBOPT_0x15
                 ; 0000 04FA         sprintf(lcd," %d  %d  %d",bb6,ba6,bt6);
0009c3 940e 16e7 	CALL SUBOPT_0x19
0009c5 940e 17e2 	CALL SUBOPT_0x39
0009c7 940e 1858 	CALL SUBOPT_0x4E
0009c9 940e 16f0 	CALL SUBOPT_0x1B
0009cb 940e 1853 	CALL SUBOPT_0x4D
0009cd 940e 16f0 	CALL SUBOPT_0x1B
0009cf 940e 1735 	CALL SUBOPT_0x2A
0009d1 940e 16f0 	CALL SUBOPT_0x1B
0009d3 940e 17e7 	CALL SUBOPT_0x3A
                 ; 0000 04FB         lcd_puts(lcd);
0009d5 940e 1816 	CALL SUBOPT_0x42
                 ; 0000 04FC         delay_ms(10);
                 ; 0000 04FD 
                 ; 0000 04FE         if(!sw_ok)
0009d7 9985      	SBIC 0x10,5
0009d8 c003      	RJMP _0x161
                 ; 0000 04FF         {
                 ; 0000 0500             delay_ms(150);
0009d9 940e 169a 	CALL SUBOPT_0x9
                 ; 0000 0501             goto sensor7;
0009db c001      	RJMP _0x162
                 ; 0000 0502         }
                 ; 0000 0503     }
                 _0x161:
0009dc cfbb      	RJMP _0x15D
                 ; 0000 0504     sensor7:
                 _0x162:
                 ; 0000 0505     for(;;)
                 _0x164:
                 ; 0000 0506     {
                 ; 0000 0507         k = read_adc(7);
0009dd 940e 1707 	CALL SUBOPT_0x20
0009df 940e 185d 	CALL SUBOPT_0x4F
                 ; 0000 0508         if  (k<bb7)   {bb7=k;}
0009e1 17ae      	CP   R26,R30
0009e2 07bf      	CPC  R27,R31
0009e3 f42c      	BRGE _0x166
0009e4 2fe0      	MOV  R30,R16
0009e5 e1ad      	LDI  R26,LOW(_bb7)
0009e6 e0b0      	LDI  R27,HIGH(_bb7)
0009e7 940e 1a5e 	CALL __EEPROMWRB
                 ; 0000 0509         if  (k>ba7)   {ba7=k;}
                 _0x166:
0009e9 940e 1864 	CALL SUBOPT_0x50
0009eb 940e 17cb 	CALL SUBOPT_0x35
0009ed 17ea      	CP   R30,R26
0009ee 07fb      	CPC  R31,R27
0009ef f42c      	BRGE _0x167
0009f0 2fe0      	MOV  R30,R16
0009f1 e1a5      	LDI  R26,LOW(_ba7)
0009f2 e0b0      	LDI  R27,HIGH(_ba7)
0009f3 940e 1a5e 	CALL __EEPROMWRB
                 ; 0000 050A 
                 ; 0000 050B         bt7=((bb7+ba7)/2);
                 _0x167:
0009f5 940e 1869 	CALL SUBOPT_0x51
0009f7 2e0e      	MOV  R0,R30
0009f8 2411      	CLR  R1
0009f9 940e 1864 	CALL SUBOPT_0x50
0009fb 940e 17d3 	CALL SUBOPT_0x37
0009fd e0ad      	LDI  R26,LOW(_bt7)
0009fe e0b0      	LDI  R27,HIGH(_bt7)
0009ff 940e 17dc 	CALL SUBOPT_0x38
                 ; 0000 050C 
                 ; 0000 050D         lcd_clear();
                 ; 0000 050E         lcd_gotoxy(1,0);
                 ; 0000 050F         lcd_putsf(" bb7  ba7  bt7");
                +
000a01 eee6     +LDI R30 , LOW ( 2 * _0x0 + ( 630 ) )
000a02 e0f2     +LDI R31 , HIGH ( 2 * _0x0 + ( 630 ) )
                 	__POINTW1FN _0x0,630
000a03 940e 1688 	CALL SUBOPT_0x5
                 ; 0000 0510         lcd_gotoxy(1,1);
000a05 e0e1      	LDI  R30,LOW(1)
000a06 940e 16d5 	CALL SUBOPT_0x15
                 ; 0000 0511         sprintf(lcd," %d  %d  %d",bb7,ba7,bt7);
000a08 940e 16e7 	CALL SUBOPT_0x19
000a0a 940e 17e2 	CALL SUBOPT_0x39
000a0c 940e 1869 	CALL SUBOPT_0x51
000a0e 940e 16f0 	CALL SUBOPT_0x1B
000a10 940e 1864 	CALL SUBOPT_0x50
000a12 940e 16f0 	CALL SUBOPT_0x1B
000a14 940e 173a 	CALL SUBOPT_0x2B
000a16 940e 16f0 	CALL SUBOPT_0x1B
000a18 940e 17e7 	CALL SUBOPT_0x3A
                 ; 0000 0512         lcd_puts(lcd);
000a1a 940e 1816 	CALL SUBOPT_0x42
                 ; 0000 0513         delay_ms(10);
                 ; 0000 0514 
                 ; 0000 0515         if(!sw_ok)
000a1c 9985      	SBIC 0x10,5
000a1d c003      	RJMP _0x168
                 ; 0000 0516         {
                 ; 0000 0517             delay_ms(150);
000a1e 940e 169a 	CALL SUBOPT_0x9
                 ; 0000 0518             goto selesai;
000a20 c001      	RJMP _0x169
                 ; 0000 0519         }
                 ; 0000 051A     }
                 _0x168:
000a21 cfbb      	RJMP _0x164
                 ; 0000 051B     selesai:
                 _0x169:
                 ; 0000 051C     lcd_clear();
000a22 c157      	RJMP _0x2080008
                 ; 0000 051D }
                 ;
                 ;void auto_scan(void)
                 ; 0000 0520 {
                 _auto_scan:
                 ; 0000 0521         int k;
                 ; 0000 0522 
                 ; 0000 0523         ba7=7;
000a23 940e 1776 	CALL SUBOPT_0x32
                 ;	k -> R16,R17
                 ; 0000 0524         ba6=7;
                 ; 0000 0525         ba5=7;
                 ; 0000 0526         ba4=7;
                 ; 0000 0527         ba3=7;
                 ; 0000 0528         ba2=7;
                 ; 0000 0529         ba1=7;
                 ; 0000 052A         ba0=7;
                 ; 0000 052B         bb7=200;
                 ; 0000 052C         bb6=200;
                 ; 0000 052D         bb5=200;
                 ; 0000 052E         bb4=200;
                 ; 0000 052F         bb3=200;
                 ; 0000 0530         bb2=200;
                 ; 0000 0531         bb1=200;
                 ; 0000 0532         bb0=200;
                 ; 0000 0533 
                 ; 0000 0534         for(;;)
                 _0x16B:
                 ; 0000 0535         {
                 ; 0000 0536                 k = 0;
                +
000a25 e000     +LDI R16 , LOW ( 0 )
000a26 e010     +LDI R17 , HIGH ( 0 )
                 	__GETWRN 16,17,0
                 ; 0000 0537 
                 ; 0000 0538                 k = read_adc(0);
000a27 940e 16fe 	CALL SUBOPT_0x1E
000a29 940e 17bb 	CALL SUBOPT_0x33
                 ; 0000 0539                 if  (k<bb0)   {bb0=k;}
000a2b f42c      	BRGE _0x16D
000a2c 2fe0      	MOV  R30,R16
000a2d e2a4      	LDI  R26,LOW(_bb0)
000a2e e0b0      	LDI  R27,HIGH(_bb0)
000a2f 940e 1a5e 	CALL __EEPROMWRB
                 ; 0000 053A                 if  (k>ba0)   {ba0=k;}
                 _0x16D:
000a31 940e 17c6 	CALL SUBOPT_0x34
000a33 940e 17cb 	CALL SUBOPT_0x35
000a35 17ea      	CP   R30,R26
000a36 07fb      	CPC  R31,R27
000a37 f42c      	BRGE _0x16E
000a38 2fe0      	MOV  R30,R16
000a39 e1ac      	LDI  R26,LOW(_ba0)
000a3a e0b0      	LDI  R27,HIGH(_ba0)
000a3b 940e 1a5e 	CALL __EEPROMWRB
                 ; 0000 053B 
                 ; 0000 053C                 bt0=((bb0+ba0)/2);
                 _0x16E:
000a3d 940e 17ce 	CALL SUBOPT_0x36
000a3f 2e0e      	MOV  R0,R30
000a40 2411      	CLR  R1
000a41 940e 17c6 	CALL SUBOPT_0x34
000a43 940e 17d3 	CALL SUBOPT_0x37
000a45 e1a4      	LDI  R26,LOW(_bt0)
000a46 e0b0      	LDI  R27,HIGH(_bt0)
000a47 940e 1a5e 	CALL __EEPROMWRB
                 ; 0000 053D 
                 ; 0000 053E                 k = read_adc(1);
000a49 940e 16fa 	CALL SUBOPT_0x1D
000a4b 940e 17f4 	CALL SUBOPT_0x3C
                 ; 0000 053F                 if  (k<bb1)   {bb1=k;}
000a4d 17ae      	CP   R26,R30
000a4e 07bf      	CPC  R27,R31
000a4f f42c      	BRGE _0x16F
000a50 2fe0      	MOV  R30,R16
000a51 e2a3      	LDI  R26,LOW(_bb1)
000a52 e0b0      	LDI  R27,HIGH(_bb1)
000a53 940e 1a5e 	CALL __EEPROMWRB
                 ; 0000 0540                 if  (k>ba1)   {ba1=k;}
                 _0x16F:
000a55 940e 17fb 	CALL SUBOPT_0x3D
000a57 940e 17cb 	CALL SUBOPT_0x35
000a59 17ea      	CP   R30,R26
000a5a 07fb      	CPC  R31,R27
000a5b f42c      	BRGE _0x170
000a5c 2fe0      	MOV  R30,R16
000a5d e1ab      	LDI  R26,LOW(_ba1)
000a5e e0b0      	LDI  R27,HIGH(_ba1)
000a5f 940e 1a5e 	CALL __EEPROMWRB
                 ; 0000 0541 
                 ; 0000 0542                 bt1=((bb1+ba1)/2);
                 _0x170:
000a61 940e 1800 	CALL SUBOPT_0x3E
000a63 2e0e      	MOV  R0,R30
000a64 2411      	CLR  R1
000a65 940e 17fb 	CALL SUBOPT_0x3D
000a67 940e 17d3 	CALL SUBOPT_0x37
000a69 e1a3      	LDI  R26,LOW(_bt1)
000a6a e0b0      	LDI  R27,HIGH(_bt1)
000a6b 940e 1a5e 	CALL __EEPROMWRB
                 ; 0000 0543 
                 ; 0000 0544                 k = read_adc(2);
000a6d 940e 16f6 	CALL SUBOPT_0x1C
000a6f 940e 1805 	CALL SUBOPT_0x3F
                 ; 0000 0545                 if  (k<bb2)   {bb2=k;}
000a71 17ae      	CP   R26,R30
000a72 07bf      	CPC  R27,R31
000a73 f42c      	BRGE _0x171
000a74 2fe0      	MOV  R30,R16
000a75 e2a2      	LDI  R26,LOW(_bb2)
000a76 e0b0      	LDI  R27,HIGH(_bb2)
000a77 940e 1a5e 	CALL __EEPROMWRB
                 ; 0000 0546                 if  (k>ba2)   {ba2=k;}
                 _0x171:
000a79 940e 180c 	CALL SUBOPT_0x40
000a7b 940e 17cb 	CALL SUBOPT_0x35
000a7d 17ea      	CP   R30,R26
000a7e 07fb      	CPC  R31,R27
000a7f f42c      	BRGE _0x172
000a80 2fe0      	MOV  R30,R16
000a81 e1aa      	LDI  R26,LOW(_ba2)
000a82 e0b0      	LDI  R27,HIGH(_ba2)
000a83 940e 1a5e 	CALL __EEPROMWRB
                 ; 0000 0547 
                 ; 0000 0548                 bt2=((bb2+ba2)/2);
                 _0x172:
000a85 940e 1811 	CALL SUBOPT_0x41
000a87 2e0e      	MOV  R0,R30
000a88 2411      	CLR  R1
000a89 940e 180c 	CALL SUBOPT_0x40
000a8b 940e 17d3 	CALL SUBOPT_0x37
000a8d e1a2      	LDI  R26,LOW(_bt2)
000a8e e0b0      	LDI  R27,HIGH(_bt2)
000a8f 940e 1a5e 	CALL __EEPROMWRB
                 ; 0000 0549 
                 ; 0000 054A                 k = read_adc(3);
000a91 940e 16ec 	CALL SUBOPT_0x1A
000a93 940e 1819 	CALL SUBOPT_0x43
                 ; 0000 054B                 if  (k<bb3)   {bb3=k;}
000a95 17ae      	CP   R26,R30
000a96 07bf      	CPC  R27,R31
000a97 f42c      	BRGE _0x173
000a98 2fe0      	MOV  R30,R16
000a99 e2a1      	LDI  R26,LOW(_bb3)
000a9a e0b0      	LDI  R27,HIGH(_bb3)
000a9b 940e 1a5e 	CALL __EEPROMWRB
                 ; 0000 054C                 if  (k>ba3)   {ba3=k;}
                 _0x173:
000a9d 940e 1820 	CALL SUBOPT_0x44
000a9f 940e 17cb 	CALL SUBOPT_0x35
000aa1 17ea      	CP   R30,R26
000aa2 07fb      	CPC  R31,R27
000aa3 f42c      	BRGE _0x174
000aa4 2fe0      	MOV  R30,R16
000aa5 e1a9      	LDI  R26,LOW(_ba3)
000aa6 e0b0      	LDI  R27,HIGH(_ba3)
000aa7 940e 1a5e 	CALL __EEPROMWRB
                 ; 0000 054D 
                 ; 0000 054E                 bt3=((bb3+ba3)/2);
                 _0x174:
000aa9 940e 1825 	CALL SUBOPT_0x45
000aab 2e0e      	MOV  R0,R30
000aac 2411      	CLR  R1
000aad 940e 1820 	CALL SUBOPT_0x44
000aaf 940e 17d3 	CALL SUBOPT_0x37
000ab1 e1a1      	LDI  R26,LOW(_bt3)
000ab2 e0b0      	LDI  R27,HIGH(_bt3)
000ab3 940e 1a5e 	CALL __EEPROMWRB
                 ; 0000 054F 
                 ; 0000 0550                 k = read_adc(4);
000ab5 940e 1713 	CALL SUBOPT_0x23
000ab7 940e 182a 	CALL SUBOPT_0x46
                 ; 0000 0551                 if  (k<bb4)   {bb4=k;}
000ab9 17ae      	CP   R26,R30
000aba 07bf      	CPC  R27,R31
000abb f42c      	BRGE _0x175
000abc 2fe0      	MOV  R30,R16
000abd e2a0      	LDI  R26,LOW(_bb4)
000abe e0b0      	LDI  R27,HIGH(_bb4)
000abf 940e 1a5e 	CALL __EEPROMWRB
                 ; 0000 0552                 if  (k>ba4)   {ba4=k;}
                 _0x175:
000ac1 940e 1831 	CALL SUBOPT_0x47
000ac3 940e 17cb 	CALL SUBOPT_0x35
000ac5 17ea      	CP   R30,R26
000ac6 07fb      	CPC  R31,R27
000ac7 f42c      	BRGE _0x176
000ac8 2fe0      	MOV  R30,R16
000ac9 e1a8      	LDI  R26,LOW(_ba4)
000aca e0b0      	LDI  R27,HIGH(_ba4)
000acb 940e 1a5e 	CALL __EEPROMWRB
                 ; 0000 0553 
                 ; 0000 0554                 bt4=((bb4+ba4)/2);
                 _0x176:
000acd 940e 1836 	CALL SUBOPT_0x48
000acf 2e0e      	MOV  R0,R30
000ad0 2411      	CLR  R1
000ad1 940e 1831 	CALL SUBOPT_0x47
000ad3 940e 17d3 	CALL SUBOPT_0x37
000ad5 e1a0      	LDI  R26,LOW(_bt4)
000ad6 e0b0      	LDI  R27,HIGH(_bt4)
000ad7 940e 1a5e 	CALL __EEPROMWRB
                 ; 0000 0555 
                 ; 0000 0556                 k = read_adc(5);
000ad9 940e 170f 	CALL SUBOPT_0x22
000adb 940e 183b 	CALL SUBOPT_0x49
                 ; 0000 0557                 if  (k<bb5)   {bb5=k;}
000add 17ae      	CP   R26,R30
000ade 07bf      	CPC  R27,R31
000adf f42c      	BRGE _0x177
000ae0 2fe0      	MOV  R30,R16
000ae1 e1af      	LDI  R26,LOW(_bb5)
000ae2 e0b0      	LDI  R27,HIGH(_bb5)
000ae3 940e 1a5e 	CALL __EEPROMWRB
                 ; 0000 0558                 if  (k>ba5)   {ba5=k;}
                 _0x177:
000ae5 940e 1842 	CALL SUBOPT_0x4A
000ae7 940e 17cb 	CALL SUBOPT_0x35
000ae9 17ea      	CP   R30,R26
000aea 07fb      	CPC  R31,R27
000aeb f42c      	BRGE _0x178
000aec 2fe0      	MOV  R30,R16
000aed e1a7      	LDI  R26,LOW(_ba5)
000aee e0b0      	LDI  R27,HIGH(_ba5)
000aef 940e 1a5e 	CALL __EEPROMWRB
                 ; 0000 0559 
                 ; 0000 055A                 bt5=((bb5+ba5)/2);
                 _0x178:
000af1 940e 1847 	CALL SUBOPT_0x4B
000af3 2e0e      	MOV  R0,R30
000af4 2411      	CLR  R1
000af5 940e 1842 	CALL SUBOPT_0x4A
000af7 940e 17d3 	CALL SUBOPT_0x37
000af9 e0af      	LDI  R26,LOW(_bt5)
000afa e0b0      	LDI  R27,HIGH(_bt5)
000afb 940e 1a5e 	CALL __EEPROMWRB
                 ; 0000 055B 
                 ; 0000 055C                 k = read_adc(6);
000afd 940e 170b 	CALL SUBOPT_0x21
000aff 940e 184c 	CALL SUBOPT_0x4C
                 ; 0000 055D                 if  (k<bb6)   {bb6=k;}
000b01 17ae      	CP   R26,R30
000b02 07bf      	CPC  R27,R31
000b03 f42c      	BRGE _0x179
000b04 2fe0      	MOV  R30,R16
000b05 e1ae      	LDI  R26,LOW(_bb6)
000b06 e0b0      	LDI  R27,HIGH(_bb6)
000b07 940e 1a5e 	CALL __EEPROMWRB
                 ; 0000 055E                 if  (k>ba6)   {ba6=k;}
                 _0x179:
000b09 940e 1853 	CALL SUBOPT_0x4D
000b0b 940e 17cb 	CALL SUBOPT_0x35
000b0d 17ea      	CP   R30,R26
000b0e 07fb      	CPC  R31,R27
000b0f f42c      	BRGE _0x17A
000b10 2fe0      	MOV  R30,R16
000b11 e1a6      	LDI  R26,LOW(_ba6)
000b12 e0b0      	LDI  R27,HIGH(_ba6)
000b13 940e 1a5e 	CALL __EEPROMWRB
                 ; 0000 055F 
                 ; 0000 0560                 bt6=((bb6+ba6)/2);
                 _0x17A:
000b15 940e 1858 	CALL SUBOPT_0x4E
000b17 2e0e      	MOV  R0,R30
000b18 2411      	CLR  R1
000b19 940e 1853 	CALL SUBOPT_0x4D
000b1b 940e 17d3 	CALL SUBOPT_0x37
000b1d e0ae      	LDI  R26,LOW(_bt6)
000b1e e0b0      	LDI  R27,HIGH(_bt6)
000b1f 940e 1a5e 	CALL __EEPROMWRB
                 ; 0000 0561 
                 ; 0000 0562                 k = read_adc(7);
000b21 940e 1707 	CALL SUBOPT_0x20
000b23 940e 185d 	CALL SUBOPT_0x4F
                 ; 0000 0563                 if  (k<bb7)   {bb7=k;}
000b25 17ae      	CP   R26,R30
000b26 07bf      	CPC  R27,R31
000b27 f42c      	BRGE _0x17B
000b28 2fe0      	MOV  R30,R16
000b29 e1ad      	LDI  R26,LOW(_bb7)
000b2a e0b0      	LDI  R27,HIGH(_bb7)
000b2b 940e 1a5e 	CALL __EEPROMWRB
                 ; 0000 0564                 if  (k>ba7)   {ba7=k;}
                 _0x17B:
000b2d 940e 1864 	CALL SUBOPT_0x50
000b2f 940e 17cb 	CALL SUBOPT_0x35
000b31 17ea      	CP   R30,R26
000b32 07fb      	CPC  R31,R27
000b33 f42c      	BRGE _0x17C
000b34 2fe0      	MOV  R30,R16
000b35 e1a5      	LDI  R26,LOW(_ba7)
000b36 e0b0      	LDI  R27,HIGH(_ba7)
000b37 940e 1a5e 	CALL __EEPROMWRB
                 ; 0000 0565 
                 ; 0000 0566                 bt7=((bb7+ba7)/2);
                 _0x17C:
000b39 940e 1869 	CALL SUBOPT_0x51
000b3b 2e0e      	MOV  R0,R30
000b3c 2411      	CLR  R1
000b3d 940e 1864 	CALL SUBOPT_0x50
000b3f 940e 17d3 	CALL SUBOPT_0x37
000b41 e0ad      	LDI  R26,LOW(_bt7)
000b42 e0b0      	LDI  R27,HIGH(_bt7)
000b43 940e 17dc 	CALL SUBOPT_0x38
                 ; 0000 0567 
                 ; 0000 0568                 lcd_clear();
                 ; 0000 0569                 lcd_gotoxy(1,0);
                 ; 0000 056A                 sprintf(lcd,"%d %d %d %d %d %d %d %d",bt7,bt6,bt5,bt4,bt3,bt2,bt1,bt0);
000b45 940e 16e7 	CALL SUBOPT_0x19
                +
000b47 efe5     +LDI R30 , LOW ( 2 * _0x0 + ( 645 ) )
000b48 e0f2     +LDI R31 , HIGH ( 2 * _0x0 + ( 645 ) )
                 	__POINTW1FN _0x0,645
000b49 93fa      	ST   -Y,R31
000b4a 93ea      	ST   -Y,R30
000b4b 940e 173a 	CALL SUBOPT_0x2B
000b4d 940e 16f0 	CALL SUBOPT_0x1B
000b4f 940e 1735 	CALL SUBOPT_0x2A
000b51 940e 16f0 	CALL SUBOPT_0x1B
000b53 940e 1730 	CALL SUBOPT_0x29
000b55 940e 16f0 	CALL SUBOPT_0x1B
000b57 940e 172b 	CALL SUBOPT_0x28
000b59 940e 16f0 	CALL SUBOPT_0x1B
000b5b 940e 1726 	CALL SUBOPT_0x27
000b5d 940e 16f0 	CALL SUBOPT_0x1B
000b5f 940e 1721 	CALL SUBOPT_0x26
000b61 940e 16f0 	CALL SUBOPT_0x1B
000b63 940e 171c 	CALL SUBOPT_0x25
000b65 940e 16f0 	CALL SUBOPT_0x1B
000b67 940e 1717 	CALL SUBOPT_0x24
000b69 940e 16f0 	CALL SUBOPT_0x1B
000b6b e280      	LDI  R24,32
000b6c 940e 1557 	CALL _sprintf
000b6e 96a4      	ADIW R28,36
                 ; 0000 056B                 lcd_puts(lcd);
000b6f 940e 16e7 	CALL SUBOPT_0x19
000b71 940e 1602 	CALL _lcd_puts
                 ; 0000 056C                 delay_ms(120);
000b73 e7e8      	LDI  R30,LOW(120)
000b74 e0f0      	LDI  R31,HIGH(120)
000b75 940e 186e 	CALL SUBOPT_0x52
                 ; 0000 056D 
                 ; 0000 056E                 if (!sw_ok)
000b77 9b85      	SBIS 0x10,5
                 ; 0000 056F                 {
                 ; 0000 0570                         goto selesai_auto_scan;
000b78 c001      	RJMP _0x17E
                 ; 0000 0571                 }
                 ; 0000 0572         }
000b79 ceab      	RJMP _0x16B
                 ; 0000 0573 
                 ; 0000 0574     selesai_auto_scan:
                 _0x17E:
                 ; 0000 0575     lcd_clear();
                 _0x2080008:
000b7a 940e 15d5 	CALL _lcd_clear
                 ; 0000 0576 }
                 _0x2080009:
000b7c 9109      	LD   R16,Y+
000b7d 9119      	LD   R17,Y+
000b7e 9508      	RET
                 ;
                 ;void scanBlackLine(void)
                 ; 0000 0579 {
                 _scanBlackLine:
                 ; 0000 057A         switch(sensor)
000b7f 2de6      	MOV  R30,R6
000b80 e0f0      	LDI  R31,0
                 ; 0000 057B         {
                 ; 0000 057C                 case 0b11111110:        // ujung kiri
000b81 3fee      	CPI  R30,LOW(0xFE)
000b82 e0a0      	LDI  R26,HIGH(0xFE)
000b83 07fa      	CPC  R31,R26
000b84 f429      	BRNE _0x182
                 ; 0000 057D                 PV = -10;
000b85 efe6      	LDI  R30,LOW(65526)
000b86 efff      	LDI  R31,HIGH(65526)
000b87 940e 1872 	CALL SUBOPT_0x53
                 ; 0000 057E                 maju();
000b89 c0c1      	RJMP _0x3B0
                 ; 0000 057F                 break;
                 ; 0000 0580 
                 ; 0000 0581                 case 0b11111000:
                 _0x182:
000b8a 3fe8      	CPI  R30,LOW(0xF8)
000b8b e0a0      	LDI  R26,HIGH(0xF8)
000b8c 07fa      	CPC  R31,R26
000b8d f021      	BREQ _0x184
                 ; 0000 0582                 case 0b11111100:
000b8e 3fec      	CPI  R30,LOW(0xFC)
000b8f e0a0      	LDI  R26,HIGH(0xFC)
000b90 07fa      	CPC  R31,R26
000b91 f429      	BRNE _0x185
                 _0x184:
                 ; 0000 0583                 PV = -6;
000b92 efea      	LDI  R30,LOW(65530)
000b93 efff      	LDI  R31,HIGH(65530)
000b94 940e 1872 	CALL SUBOPT_0x53
                 ; 0000 0584                 maju();
000b96 c0b4      	RJMP _0x3B0
                 ; 0000 0585                 break;
                 ; 0000 0586 
                 ; 0000 0587                 case 0b11111101:
                 _0x185:
000b97 3fed      	CPI  R30,LOW(0xFD)
000b98 e0a0      	LDI  R26,HIGH(0xFD)
000b99 07fa      	CPC  R31,R26
000b9a f429      	BRNE _0x186
                 ; 0000 0588                 PV = -5;
000b9b efeb      	LDI  R30,LOW(65531)
000b9c efff      	LDI  R31,HIGH(65531)
000b9d 940e 1872 	CALL SUBOPT_0x53
                 ; 0000 0589                 maju();
000b9f c0ab      	RJMP _0x3B0
                 ; 0000 058A                 break;
                 ; 0000 058B 
                 ; 0000 058C                 case 0b11110001:
                 _0x186:
000ba0 3fe1      	CPI  R30,LOW(0xF1)
000ba1 e0a0      	LDI  R26,HIGH(0xF1)
000ba2 07fa      	CPC  R31,R26
000ba3 f021      	BREQ _0x188
                 ; 0000 058D                 case 0b11111001:
000ba4 3fe9      	CPI  R30,LOW(0xF9)
000ba5 e0a0      	LDI  R26,HIGH(0xF9)
000ba6 07fa      	CPC  R31,R26
000ba7 f429      	BRNE _0x189
                 _0x188:
                 ; 0000 058E                 PV = -4;
000ba8 efec      	LDI  R30,LOW(65532)
000ba9 efff      	LDI  R31,HIGH(65532)
000baa 940e 1872 	CALL SUBOPT_0x53
                 ; 0000 058F                 maju();
000bac c09e      	RJMP _0x3B0
                 ; 0000 0590                 break;
                 ; 0000 0591 
                 ; 0000 0592                 case 0b11111011:
                 _0x189:
000bad 3feb      	CPI  R30,LOW(0xFB)
000bae e0a0      	LDI  R26,HIGH(0xFB)
000baf 07fa      	CPC  R31,R26
000bb0 f429      	BRNE _0x18A
                 ; 0000 0593                 PV = -3;
000bb1 efed      	LDI  R30,LOW(65533)
000bb2 efff      	LDI  R31,HIGH(65533)
000bb3 940e 1872 	CALL SUBOPT_0x53
                 ; 0000 0594                 maju();
000bb5 c095      	RJMP _0x3B0
                 ; 0000 0595                 break;
                 ; 0000 0596 
                 ; 0000 0597                 case 0b11100011:
                 _0x18A:
000bb6 3ee3      	CPI  R30,LOW(0xE3)
000bb7 e0a0      	LDI  R26,HIGH(0xE3)
000bb8 07fa      	CPC  R31,R26
000bb9 f021      	BREQ _0x18C
                 ; 0000 0598                 case 0b11110011:
000bba 3fe3      	CPI  R30,LOW(0xF3)
000bbb e0a0      	LDI  R26,HIGH(0xF3)
000bbc 07fa      	CPC  R31,R26
000bbd f429      	BRNE _0x18D
                 _0x18C:
                 ; 0000 0599                 PV = -2;
000bbe efee      	LDI  R30,LOW(65534)
000bbf efff      	LDI  R31,HIGH(65534)
000bc0 940e 1872 	CALL SUBOPT_0x53
                 ; 0000 059A                 maju();
000bc2 c088      	RJMP _0x3B0
                 ; 0000 059B                 break;
                 ; 0000 059C 
                 ; 0000 059D                 case 0b11110111:
                 _0x18D:
000bc3 3fe7      	CPI  R30,LOW(0xF7)
000bc4 e0a0      	LDI  R26,HIGH(0xF7)
000bc5 07fa      	CPC  R31,R26
000bc6 f429      	BRNE _0x18E
                 ; 0000 059E                 PV = -1;
000bc7 efef      	LDI  R30,LOW(65535)
000bc8 efff      	LDI  R31,HIGH(65535)
000bc9 940e 1872 	CALL SUBOPT_0x53
                 ; 0000 059F                 maju();
000bcb c07f      	RJMP _0x3B0
                 ; 0000 05A0                 break;
                 ; 0000 05A1 
                 ; 0000 05A2                 //////////////
                 ; 0000 05A3                 case 0b11100111:        // tengah
                 _0x18E:
000bcc 3ee7      	CPI  R30,LOW(0xE7)
000bcd e0a0      	LDI  R26,HIGH(0xE7)
000bce 07fa      	CPC  R31,R26
000bcf f431      	BRNE _0x18F
                 ; 0000 05A4                 PV = 0;
000bd0 e0e0      	LDI  R30,LOW(0)
000bd1 93e0 0298 	STS  _PV,R30
000bd3 93e0 0299 	STS  _PV+1,R30
                 ; 0000 05A5                 maju();
000bd5 c075      	RJMP _0x3B0
                 ; 0000 05A6                 break;
                 ; 0000 05A7                 //////////////
                 ; 0000 05A8 
                 ; 0000 05A9                 case 0b11101111:
                 _0x18F:
000bd6 3eef      	CPI  R30,LOW(0xEF)
000bd7 e0a0      	LDI  R26,HIGH(0xEF)
000bd8 07fa      	CPC  R31,R26
000bd9 f429      	BRNE _0x190
                 ; 0000 05AA                 PV = 1;
000bda e0e1      	LDI  R30,LOW(1)
000bdb e0f0      	LDI  R31,HIGH(1)
000bdc 940e 1872 	CALL SUBOPT_0x53
                 ; 0000 05AB                 maju();
000bde c06c      	RJMP _0x3B0
                 ; 0000 05AC                 break;
                 ; 0000 05AD 
                 ; 0000 05AE                 case 0b11000111:
                 _0x190:
000bdf 3ce7      	CPI  R30,LOW(0xC7)
000be0 e0a0      	LDI  R26,HIGH(0xC7)
000be1 07fa      	CPC  R31,R26
000be2 f021      	BREQ _0x192
                 ; 0000 05AF                 case 0b11001111:
000be3 3cef      	CPI  R30,LOW(0xCF)
000be4 e0a0      	LDI  R26,HIGH(0xCF)
000be5 07fa      	CPC  R31,R26
000be6 f429      	BRNE _0x193
                 _0x192:
                 ; 0000 05B0                 PV = 2;
000be7 e0e2      	LDI  R30,LOW(2)
000be8 e0f0      	LDI  R31,HIGH(2)
000be9 940e 1872 	CALL SUBOPT_0x53
                 ; 0000 05B1                 maju();
000beb c05f      	RJMP _0x3B0
                 ; 0000 05B2                 break;
                 ; 0000 05B3 
                 ; 0000 05B4                 case 0b11011111:
                 _0x193:
000bec 3def      	CPI  R30,LOW(0xDF)
000bed e0a0      	LDI  R26,HIGH(0xDF)
000bee 07fa      	CPC  R31,R26
000bef f429      	BRNE _0x194
                 ; 0000 05B5                 PV = 3;
000bf0 e0e3      	LDI  R30,LOW(3)
000bf1 e0f0      	LDI  R31,HIGH(3)
000bf2 940e 1872 	CALL SUBOPT_0x53
                 ; 0000 05B6                 maju();
000bf4 c056      	RJMP _0x3B0
                 ; 0000 05B7                 break;
                 ; 0000 05B8 
                 ; 0000 05B9                 case 0b10001111:
                 _0x194:
000bf5 38ef      	CPI  R30,LOW(0x8F)
000bf6 e0a0      	LDI  R26,HIGH(0x8F)
000bf7 07fa      	CPC  R31,R26
000bf8 f021      	BREQ _0x196
                 ; 0000 05BA                 case 0b10011111:
000bf9 39ef      	CPI  R30,LOW(0x9F)
000bfa e0a0      	LDI  R26,HIGH(0x9F)
000bfb 07fa      	CPC  R31,R26
000bfc f429      	BRNE _0x197
                 _0x196:
                 ; 0000 05BB                 PV = 4;
000bfd e0e4      	LDI  R30,LOW(4)
000bfe e0f0      	LDI  R31,HIGH(4)
000bff 940e 1872 	CALL SUBOPT_0x53
                 ; 0000 05BC                 maju();
000c01 c049      	RJMP _0x3B0
                 ; 0000 05BD                 break;
                 ; 0000 05BE 
                 ; 0000 05BF                 case 0b10111111:
                 _0x197:
000c02 3bef      	CPI  R30,LOW(0xBF)
000c03 e0a0      	LDI  R26,HIGH(0xBF)
000c04 07fa      	CPC  R31,R26
000c05 f429      	BRNE _0x198
                 ; 0000 05C0                 PV = 5;
000c06 e0e5      	LDI  R30,LOW(5)
000c07 e0f0      	LDI  R31,HIGH(5)
000c08 940e 1872 	CALL SUBOPT_0x53
                 ; 0000 05C1                 maju();
000c0a c040      	RJMP _0x3B0
                 ; 0000 05C2                 break;
                 ; 0000 05C3 
                 ; 0000 05C4                 case 0b00011111:
                 _0x198:
000c0b 31ef      	CPI  R30,LOW(0x1F)
000c0c e0a0      	LDI  R26,HIGH(0x1F)
000c0d 07fa      	CPC  R31,R26
000c0e f021      	BREQ _0x19A
                 ; 0000 05C5                 case 0b00111111:
000c0f 33ef      	CPI  R30,LOW(0x3F)
000c10 e0a0      	LDI  R26,HIGH(0x3F)
000c11 07fa      	CPC  R31,R26
000c12 f429      	BRNE _0x19B
                 _0x19A:
                 ; 0000 05C6                 PV = 6;
000c13 e0e6      	LDI  R30,LOW(6)
000c14 e0f0      	LDI  R31,HIGH(6)
000c15 940e 1872 	CALL SUBOPT_0x53
                 ; 0000 05C7                 maju();
000c17 c033      	RJMP _0x3B0
                 ; 0000 05C8                 break;
                 ; 0000 05C9 
                 ; 0000 05CA                 case 0b01111111:        // ujung kanan
                 _0x19B:
000c18 37ef      	CPI  R30,LOW(0x7F)
000c19 e0a0      	LDI  R26,HIGH(0x7F)
000c1a 07fa      	CPC  R31,R26
000c1b f429      	BRNE _0x19C
                 ; 0000 05CB                 PV = 10;
000c1c e0ea      	LDI  R30,LOW(10)
000c1d e0f0      	LDI  R31,HIGH(10)
000c1e 940e 1872 	CALL SUBOPT_0x53
                 ; 0000 05CC                 maju();
000c20 c02a      	RJMP _0x3B0
                 ; 0000 05CD                 break;
                 ; 0000 05CE 
                 ; 0000 05CF                 case 0b11111111:        // loss
                 _0x19C:
000c21 3fef      	CPI  R30,LOW(0xFF)
000c22 e0a0      	LDI  R26,HIGH(0xFF)
000c23 07fa      	CPC  R31,R26
000c24 f4a1      	BRNE _0x19D
                 ; 0000 05D0                 if(PV<0)
000c25 91a0 0299 	LDS  R26,_PV+1
000c27 23aa      	TST  R26
000c28 f432      	BRPL _0x19E
                 ; 0000 05D1                 {
                 ; 0000 05D2                         lpwm = MINPWM;
000c29 940e 1877 	CALL SUBOPT_0x54
000c2b 940e 187c 	CALL SUBOPT_0x55
                 ; 0000 05D3                         rpwm = MINPWM;
                 ; 0000 05D4                         bkir();
000c2d db38      	RCALL _bkir
                 ; 0000 05D5                         goto exit;
000c2e c10f      	RJMP _0x19F
                 ; 0000 05D6                 }
                 ; 0000 05D7                 else if(PV>0)
                 _0x19E:
000c2f 940e 1886 	CALL SUBOPT_0x56
000c31 940e 1a6f 	CALL __CPW02
000c33 f424      	BRGE _0x1A1
                 ; 0000 05D8                 {
                 ; 0000 05D9                         lpwm = MINPWM;
000c34 940e 188b 	CALL SUBOPT_0x57
                 ; 0000 05DA                         rpwm = MINPWM;
                 ; 0000 05DB                         bkan();
000c36 db30      	RCALL _bkan
                 ; 0000 05DC                         goto exit;
000c37 c106      	RJMP _0x19F
                 ; 0000 05DD                 }
                 ; 0000 05DE                 break;
                 _0x1A1:
000c38 c013      	RJMP _0x181
                 ; 0000 05DF 
                 ; 0000 05E0                 case 0b11000000:
                 _0x19D:
000c39 3ce0      	CPI  R30,LOW(0xC0)
000c3a e0a0      	LDI  R26,HIGH(0xC0)
000c3b 07fa      	CPC  R31,R26
000c3c f021      	BREQ _0x1A3
                 ; 0000 05E1                 case 0b00000011:
000c3d 30e3      	CPI  R30,LOW(0x3)
000c3e e0a0      	LDI  R26,HIGH(0x3)
000c3f 07fa      	CPC  R31,R26
000c40 f409      	BRNE _0x1A4
                 _0x1A3:
                 ; 0000 05E2                 case 0b11100000:
000c41 c004      	RJMP _0x1A5
                 _0x1A4:
000c42 3ee0      	CPI  R30,LOW(0xE0)
000c43 e0a0      	LDI  R26,HIGH(0xE0)
000c44 07fa      	CPC  R31,R26
000c45 f409      	BRNE _0x1A6
                 _0x1A5:
                 ; 0000 05E3                 case 0b00000111:
000c46 c004      	RJMP _0x1A7
                 _0x1A6:
000c47 30e7      	CPI  R30,LOW(0x7)
000c48 e0a0      	LDI  R26,HIGH(0x7)
000c49 07fa      	CPC  R31,R26
000c4a f409      	BRNE _0x181
                 _0x1A7:
                 ; 0000 05E4                 maju();
                 _0x3B0:
000c4b db12      	RCALL _maju
                 ; 0000 05E5                 break;
                 ; 0000 05E6         }
                 _0x181:
                 ; 0000 05E7 
                 ; 0000 05E8         error = SP - PV;
000c4c 91e0 0283 	LDS  R30,_SP
000c4e e0f0      	LDI  R31,0
000c4f 940e 1886 	CALL SUBOPT_0x56
000c51 1bea      	SUB  R30,R26
000c52 0bfb      	SBC  R31,R27
000c53 93e0 029a 	STS  _error,R30
000c55 93f0 029b 	STS  _error+1,R31
                 ; 0000 05E9         P = (var_Kp * error) / 2;
000c57 940e 188d 	CALL SUBOPT_0x58
000c59 91a0 02a0 	LDS  R26,_var_Kp
000c5b 91b0 02a1 	LDS  R27,_var_Kp+1
000c5d 940e 1892 	CALL SUBOPT_0x59
000c5f 93e0 0292 	STS  _P,R30
000c61 93f0 0293 	STS  _P+1,R31
                 ; 0000 05EA 
                 ; 0000 05EB         rate = error - last_error;
000c63 91a0 029c 	LDS  R26,_last_error
000c65 91b0 029d 	LDS  R27,_last_error+1
000c67 940e 188d 	CALL SUBOPT_0x58
000c69 1bea      	SUB  R30,R26
000c6a 0bfb      	SBC  R31,R27
000c6b 93e0 029e 	STS  _rate,R30
000c6d 93f0 029f 	STS  _rate+1,R31
                 ; 0000 05EC         I    = (rate * var_Ki) / 2;
000c6f 91e0 02a2 	LDS  R30,_var_Ki
000c71 91f0 02a3 	LDS  R31,_var_Ki+1
000c73 91a0 029e 	LDS  R26,_rate
000c75 91b0 029f 	LDS  R27,_rate+1
000c77 940e 1892 	CALL SUBOPT_0x59
000c79 93e0 0294 	STS  _I,R30
000c7b 93f0 0295 	STS  _I+1,R31
                 ; 0000 05ED 
                 ; 0000 05EE         D = ((error / 11) * (MINPWM / 20) * var_Kd);
000c7d 91a0 029a 	LDS  R26,_error
000c7f 91b0 029b 	LDS  R27,_error+1
000c81 e0eb      	LDI  R30,LOW(11)
000c82 e0f0      	LDI  R31,HIGH(11)
000c83 940e 1a24 	CALL __DIVW21
000c85 01bf      	MOVW R22,R30
000c86 940e 189a 	CALL SUBOPT_0x5A
000c88 e1e4      	LDI  R30,LOW(20)
000c89 e0f0      	LDI  R31,HIGH(20)
000c8a 940e 1a24 	CALL __DIVW21
000c8c 01db      	MOVW R26,R22
000c8d 940e 1a0c 	CALL __MULW12
000c8f 91a0 02a4 	LDS  R26,_var_Kd
000c91 91b0 02a5 	LDS  R27,_var_Kd+1
000c93 940e 1a0c 	CALL __MULW12
000c95 93e0 0296 	STS  _D,R30
000c97 93f0 0297 	STS  _D+1,R31
                 ; 0000 05EF 
                 ; 0000 05F0         last_error = error;
000c99 940e 188d 	CALL SUBOPT_0x58
000c9b 93e0 029c 	STS  _last_error,R30
000c9d 93f0 029d 	STS  _last_error+1,R31
                 ; 0000 05F1 
                 ; 0000 05F2         MV = P + I + D;
000c9f 91e0 0294 	LDS  R30,_I
000ca1 91f0 0295 	LDS  R31,_I+1
000ca3 91a0 0292 	LDS  R26,_P
000ca5 91b0 0293 	LDS  R27,_P+1
000ca7 0fea      	ADD  R30,R26
000ca8 1ffb      	ADC  R31,R27
000ca9 91a0 0296 	LDS  R26,_D
000cab 91b0 0297 	LDS  R27,_D+1
000cad 0fea      	ADD  R30,R26
000cae 1ffb      	ADC  R31,R27
000caf 93e0 0290 	STS  _MV,R30
000cb1 93f0 0291 	STS  _MV+1,R31
                 ; 0000 05F3 
                 ; 0000 05F4         intervalPWM = (MAXPWM - MINPWM) / 8;
000cb3 940e 189a 	CALL SUBOPT_0x5A
000cb5 91e0 0288 	LDS  R30,_MAXPWM
000cb7 91f0 0289 	LDS  R31,_MAXPWM+1
000cb9 1bea      	SUB  R30,R26
000cba 0bfb      	SBC  R31,R27
000cbb 01df      	MOVW R26,R30
000cbc 940e 189f 	CALL SUBOPT_0x5B
                 ; 0000 05F5 
                 ; 0000 05F6         //rpwm = MINPWM + (intervalPWM * (0 + MV));
                 ; 0000 05F7         //lpwm = MINPWM + (intervalPWM * (0 - MV));
                 ; 0000 05F8 
                 ; 0000 05F9         rpwm = MINPWM + MV;
000cbe 91e0 0290 	LDS  R30,_MV
000cc0 91f0 0291 	LDS  R31,_MV+1
000cc2 940e 189a 	CALL SUBOPT_0x5A
000cc4 0fea      	ADD  R30,R26
000cc5 1ffb      	ADC  R31,R27
000cc6 940e 18a8 	CALL SUBOPT_0x5C
                 ; 0000 05FA         lpwm = MINPWM - MV;
000cc8 91a0 0290 	LDS  R26,_MV
000cca 91b0 0291 	LDS  R27,_MV+1
000ccc 940e 1877 	CALL SUBOPT_0x54
000cce 1bea      	SUB  R30,R26
000ccf 0bfb      	SBC  R31,R27
000cd0 940e 18ad 	CALL SUBOPT_0x5D
                 ; 0000 05FB 
                 ; 0000 05FC         if(lpwm>255)
000cd2 91a0 0284 	LDS  R26,_lpwm
000cd4 91b0 0285 	LDS  R27,_lpwm+1
000cd6 30a0      	CPI  R26,LOW(0x100)
000cd7 e0e1      	LDI  R30,HIGH(0x100)
000cd8 07be      	CPC  R27,R30
000cd9 f084      	BRLT _0x1A9
                 ; 0000 05FD         {
                 ; 0000 05FE                 rpwm = rpwm - (lpwm - 255);
000cda 940e 1669 	CALL SUBOPT_0x0
000cdc 5fef      	SUBI R30,LOW(255)
000cdd 40f0      	SBCI R31,HIGH(255)
000cde 91a0 0286 	LDS  R26,_rpwm
000ce0 91b0 0287 	LDS  R27,_rpwm+1
000ce2 1bae      	SUB  R26,R30
000ce3 0bbf      	SBC  R27,R31
000ce4 93a0 0286 	STS  _rpwm,R26
000ce6 93b0 0287 	STS  _rpwm+1,R27
                 ; 0000 05FF                 lpwm = 255;
000ce8 940e 1746 	CALL SUBOPT_0x2D
                 ; 0000 0600         }
                 ; 0000 0601 
                 ; 0000 0602         if(rpwm>255)
                 _0x1A9:
000cea 91a0 0286 	LDS  R26,_rpwm
000cec 91b0 0287 	LDS  R27,_rpwm+1
000cee 30a0      	CPI  R26,LOW(0x100)
000cef e0e1      	LDI  R30,HIGH(0x100)
000cf0 07be      	CPC  R27,R30
000cf1 f084      	BRLT _0x1AA
                 ; 0000 0603         {
                 ; 0000 0604                 lpwm = lpwm - (rpwm - 255);
000cf2 940e 1674 	CALL SUBOPT_0x2
000cf4 5fef      	SUBI R30,LOW(255)
000cf5 40f0      	SBCI R31,HIGH(255)
000cf6 91a0 0284 	LDS  R26,_lpwm
000cf8 91b0 0285 	LDS  R27,_lpwm+1
000cfa 1bae      	SUB  R26,R30
000cfb 0bbf      	SBC  R27,R31
000cfc 93a0 0284 	STS  _lpwm,R26
000cfe 93b0 0285 	STS  _lpwm+1,R27
                 ; 0000 0605                 rpwm = 255;
000d00 940e 173f 	CALL SUBOPT_0x2C
                 ; 0000 0606         }
                 ; 0000 0607 
                 ; 0000 0608         if(lpwm < 0)
                 _0x1AA:
000d02 91a0 0285 	LDS  R26,_lpwm+1
000d04 23aa      	TST  R26
000d05 f462      	BRPL _0x1AB
                 ; 0000 0609         {
                 ; 0000 060A                 stop(3);
000d06 e0e3      	LDI  R30,LOW(3)
000d07 93ea      	ST   -Y,R30
000d08 da61      	RCALL _stop
                 ; 0000 060B                 rotkir();
000d09 da7b      	RCALL _rotkir
                 ; 0000 060C                 lpwm = -1 * lpwm;
000d0a 940e 1669 	CALL SUBOPT_0x0
000d0c efaf      	LDI  R26,LOW(65535)
000d0d efbf      	LDI  R27,HIGH(65535)
000d0e 940e 1a0c 	CALL __MULW12
000d10 940e 18ad 	CALL SUBOPT_0x5D
                 ; 0000 060D         }
                 ; 0000 060E 
                 ; 0000 060F         if(rpwm < 0)
                 _0x1AB:
000d12 91a0 0287 	LDS  R26,_rpwm+1
000d14 23aa      	TST  R26
000d15 f462      	BRPL _0x1AC
                 ; 0000 0610         {
                 ; 0000 0611                 stop(3);
000d16 e0e3      	LDI  R30,LOW(3)
000d17 93ea      	ST   -Y,R30
000d18 da51      	RCALL _stop
                 ; 0000 0612                 rotkan();
000d19 da66      	RCALL _rotkan
                 ; 0000 0613                 rpwm = -1 * rpwm;
000d1a 940e 1674 	CALL SUBOPT_0x2
000d1c efaf      	LDI  R26,LOW(65535)
000d1d efbf      	LDI  R27,HIGH(65535)
000d1e 940e 1a0c 	CALL __MULW12
000d20 940e 18a8 	CALL SUBOPT_0x5C
                 ; 0000 0614         }
                 ; 0000 0615 
                 ; 0000 0616         if(lpwm==0)
                 _0x1AC:
000d22 940e 1669 	CALL SUBOPT_0x0
000d24 9730      	SBIW R30,0
000d25 f4c1      	BRNE _0x1AD
                 ; 0000 0617         {
                 ; 0000 0618                 if(PV<0)
000d26 91a0 0299 	LDS  R26,_PV+1
000d28 23aa      	TST  R26
000d29 f442      	BRPL _0x1AE
                 ; 0000 0619                 {
                 ; 0000 061A                         lpwm = MAXPWM/2;
000d2a 940e 18b2 	CALL SUBOPT_0x5E
000d2c 940e 18bb 	CALL SUBOPT_0x5F
                 ; 0000 061B                         rpwm = MAXPWM/2;
000d2e 940e 18a8 	CALL SUBOPT_0x5C
                 ; 0000 061C                         bkir();
000d30 da35      	RCALL _bkir
                 ; 0000 061D                         goto exit;
000d31 c00c      	RJMP _0x19F
                 ; 0000 061E                 }
                 ; 0000 061F                 else if(PV>0)
                 _0x1AE:
000d32 940e 1886 	CALL SUBOPT_0x56
000d34 940e 1a6f 	CALL __CPW02
000d36 f43c      	BRGE _0x1B0
                 ; 0000 0620                 {
                 ; 0000 0621                         lpwm = MAXPWM/2;
000d37 940e 18b2 	CALL SUBOPT_0x5E
000d39 940e 18bb 	CALL SUBOPT_0x5F
                 ; 0000 0622                         rpwm = MAXPWM/2;
000d3b 940e 18a8 	CALL SUBOPT_0x5C
                 ; 0000 0623                         bkan();
000d3d da29      	RCALL _bkan
                 ; 0000 0624                         goto exit;
                 ; 0000 0625                 }
                 ; 0000 0626         }
                 _0x1B0:
                 ; 0000 0627 
                 ; 0000 0628         if(rpwm==0)
                 _0x1AD:
                 ; 0000 0629         {
                 ; 0000 062A         }
                 ; 0000 062B 
                 ; 0000 062C         exit:
                 _0x19F:
                 ; 0000 062D 
                 ; 0000 062E         //debug pwm
                 ; 0000 062F         sprintf(lcd,"%d   %d",lpwm, rpwm);
000d3e 940e 16e7 	CALL SUBOPT_0x19
                +
000d40 e0ed     +LDI R30 , LOW ( 2 * _0x0 + ( 669 ) )
000d41 e0f3     +LDI R31 , HIGH ( 2 * _0x0 + ( 669 ) )
                 	__POINTW1FN _0x0,669
000d42 93fa      	ST   -Y,R31
000d43 93ea      	ST   -Y,R30
000d44 940e 1669 	CALL SUBOPT_0x0
000d46 940e 19ff 	CALL __CWD1
000d48 940e 1a4d 	CALL __PUTPARD1
000d4a 940e 1674 	CALL SUBOPT_0x2
000d4c 940e 19ff 	CALL __CWD1
000d4e 940e 1a4d 	CALL __PUTPARD1
000d50 e088      	LDI  R24,8
000d51 940e 1557 	CALL _sprintf
000d53 962c      	ADIW R28,12
                 ; 0000 0630         lcd_gotoxy(0, 0);
000d54 940e 1683 	CALL SUBOPT_0x4
                 ; 0000 0631         lcd_putsf("                ");
                +
000d56 e1e5     +LDI R30 , LOW ( 2 * _0x0 + ( 677 ) )
000d57 e0f3     +LDI R31 , HIGH ( 2 * _0x0 + ( 677 ) )
                 	__POINTW1FN _0x0,677
000d58 940e 1688 	CALL SUBOPT_0x5
                 ; 0000 0632         lcd_gotoxy(0, 0);
000d5a 940e 1683 	CALL SUBOPT_0x4
                 ; 0000 0633         lcd_puts(lcd);
000d5c 940e 16e7 	CALL SUBOPT_0x19
000d5e 940e 1602 	CALL _lcd_puts
                 ; 0000 0634         delay_ms(5);
000d60 e0e5      	LDI  R30,LOW(5)
000d61 e0f0      	LDI  R31,HIGH(5)
000d62 940e 186e 	CALL SUBOPT_0x52
                 ; 0000 0635 
                 ; 0000 0636         /*
                 ; 0000 0637         //debug MV
                 ; 0000 0638         sprintf(lcd_buffer,"MV:%d",MV);
                 ; 0000 0639         lcd_gotoxy(0,0);
                 ; 0000 063A         lcd_putsf("                ");
                 ; 0000 063B         lcd_gotoxy(0,0);
                 ; 0000 063C         lcd_puts(lcd_buffer);
                 ; 0000 063D         delay_ms(10);
                 ; 0000 063E         */
                 ; 0000 063F }
000d64 9508      	RET
                 ;
                 ;void scanSudut(void)
                 ; 0000 0642 {
                 _scanSudut:
                 ; 0000 0643         if((!sKa)&&(sensor==255))
000d65 fc30      	SBRC R3,0
000d66 c003      	RJMP _0x1B3
000d67 efef      	LDI  R30,LOW(255)
000d68 15e6      	CP   R30,R6
000d69 f009      	BREQ _0x1B4
                 _0x1B3:
000d6a c00c      	RJMP _0x1B2
                 _0x1B4:
                 ; 0000 0644         {
                 ; 0000 0645                 indikatorSudut();
000d6b 940e 18bd 	CALL SUBOPT_0x60
                 ; 0000 0646                 baca_sensor();
                 ; 0000 0647                 //while((sensor!=0b11100111)&&(sensor!=0b11101111)&&(sensor!=0b11110111))
                 ; 0000 0648                 while(sensor==255)
                 _0x1B5:
000d6d efef      	LDI  R30,LOW(255)
000d6e 15e6      	CP   R30,R6
000d6f f421      	BRNE _0x1B7
                 ; 0000 0649                 {
                 ; 0000 064A                         baca_sensor();
000d70 940e 18c1 	CALL SUBOPT_0x61
                 ; 0000 064B                         lpwm=MINPWM;
                 ; 0000 064C                         rpwm=MINPWM;
                 ; 0000 064D                         rotkan();
000d72 da0d      	RCALL _rotkan
                 ; 0000 064E                 }
000d73 cff9      	RJMP _0x1B5
                 _0x1B7:
                 ; 0000 064F                 stop(5);
000d74 940e 18c4 	CALL SUBOPT_0x62
                 ; 0000 0650                 goto exit_sudut;
000d76 c011      	RJMP _0x1B8
                 ; 0000 0651         }
                 ; 0000 0652 
                 ; 0000 0653         if((!sKi)&&(sensor==255))
                 _0x1B2:
000d77 fc31      	SBRC R3,1
000d78 c003      	RJMP _0x1BA
000d79 efef      	LDI  R30,LOW(255)
000d7a 15e6      	CP   R30,R6
000d7b f009      	BREQ _0x1BB
                 _0x1BA:
000d7c c00b      	RJMP _0x1B9
                 _0x1BB:
                 ; 0000 0654         {
                 ; 0000 0655                 indikatorSudut();
000d7d 940e 18bd 	CALL SUBOPT_0x60
                 ; 0000 0656                 baca_sensor();
                 ; 0000 0657                 //while((sensor!=0b11100111)&&(sensor!=0b11101111)&&(sensor!=0b11110111))
                 ; 0000 0658                 while(sensor==255)
                 _0x1BC:
000d7f efef      	LDI  R30,LOW(255)
000d80 15e6      	CP   R30,R6
000d81 f421      	BRNE _0x1BE
                 ; 0000 0659                 {
                 ; 0000 065A                         baca_sensor();
000d82 940e 18c1 	CALL SUBOPT_0x61
                 ; 0000 065B                         lpwm=MINPWM;
                 ; 0000 065C                         rpwm=MINPWM;
                 ; 0000 065D                         rotkir();
000d84 da00      	RCALL _rotkir
                 ; 0000 065E                 }
000d85 cff9      	RJMP _0x1BC
                 _0x1BE:
                 ; 0000 065F                 stop(5);
000d86 940e 18c4 	CALL SUBOPT_0x62
                 ; 0000 0660                 goto exit_sudut;
                 ; 0000 0661         }
                 ; 0000 0662 
                 ; 0000 0663         exit_sudut:
                 _0x1B9:
                 _0x1B8:
                 ; 0000 0664 
                 ; 0000 0665         maju();
000d88 d9d5      	RCALL _maju
                 ; 0000 0666 }
000d89 9508      	RET
                 ;
                 ;// strategi track A penyisihan, warna : merah , hijau
                 ;
                 ;void cekPointStarta(void)
                 ; 0000 066B {
                 _cekPointStarta:
                 ; 0000 066C         start1:
                 _0x1BF:
                 ; 0000 066D 
                 ; 0000 066E         maju();
000d8a 940e 18c8 	CALL SUBOPT_0x63
                 ; 0000 066F         displaySensorBit();
                 ; 0000 0670         scanBlackLine();
                 ; 0000 0671         if((!sKa) && (sensor==255))
000d8c fc30      	SBRC R3,0
000d8d c003      	RJMP _0x1C1
000d8e efef      	LDI  R30,LOW(255)
000d8f 15e6      	CP   R30,R6
000d90 f009      	BREQ _0x1C2
                 _0x1C1:
000d91 c017      	RJMP _0x1C0
                 _0x1C2:
                 ; 0000 0672         {
                 ; 0000 0673                 stop(5);
000d92 940e 18c4 	CALL SUBOPT_0x62
                 ; 0000 0674 
                 ; 0000 0675                 indikatorPerempatan();
000d94 d592      	RCALL _indikatorPerempatan
                 ; 0000 0676 
                 ; 0000 0677                 while((sensor!=0b11100111)&&(sensor!=0b11101111)&&(sensor!=0b11110111))
                 _0x1C3:
000d95 eee7      	LDI  R30,LOW(231)
000d96 15e6      	CP   R30,R6
000d97 f031      	BREQ _0x1C6
000d98 eeef      	LDI  R30,LOW(239)
000d99 15e6      	CP   R30,R6
000d9a f019      	BREQ _0x1C6
000d9b efe7      	LDI  R30,LOW(247)
000d9c 15e6      	CP   R30,R6
000d9d f409      	BRNE _0x1C7
                 _0x1C6:
000d9e c007      	RJMP _0x1C5
                 _0x1C7:
                 ; 0000 0678                 {
                 ; 0000 0679                         baca_sensor();
000d9f 940e 18ce 	CALL SUBOPT_0x64
                 ; 0000 067A                         lpwm=MAXPWM/2;
000da1 940e 18bb 	CALL SUBOPT_0x5F
                 ; 0000 067B                         rpwm=MAXPWM/2;
000da3 940e 18d1 	CALL SUBOPT_0x65
                 ; 0000 067C                         rotkir();
                 ; 0000 067D                 }
000da5 cfef      	RJMP _0x1C3
                 _0x1C5:
                 ; 0000 067E 
                 ; 0000 067F                 stop(5);
000da6 940e 18c4 	CALL SUBOPT_0x62
                 ; 0000 0680 
                 ; 0000 0681                 goto cekpoint11;
000da8 c002      	RJMP _0x1C8
                 ; 0000 0682         }
                 ; 0000 0683         scanSudut();
                 _0x1C0:
000da9 dfbb      	RCALL _scanSudut
                 ; 0000 0684         goto start1;
000daa cfdf      	RJMP _0x1BF
                 ; 0000 0685 
                 ; 0000 0686         cekpoint11:
                 _0x1C8:
                 ; 0000 0687 }
000dab 9508      	RET
                 ;
                 ;void cekPoint1a(void)
                 ; 0000 068A {
                 _cekPoint1a:
                 ; 0000 068B         //cek point 1
                 ; 0000 068C         cekpoint11:
                 _0x1C9:
                 ; 0000 068D 
                 ; 0000 068E         maju();
000dac 940e 18c8 	CALL SUBOPT_0x63
                 ; 0000 068F         displaySensorBit();
                 ; 0000 0690         scanBlackLine();
                 ; 0000 0691 
                 ; 0000 0692         if((!sKa)&&(sensor==255))
000dae fc30      	SBRC R3,0
000daf c003      	RJMP _0x1CB
000db0 efef      	LDI  R30,LOW(255)
000db1 15e6      	CP   R30,R6
000db2 f009      	BREQ _0x1CC
                 _0x1CB:
000db3 c027      	RJMP _0x1CA
                 _0x1CC:
                 ; 0000 0693         {
                 ; 0000 0694                 indikatorSudut();
000db4 940e 18d4 	CALL SUBOPT_0x66
                 ; 0000 0695                 stop(5);
                 ; 0000 0696 
                 ; 0000 0697                 while(sensor==255)
                 _0x1CD:
000db6 efef      	LDI  R30,LOW(255)
000db7 15e6      	CP   R30,R6
000db8 f4f9      	BRNE _0x1CF
                 ; 0000 0698                 {
                 ; 0000 0699                         baca_sensor();
000db9 940e 18ce 	CALL SUBOPT_0x64
                 ; 0000 069A                         lpwm=MAXPWM / 2;
000dbb 940e 18bb 	CALL SUBOPT_0x5F
                 ; 0000 069B                         rpwm=MAXPWM / 2;
000dbd 940e 18d7 	CALL SUBOPT_0x67
                 ; 0000 069C                         rotkan();
                 ; 0000 069D                         if((!sKa)&&(!sKi))
000dbf fc30      	SBRC R3,0
000dc0 c002      	RJMP _0x1D1
000dc1 fe31      	SBRS R3,1
000dc2 c001      	RJMP _0x1D2
                 _0x1D1:
000dc3 c013      	RJMP _0x1D0
                 _0x1D2:
                 ; 0000 069E                         {
                 ; 0000 069F                                 indikatorPerempatan();
000dc4 940e 18da 	CALL SUBOPT_0x68
                 ; 0000 06A0                                 stop(5);
                 ; 0000 06A1 
                 ; 0000 06A2                                 while((sensor!=0b11100111)&&(sensor!=0b11101111)&&(sensor!=0b11110111))
                 _0x1D3:
000dc6 eee7      	LDI  R30,LOW(231)
000dc7 15e6      	CP   R30,R6
000dc8 f031      	BREQ _0x1D6
000dc9 eeef      	LDI  R30,LOW(239)
000dca 15e6      	CP   R30,R6
000dcb f019      	BREQ _0x1D6
000dcc efe7      	LDI  R30,LOW(247)
000dcd 15e6      	CP   R30,R6
000dce f409      	BRNE _0x1D7
                 _0x1D6:
000dcf c007      	RJMP _0x1D5
                 _0x1D7:
                 ; 0000 06A3                                 {
                 ; 0000 06A4                                         baca_sensor();
000dd0 940e 18ce 	CALL SUBOPT_0x64
                 ; 0000 06A5                                         lpwm=MAXPWM/2;
000dd2 940e 18bb 	CALL SUBOPT_0x5F
                 ; 0000 06A6                                         rpwm=MAXPWM/2;
000dd4 940e 18d7 	CALL SUBOPT_0x67
                 ; 0000 06A7                                         rotkan();
                 ; 0000 06A8                                 }
000dd6 cfef      	RJMP _0x1D3
                 _0x1D5:
                 ; 0000 06A9                         }
                 ; 0000 06AA                 }
                 _0x1D0:
000dd7 cfde      	RJMP _0x1CD
                 _0x1CF:
                 ; 0000 06AB                 stop(5);
000dd8 940e 18c4 	CALL SUBOPT_0x62
                 ; 0000 06AC                 goto cekpoint12;
000dda c030      	RJMP _0x1D8
                 ; 0000 06AD         }
                 ; 0000 06AE 
                 ; 0000 06AF         if((!sKi)&&(sensor==255))
                 _0x1CA:
000ddb fc31      	SBRC R3,1
000ddc c003      	RJMP _0x1DA
000ddd efef      	LDI  R30,LOW(255)
000dde 15e6      	CP   R30,R6
000ddf f009      	BREQ _0x1DB
                 _0x1DA:
000de0 c029      	RJMP _0x1D9
                 _0x1DB:
                 ; 0000 06B0         {
                 ; 0000 06B1                 indikatorSudut();
000de1 940e 18d4 	CALL SUBOPT_0x66
                 ; 0000 06B2                 stop(5);
                 ; 0000 06B3 
                 ; 0000 06B4                 baca_sensor();
000de3 940e 067c 	CALL _baca_sensor
                 ; 0000 06B5                 while(sensor==255)
                 _0x1DC:
000de5 efef      	LDI  R30,LOW(255)
000de6 15e6      	CP   R30,R6
000de7 f4f9      	BRNE _0x1DE
                 ; 0000 06B6                 {
                 ; 0000 06B7                         baca_sensor();
000de8 940e 18ce 	CALL SUBOPT_0x64
                 ; 0000 06B8                         lpwm=MAXPWM / 2;
000dea 940e 18bb 	CALL SUBOPT_0x5F
                 ; 0000 06B9                         rpwm=MAXPWM / 2;
000dec 940e 18d1 	CALL SUBOPT_0x65
                 ; 0000 06BA                         rotkir();
                 ; 0000 06BB                         if((!sKa)&&(!sKi))
000dee fc30      	SBRC R3,0
000def c002      	RJMP _0x1E0
000df0 fe31      	SBRS R3,1
000df1 c001      	RJMP _0x1E1
                 _0x1E0:
000df2 c013      	RJMP _0x1DF
                 _0x1E1:
                 ; 0000 06BC                         {
                 ; 0000 06BD                                 indikatorPerempatan();
000df3 940e 18da 	CALL SUBOPT_0x68
                 ; 0000 06BE                                 stop(5);
                 ; 0000 06BF 
                 ; 0000 06C0                                 while((sensor!=0b11100111)&&(sensor!=0b11101111)&&(sensor!=0b11110111))
                 _0x1E2:
000df5 eee7      	LDI  R30,LOW(231)
000df6 15e6      	CP   R30,R6
000df7 f031      	BREQ _0x1E5
000df8 eeef      	LDI  R30,LOW(239)
000df9 15e6      	CP   R30,R6
000dfa f019      	BREQ _0x1E5
000dfb efe7      	LDI  R30,LOW(247)
000dfc 15e6      	CP   R30,R6
000dfd f409      	BRNE _0x1E6
                 _0x1E5:
000dfe c007      	RJMP _0x1E4
                 _0x1E6:
                 ; 0000 06C1                                 {
                 ; 0000 06C2                                         baca_sensor();
000dff 940e 18ce 	CALL SUBOPT_0x64
                 ; 0000 06C3                                         lpwm=MAXPWM/2;
000e01 940e 18bb 	CALL SUBOPT_0x5F
                 ; 0000 06C4                                         rpwm=MAXPWM/2;
000e03 940e 18d7 	CALL SUBOPT_0x67
                 ; 0000 06C5                                         rotkan();
                 ; 0000 06C6                                 }
000e05 cfef      	RJMP _0x1E2
                 _0x1E4:
                 ; 0000 06C7                         }
                 ; 0000 06C8                 }
                 _0x1DF:
000e06 cfde      	RJMP _0x1DC
                 _0x1DE:
                 ; 0000 06C9                 stop(5);
000e07 940e 18c4 	CALL SUBOPT_0x62
                 ; 0000 06CA                 goto cekpoint12;
000e09 c001      	RJMP _0x1D8
                 ; 0000 06CB         }
                 ; 0000 06CC         goto cekpoint11;
                 _0x1D9:
000e0a cfa1      	RJMP _0x1C9
                 ; 0000 06CD 
                 ; 0000 06CE         cekpoint12:
                 _0x1D8:
                 ; 0000 06CF 
                 ; 0000 06D0         maju();
000e0b 940e 18c8 	CALL SUBOPT_0x63
                 ; 0000 06D1         displaySensorBit();
                 ; 0000 06D2         scanBlackLine();
                 ; 0000 06D3         if((!sKi)&&(sensor==255))
000e0d fc31      	SBRC R3,1
000e0e c003      	RJMP _0x1E8
000e0f efef      	LDI  R30,LOW(255)
000e10 15e6      	CP   R30,R6
000e11 f009      	BREQ _0x1E9
                 _0x1E8:
000e12 c017      	RJMP _0x1E7
                 _0x1E9:
                 ; 0000 06D4         {
                 ; 0000 06D5                 stop(5);
000e13 940e 18c4 	CALL SUBOPT_0x62
                 ; 0000 06D6 
                 ; 0000 06D7                 indikatorPerempatan();
000e15 d511      	RCALL _indikatorPerempatan
                 ; 0000 06D8 
                 ; 0000 06D9                 while((sensor!=0b11100111)&&(sensor!=0b11101111)&&(sensor!=0b11110111))
                 _0x1EA:
000e16 eee7      	LDI  R30,LOW(231)
000e17 15e6      	CP   R30,R6
000e18 f031      	BREQ _0x1ED
000e19 eeef      	LDI  R30,LOW(239)
000e1a 15e6      	CP   R30,R6
000e1b f019      	BREQ _0x1ED
000e1c efe7      	LDI  R30,LOW(247)
000e1d 15e6      	CP   R30,R6
000e1e f409      	BRNE _0x1EE
                 _0x1ED:
000e1f c007      	RJMP _0x1EC
                 _0x1EE:
                 ; 0000 06DA                 {
                 ; 0000 06DB                         baca_sensor();
000e20 940e 18ce 	CALL SUBOPT_0x64
                 ; 0000 06DC                         lpwm=MAXPWM/2;
000e22 940e 18bb 	CALL SUBOPT_0x5F
                 ; 0000 06DD                         rpwm=MAXPWM/2;
000e24 940e 18d1 	CALL SUBOPT_0x65
                 ; 0000 06DE                         rotkir();
                 ; 0000 06DF                 }
000e26 cfef      	RJMP _0x1EA
                 _0x1EC:
                 ; 0000 06E0 
                 ; 0000 06E1                 stop(5);
000e27 940e 18c4 	CALL SUBOPT_0x62
                 ; 0000 06E2                 goto cekpoint13;
000e29 c001      	RJMP _0x1EF
                 ; 0000 06E3         }
                 ; 0000 06E4 
                 ; 0000 06E5         goto cekpoint12;
                 _0x1E7:
000e2a cfe0      	RJMP _0x1D8
                 ; 0000 06E6 
                 ; 0000 06E7         cekpoint13:
                 _0x1EF:
                 ; 0000 06E8 
                 ; 0000 06E9         maju();
000e2b 940e 18c8 	CALL SUBOPT_0x63
                 ; 0000 06EA         displaySensorBit();
                 ; 0000 06EB         scanBlackLine();
                 ; 0000 06EC         if((!sKi) && (sensor==255))
000e2d fc31      	SBRC R3,1
000e2e c003      	RJMP _0x1F1
000e2f efef      	LDI  R30,LOW(255)
000e30 15e6      	CP   R30,R6
000e31 f009      	BREQ _0x1F2
                 _0x1F1:
000e32 c017      	RJMP _0x1F0
                 _0x1F2:
                 ; 0000 06ED         {
                 ; 0000 06EE                 stop(5);
000e33 940e 18c4 	CALL SUBOPT_0x62
                 ; 0000 06EF 
                 ; 0000 06F0                 indikatorPerempatan();
000e35 d4f1      	RCALL _indikatorPerempatan
                 ; 0000 06F1 
                 ; 0000 06F2                 while((sensor!=0b11100111)&&(sensor!=0b11101111)&&(sensor!=0b11110111))
                 _0x1F3:
000e36 eee7      	LDI  R30,LOW(231)
000e37 15e6      	CP   R30,R6
000e38 f031      	BREQ _0x1F6
000e39 eeef      	LDI  R30,LOW(239)
000e3a 15e6      	CP   R30,R6
000e3b f019      	BREQ _0x1F6
000e3c efe7      	LDI  R30,LOW(247)
000e3d 15e6      	CP   R30,R6
000e3e f409      	BRNE _0x1F7
                 _0x1F6:
000e3f c007      	RJMP _0x1F5
                 _0x1F7:
                 ; 0000 06F3                 {
                 ; 0000 06F4                         baca_sensor();
000e40 940e 18ce 	CALL SUBOPT_0x64
                 ; 0000 06F5                         lpwm=MAXPWM/2;
000e42 940e 18bb 	CALL SUBOPT_0x5F
                 ; 0000 06F6                         rpwm=MAXPWM/2;
000e44 940e 18d7 	CALL SUBOPT_0x67
                 ; 0000 06F7                         rotkan();
                 ; 0000 06F8                 }
000e46 cfef      	RJMP _0x1F3
                 _0x1F5:
                 ; 0000 06F9 
                 ; 0000 06FA                 stop(5);
000e47 940e 18c4 	CALL SUBOPT_0x62
                 ; 0000 06FB                 goto cekpoint14;
000e49 c002      	RJMP _0x1F8
                 ; 0000 06FC         }
                 ; 0000 06FD         scanSudut();
                 _0x1F0:
000e4a df1a      	RCALL _scanSudut
                 ; 0000 06FE         goto cekpoint13;
000e4b cfdf      	RJMP _0x1EF
                 ; 0000 06FF 
                 ; 0000 0700         cekpoint14:
                 _0x1F8:
                 ; 0000 0701 
                 ; 0000 0702         maju();
000e4c 940e 18c8 	CALL SUBOPT_0x63
                 ; 0000 0703         displaySensorBit();
                 ; 0000 0704         scanBlackLine();
                 ; 0000 0705         if((!sKi)&&(!sKa)&&(sensor<255))
000e4e fc31      	SBRC R3,1
000e4f c005      	RJMP _0x1FA
000e50 fc30      	SBRC R3,0
000e51 c003      	RJMP _0x1FA
000e52 efef      	LDI  R30,LOW(255)
000e53 166e      	CP   R6,R30
000e54 f008      	BRLO _0x1FB
                 _0x1FA:
000e55 c021      	RJMP _0x1F9
                 _0x1FB:
                 ; 0000 0706         {
                 ; 0000 0707                 stop(5);
000e56 940e 18c4 	CALL SUBOPT_0x62
                 ; 0000 0708                 indikatorPerempatan();
000e58 d4ce      	RCALL _indikatorPerempatan
                 ; 0000 0709 
                 ; 0000 070A                 while(sensor<255)
                 _0x1FC:
000e59 efef      	LDI  R30,LOW(255)
000e5a 166e      	CP   R6,R30
000e5b f438      	BRSH _0x1FE
                 ; 0000 070B                 {
                 ; 0000 070C                         baca_sensor();
000e5c 940e 18ce 	CALL SUBOPT_0x64
                 ; 0000 070D                         lpwm=MAXPWM/2;
000e5e 940e 18bb 	CALL SUBOPT_0x5F
                 ; 0000 070E                         rpwm=MAXPWM/2;
000e60 940e 18d1 	CALL SUBOPT_0x65
                 ; 0000 070F                         rotkir();
                 ; 0000 0710                 }
000e62 cff6      	RJMP _0x1FC
                 _0x1FE:
                 ; 0000 0711 
                 ; 0000 0712                 while((sensor!=0b11100111)&&(sensor!=0b11101111)&&(sensor!=0b11110111))
                 _0x1FF:
000e63 eee7      	LDI  R30,LOW(231)
000e64 15e6      	CP   R30,R6
000e65 f031      	BREQ _0x202
000e66 eeef      	LDI  R30,LOW(239)
000e67 15e6      	CP   R30,R6
000e68 f019      	BREQ _0x202
000e69 efe7      	LDI  R30,LOW(247)
000e6a 15e6      	CP   R30,R6
000e6b f409      	BRNE _0x203
                 _0x202:
000e6c c007      	RJMP _0x201
                 _0x203:
                 ; 0000 0713                 {
                 ; 0000 0714                         baca_sensor();
000e6d 940e 18ce 	CALL SUBOPT_0x64
                 ; 0000 0715                         lpwm=MAXPWM/2;
000e6f 940e 18bb 	CALL SUBOPT_0x5F
                 ; 0000 0716                         rpwm=MAXPWM/2;
000e71 940e 18d1 	CALL SUBOPT_0x65
                 ; 0000 0717                         rotkir();
                 ; 0000 0718                 }
000e73 cfef      	RJMP _0x1FF
                 _0x201:
                 ; 0000 0719 
                 ; 0000 071A                 stop(5);
000e74 940e 18c4 	CALL SUBOPT_0x62
                 ; 0000 071B                 goto cekpoint21;
000e76 c001      	RJMP _0x204
                 ; 0000 071C         }
                 ; 0000 071D         goto cekpoint14;
                 _0x1F9:
000e77 cfd4      	RJMP _0x1F8
                 ; 0000 071E 
                 ; 0000 071F         cekpoint21:
                 _0x204:
                 ; 0000 0720 }
000e78 9508      	RET
                 ;
                 ;void cekPoint2a(void)
                 ; 0000 0723 {
                 _cekPoint2a:
                 ; 0000 0724         //cek point 2
                 ; 0000 0725         MINPWM = _MINPWM - 10;
000e79 940e 18dd 	CALL SUBOPT_0x69
                 ; 0000 0726         var_Kp = 17;
000e7b 940e 18e7 	CALL SUBOPT_0x6A
                 ; 0000 0727         var_Ki = 0;
                 ; 0000 0728         var_Kd = 11;
                 ; 0000 0729 
                 ; 0000 072A         // counting simpangan
                 ; 0000 072B         baca_sensor();
000e7d 940e 067c 	CALL _baca_sensor
                 ; 0000 072C         while(sKa)
                 _0x205:
000e7f fe30      	SBRS R3,0
000e80 c003      	RJMP _0x207
                 ; 0000 072D         {
                 ; 0000 072E                 maju();
000e81 940e 18c8 	CALL SUBOPT_0x63
                 ; 0000 072F                 displaySensorBit();
                 ; 0000 0730                 scanBlackLine();
                 ; 0000 0731         }
000e83 cffb      	RJMP _0x205
                 _0x207:
                 ; 0000 0732         indikatorSudut();
000e84 d4a1      	RCALL _indikatorSudut
                 ; 0000 0733         while(!sKa)
                 _0x208:
000e85 fc30      	SBRC R3,0
000e86 c003      	RJMP _0x20A
                 ; 0000 0734         {
                 ; 0000 0735                 maju();
000e87 940e 18c8 	CALL SUBOPT_0x63
                 ; 0000 0736                 displaySensorBit();
                 ; 0000 0737                 scanBlackLine();
                 ; 0000 0738         }
000e89 cffb      	RJMP _0x208
                 _0x20A:
                 ; 0000 0739         while(sKa)
                 _0x20B:
000e8a fe30      	SBRS R3,0
000e8b c003      	RJMP _0x20D
                 ; 0000 073A         {
                 ; 0000 073B                 maju();
000e8c 940e 18c8 	CALL SUBOPT_0x63
                 ; 0000 073C                 displaySensorBit();
                 ; 0000 073D                 scanBlackLine();
                 ; 0000 073E         }
000e8e cffb      	RJMP _0x20B
                 _0x20D:
                 ; 0000 073F         indikatorSudut();
000e8f 940e 18f9 	CALL SUBOPT_0x6B
                 ; 0000 0740 
                 ; 0000 0741         // putar kiri
                 ; 0000 0742         stop(10);
                 ; 0000 0743         baca_sensor();
                 ; 0000 0744         while((sKa)&&(sKi))
                 _0x20E:
000e91 fe30      	SBRS R3,0
000e92 c002      	RJMP _0x211
000e93 fc31      	SBRC R3,1
000e94 c001      	RJMP _0x212
                 _0x211:
000e95 c003      	RJMP _0x210
                 _0x212:
                 ; 0000 0745         {
                 ; 0000 0746                 mundur();
000e96 940e 1901 	CALL SUBOPT_0x6C
                 ; 0000 0747                 lpwm = MINPWM;
                 ; 0000 0748                 rpwm = MINPWM;
                 ; 0000 0749         }
000e98 cff8      	RJMP _0x20E
                 _0x210:
                 ; 0000 074A         stop(10);
000e99 940e 1904 	CALL SUBOPT_0x6D
                 ; 0000 074B         baca_sensor();
                 ; 0000 074C         while(sensor<255)
                 _0x213:
000e9b efef      	LDI  R30,LOW(255)
000e9c 166e      	CP   R6,R30
000e9d f428      	BRSH _0x215
                 ; 0000 074D         {
                 ; 0000 074E                 rotkan();
000e9e 940e 190a 	CALL SUBOPT_0x6E
                 ; 0000 074F                 lpwm = MINPWM;
                 ; 0000 0750                 rpwm = MINPWM;
                 ; 0000 0751                 baca_sensor();
000ea0 940e 067c 	CALL _baca_sensor
                 ; 0000 0752         }
000ea2 cff8      	RJMP _0x213
                 _0x215:
                 ; 0000 0753         while(s4)
                 _0x216:
000ea3 fe24      	SBRS R2,4
000ea4 c005      	RJMP _0x218
                 ; 0000 0754         {
                 ; 0000 0755                 rotkan();
000ea5 940e 190a 	CALL SUBOPT_0x6E
                 ; 0000 0756                 lpwm = MINPWM;
                 ; 0000 0757                 rpwm = MINPWM;
                 ; 0000 0758                 baca_sensor();
000ea7 940e 067c 	CALL _baca_sensor
                 ; 0000 0759         }
000ea9 cff9      	RJMP _0x216
                 _0x218:
                 ; 0000 075A 
                 ; 0000 075B         // line kiri counting sudut
                 ; 0000 075C         baca_sensor();
000eaa 940e 067c 	CALL _baca_sensor
                 ; 0000 075D         while(sKa)
                 _0x219:
000eac fe30      	SBRS R3,0
000ead c003      	RJMP _0x21B
                 ; 0000 075E         {
                 ; 0000 075F                 maju();
000eae 940e 18c8 	CALL SUBOPT_0x63
                 ; 0000 0760                 displaySensorBit();
                 ; 0000 0761                 scanBlackLine();
                 ; 0000 0762         }
000eb0 cffb      	RJMP _0x219
                 _0x21B:
                 ; 0000 0763         indikatorSudut();
000eb1 d474      	RCALL _indikatorSudut
                 ; 0000 0764         while(!sKa)
                 _0x21C:
000eb2 fc30      	SBRC R3,0
000eb3 c003      	RJMP _0x21E
                 ; 0000 0765         {
                 ; 0000 0766                 displaySensorBit();
000eb4 940e 190d 	CALL SUBOPT_0x6F
                 ; 0000 0767                 scanBlackLine();
                 ; 0000 0768         }
000eb6 cffb      	RJMP _0x21C
                 _0x21E:
                 ; 0000 0769         while(sKa)
                 _0x21F:
000eb7 fe30      	SBRS R3,0
000eb8 c003      	RJMP _0x221
                 ; 0000 076A         {
                 ; 0000 076B                 displaySensorBit();
000eb9 940e 190d 	CALL SUBOPT_0x6F
                 ; 0000 076C                 scanBlackLine();
                 ; 0000 076D         }
000ebb cffb      	RJMP _0x21F
                 _0x221:
                 ; 0000 076E         indikatorSudut();
000ebc d469      	RCALL _indikatorSudut
                 ; 0000 076F         while(sKi)
                 _0x222:
000ebd fe31      	SBRS R3,1
000ebe c003      	RJMP _0x224
                 ; 0000 0770         {
                 ; 0000 0771                 displaySensorBit();
000ebf 940e 190d 	CALL SUBOPT_0x6F
                 ; 0000 0772                 scanBlackLine();
                 ; 0000 0773         }
000ec1 cffb      	RJMP _0x222
                 _0x224:
                 ; 0000 0774         indikatorSudut();
000ec2 d463      	RCALL _indikatorSudut
                 ; 0000 0775         while(!sKi)
                 _0x225:
000ec3 fc31      	SBRC R3,1
000ec4 c003      	RJMP _0x227
                 ; 0000 0776         {
                 ; 0000 0777                 displaySensorBit();
000ec5 940e 190d 	CALL SUBOPT_0x6F
                 ; 0000 0778                 scanBlackLine();
                 ; 0000 0779         }
000ec7 cffb      	RJMP _0x225
                 _0x227:
                 ; 0000 077A         while(sKi)
                 _0x228:
000ec8 fe31      	SBRS R3,1
000ec9 c003      	RJMP _0x22A
                 ; 0000 077B         {
                 ; 0000 077C                 displaySensorBit();
000eca 940e 190d 	CALL SUBOPT_0x6F
                 ; 0000 077D                 scanBlackLine();
                 ; 0000 077E         }
000ecc cffb      	RJMP _0x228
                 _0x22A:
                 ; 0000 077F         indikatorSudut();
000ecd c128      	RJMP _0x2080007
                 ; 0000 0780 
                 ; 0000 0781         // done!!
                 ; 0000 0782 }
                 ;
                 ;void cekPoint3a(void)
                 ; 0000 0785 {
                 _cekPoint3a:
                 ; 0000 0786         char f;
                 ; 0000 0787 
                 ; 0000 0788         //cek point 3
                 ; 0000 0789         MINPWM = _MINPWM - 10;
000ece 931a      	ST   -Y,R17
                 ;	f -> R17
000ecf 940e 18dd 	CALL SUBOPT_0x69
                 ; 0000 078A         var_Kp = 11;
000ed1 940e 1911 	CALL SUBOPT_0x70
                 ; 0000 078B         var_Ki = 0;
                 ; 0000 078C         var_Kd = 7;
                 ; 0000 078D 
                 ; 0000 078E         // cari simpangan
                 ; 0000 078F         maju();
000ed3 940e 075e 	CALL _maju
                 ; 0000 0790         while(sKi)
                 _0x22B:
000ed5 fe31      	SBRS R3,1
000ed6 c003      	RJMP _0x22D
                 ; 0000 0791         {
                 ; 0000 0792                 displaySensorBit();
000ed7 940e 190d 	CALL SUBOPT_0x6F
                 ; 0000 0793                 scanBlackLine();
                 ; 0000 0794         }
000ed9 cffb      	RJMP _0x22B
                 _0x22D:
                 ; 0000 0795         indikatorSudut();
000eda 940e 18f9 	CALL SUBOPT_0x6B
                 ; 0000 0796 
                 ; 0000 0797         // putar kanan
                 ; 0000 0798         stop(10);
                 ; 0000 0799         baca_sensor();
                 ; 0000 079A         while(sKi)
                 _0x22E:
000edc fe31      	SBRS R3,1
000edd c005      	RJMP _0x230
                 ; 0000 079B         {
                 ; 0000 079C                 mundur();
000ede 940e 1901 	CALL SUBOPT_0x6C
                 ; 0000 079D                 lpwm = MINPWM;
                 ; 0000 079E                 rpwm = MINPWM;
                 ; 0000 079F                 baca_sensor();
000ee0 940e 067c 	CALL _baca_sensor
                 ; 0000 07A0         }
000ee2 cff9      	RJMP _0x22E
                 _0x230:
                 ; 0000 07A1         stop(10);
000ee3 940e 1904 	CALL SUBOPT_0x6D
                 ; 0000 07A2         baca_sensor();
                 ; 0000 07A3         while(s7)
                 _0x231:
000ee5 fe27      	SBRS R2,7
000ee6 c005      	RJMP _0x233
                 ; 0000 07A4         {
                 ; 0000 07A5                 rotkir();
000ee7 940e 1923 	CALL SUBOPT_0x71
                 ; 0000 07A6                 lpwm = MINPWM;
                 ; 0000 07A7                 rpwm = MINPWM;
                 ; 0000 07A8                 baca_sensor();
000ee9 940e 067c 	CALL _baca_sensor
                 ; 0000 07A9         }
000eeb cff9      	RJMP _0x231
                 _0x233:
                 ; 0000 07AA         baca_sensor();
000eec 940e 067c 	CALL _baca_sensor
                 ; 0000 07AB         while(!s7)
                 _0x234:
000eee fc27      	SBRC R2,7
000eef c005      	RJMP _0x236
                 ; 0000 07AC         {
                 ; 0000 07AD                 rotkir();
000ef0 940e 1923 	CALL SUBOPT_0x71
                 ; 0000 07AE                 lpwm = MINPWM;
                 ; 0000 07AF                 rpwm = MINPWM;
                 ; 0000 07B0                 baca_sensor();
000ef2 940e 067c 	CALL _baca_sensor
                 ; 0000 07B1         }
000ef4 cff9      	RJMP _0x234
                 _0x236:
                 ; 0000 07B2         baca_sensor();
000ef5 940e 067c 	CALL _baca_sensor
                 ; 0000 07B3         while(s3)
                 _0x237:
000ef7 fe23      	SBRS R2,3
000ef8 c005      	RJMP _0x239
                 ; 0000 07B4         {
                 ; 0000 07B5                 rotkir();
000ef9 940e 1923 	CALL SUBOPT_0x71
                 ; 0000 07B6                 lpwm = MINPWM;
                 ; 0000 07B7                 rpwm = MINPWM;
                 ; 0000 07B8                 baca_sensor();
000efb 940e 067c 	CALL _baca_sensor
                 ; 0000 07B9         }
000efd cff9      	RJMP _0x237
                 _0x239:
                 ; 0000 07BA 
                 ; 0000 07BB         // counting simpangan
                 ; 0000 07BC         stop(10);
000efe 940e 1904 	CALL SUBOPT_0x6D
                 ; 0000 07BD         baca_sensor();
                 ; 0000 07BE         while(sKi)
                 _0x23A:
000f00 fe31      	SBRS R3,1
000f01 c003      	RJMP _0x23C
                 ; 0000 07BF         {
                 ; 0000 07C0                 maju();
000f02 940e 18c8 	CALL SUBOPT_0x63
                 ; 0000 07C1                 displaySensorBit();
                 ; 0000 07C2                 scanBlackLine();
                 ; 0000 07C3         }
000f04 cffb      	RJMP _0x23A
                 _0x23C:
                 ; 0000 07C4         indikatorSudut();
000f05 d420      	RCALL _indikatorSudut
                 ; 0000 07C5         while(!sKi)
                 _0x23D:
000f06 fc31      	SBRC R3,1
000f07 c003      	RJMP _0x23F
                 ; 0000 07C6         {
                 ; 0000 07C7                 maju();
000f08 940e 18c8 	CALL SUBOPT_0x63
                 ; 0000 07C8                 displaySensorBit();
                 ; 0000 07C9                 scanBlackLine();
                 ; 0000 07CA         }
000f0a cffb      	RJMP _0x23D
                 _0x23F:
                 ; 0000 07CB         while(sKi)
                 _0x240:
000f0b fe31      	SBRS R3,1
000f0c c003      	RJMP _0x242
                 ; 0000 07CC         {
                 ; 0000 07CD                 maju();
000f0d 940e 18c8 	CALL SUBOPT_0x63
                 ; 0000 07CE                 displaySensorBit();
                 ; 0000 07CF                 scanBlackLine();
                 ; 0000 07D0         }
000f0f cffb      	RJMP _0x240
                 _0x242:
                 ; 0000 07D1         indikatorSudut();
000f10 d415      	RCALL _indikatorSudut
                 ; 0000 07D2         while(!sKi)
                 _0x243:
000f11 fc31      	SBRC R3,1
000f12 c003      	RJMP _0x245
                 ; 0000 07D3         {
                 ; 0000 07D4                 maju();
000f13 940e 18c8 	CALL SUBOPT_0x63
                 ; 0000 07D5                 displaySensorBit();
                 ; 0000 07D6                 scanBlackLine();
                 ; 0000 07D7         }
000f15 cffb      	RJMP _0x243
                 _0x245:
                 ; 0000 07D8         for(f=0;f<10;f++)
000f16 e010      	LDI  R17,LOW(0)
                 _0x247:
000f17 301a      	CPI  R17,10
000f18 f420      	BRSH _0x248
                 ; 0000 07D9         {
                 ; 0000 07DA                 maju();
000f19 940e 18c8 	CALL SUBOPT_0x63
                 ; 0000 07DB                 displaySensorBit();
                 ; 0000 07DC                 scanBlackLine();
                 ; 0000 07DD         }
000f1b 5f1f      	SUBI R17,-1
000f1c cffa      	RJMP _0x247
                 _0x248:
                 ; 0000 07DE         while(sKa)
                 _0x249:
000f1d fe30      	SBRS R3,0
000f1e c005      	RJMP _0x24B
                 ; 0000 07DF         {
                 ; 0000 07E0                 maju();
000f1f 940e 075e 	CALL _maju
                 ; 0000 07E1                 displaySensorBit();
000f21 940e 0719 	CALL _displaySensorBit
                 ; 0000 07E2         }
000f23 cff9      	RJMP _0x249
                 _0x24B:
                 ; 0000 07E3         indikatorSudut();
000f24 940e 18f9 	CALL SUBOPT_0x6B
                 ; 0000 07E4 
                 ; 0000 07E5         // putar kiri
                 ; 0000 07E6         stop(10);
                 ; 0000 07E7         baca_sensor();
                 ; 0000 07E8         while(sKi)
                 _0x24C:
000f26 fe31      	SBRS R3,1
000f27 c005      	RJMP _0x24E
                 ; 0000 07E9         {
                 ; 0000 07EA                 mundur();
000f28 940e 1901 	CALL SUBOPT_0x6C
                 ; 0000 07EB                 lpwm = MINPWM;
                 ; 0000 07EC                 rpwm = MINPWM;
                 ; 0000 07ED                 baca_sensor();
000f2a 940e 067c 	CALL _baca_sensor
                 ; 0000 07EE         }
000f2c cff9      	RJMP _0x24C
                 _0x24E:
                 ; 0000 07EF         stop(10);
000f2d 940e 1904 	CALL SUBOPT_0x6D
                 ; 0000 07F0         baca_sensor();
                 ; 0000 07F1         while(sensor<255)
                 _0x24F:
000f2f efef      	LDI  R30,LOW(255)
000f30 166e      	CP   R6,R30
000f31 f438      	BRSH _0x251
                 ; 0000 07F2         {
                 ; 0000 07F3                 bkan();
000f32 940e 0767 	CALL _bkan
                 ; 0000 07F4                 lpwm = MINPWM;
000f34 940e 188b 	CALL SUBOPT_0x57
                 ; 0000 07F5                 rpwm = MINPWM;
                 ; 0000 07F6                 baca_sensor();
000f36 940e 067c 	CALL _baca_sensor
                 ; 0000 07F7         }
000f38 cff6      	RJMP _0x24F
                 _0x251:
                 ; 0000 07F8         while(s4)
                 _0x252:
000f39 fe24      	SBRS R2,4
000f3a c005      	RJMP _0x254
                 ; 0000 07F9         {
                 ; 0000 07FA                 rotkan();
000f3b 940e 190a 	CALL SUBOPT_0x6E
                 ; 0000 07FB                 lpwm = MINPWM;
                 ; 0000 07FC                 rpwm = MINPWM;
                 ; 0000 07FD                 baca_sensor();
000f3d 940e 067c 	CALL _baca_sensor
                 ; 0000 07FE         }
000f3f cff9      	RJMP _0x252
                 _0x254:
                 ; 0000 07FF 
                 ; 0000 0800         // counting simpangan
                 ; 0000 0801         stop(10);
000f40 940e 1904 	CALL SUBOPT_0x6D
                 ; 0000 0802         baca_sensor();
                 ; 0000 0803         while(sKi)
                 _0x255:
000f42 fe31      	SBRS R3,1
000f43 c003      	RJMP _0x257
                 ; 0000 0804         {
                 ; 0000 0805                 maju();
000f44 940e 18c8 	CALL SUBOPT_0x63
                 ; 0000 0806                 displaySensorBit();
                 ; 0000 0807                 scanBlackLine();
                 ; 0000 0808         }
000f46 cffb      	RJMP _0x255
                 _0x257:
                 ; 0000 0809         indikatorSudut();
000f47 d3de      	RCALL _indikatorSudut
                 ; 0000 080A         while(!sKi)
                 _0x258:
000f48 fc31      	SBRC R3,1
000f49 c003      	RJMP _0x25A
                 ; 0000 080B         {
                 ; 0000 080C                 maju();
000f4a 940e 18c8 	CALL SUBOPT_0x63
                 ; 0000 080D                 displaySensorBit();
                 ; 0000 080E                 scanBlackLine();
                 ; 0000 080F         }
000f4c cffb      	RJMP _0x258
                 _0x25A:
                 ; 0000 0810         baca_sensor();
000f4d 940e 067c 	CALL _baca_sensor
                 ; 0000 0811         while(sKi)
                 _0x25B:
000f4f fe31      	SBRS R3,1
000f50 c003      	RJMP _0x25D
                 ; 0000 0812         {
                 ; 0000 0813                 maju();
000f51 940e 18c8 	CALL SUBOPT_0x63
                 ; 0000 0814                 displaySensorBit();
                 ; 0000 0815                 scanBlackLine();
                 ; 0000 0816         }
000f53 cffb      	RJMP _0x25B
                 _0x25D:
                 ; 0000 0817         indikatorSudut();
000f54 d3d1      	RCALL _indikatorSudut
                 ; 0000 0818         while(!sKi)
                 _0x25E:
000f55 fc31      	SBRC R3,1
000f56 c003      	RJMP _0x260
                 ; 0000 0819         {
                 ; 0000 081A                 maju();
000f57 940e 18c8 	CALL SUBOPT_0x63
                 ; 0000 081B                 displaySensorBit();
                 ; 0000 081C                 scanBlackLine();
                 ; 0000 081D         }
000f59 cffb      	RJMP _0x25E
                 _0x260:
                 ; 0000 081E         while(sKi)
                 _0x261:
000f5a fe31      	SBRS R3,1
000f5b c003      	RJMP _0x263
                 ; 0000 081F         {
                 ; 0000 0820                 maju();
000f5c 940e 18c8 	CALL SUBOPT_0x63
                 ; 0000 0821                 displaySensorBit();
                 ; 0000 0822                 scanBlackLine();
                 ; 0000 0823         }
000f5e cffb      	RJMP _0x261
                 _0x263:
                 ; 0000 0824         indikatorSudut();
000f5f 940e 18f9 	CALL SUBOPT_0x6B
                 ; 0000 0825 
                 ; 0000 0826         // putar kanan
                 ; 0000 0827         stop(10);
                 ; 0000 0828         baca_sensor();
                 ; 0000 0829         while(sKi)
                 _0x264:
000f61 fe31      	SBRS R3,1
000f62 c005      	RJMP _0x266
                 ; 0000 082A         {
                 ; 0000 082B                 mundur();
000f63 940e 1901 	CALL SUBOPT_0x6C
                 ; 0000 082C                 lpwm = MINPWM;
                 ; 0000 082D                 rpwm = MINPWM;
                 ; 0000 082E                 baca_sensor();
000f65 940e 067c 	CALL _baca_sensor
                 ; 0000 082F         }
000f67 cff9      	RJMP _0x264
                 _0x266:
                 ; 0000 0830         /*while(sensor<255)
                 ; 0000 0831         {
                 ; 0000 0832                 rotkir();
                 ; 0000 0833                 lpwm = MINPWM;
                 ; 0000 0834                 rpwm = MINPWM;
                 ; 0000 0835                 baca_sensor();
                 ; 0000 0836         } */
                 ; 0000 0837         baca_sensor();
000f68 940e 067c 	CALL _baca_sensor
                 ; 0000 0838         while(s0)
                 _0x267:
000f6a fe20      	SBRS R2,0
000f6b c005      	RJMP _0x269
                 ; 0000 0839         {
                 ; 0000 083A                 rotkir();
000f6c 940e 1923 	CALL SUBOPT_0x71
                 ; 0000 083B                 lpwm = MINPWM;
                 ; 0000 083C                 rpwm = MINPWM;
                 ; 0000 083D                 baca_sensor();
000f6e 940e 067c 	CALL _baca_sensor
                 ; 0000 083E         }
000f70 cff9      	RJMP _0x267
                 _0x269:
                 ; 0000 083F         baca_sensor();
000f71 940e 067c 	CALL _baca_sensor
                 ; 0000 0840         while(sKa)
                 _0x26A:
000f73 fe30      	SBRS R3,0
000f74 c003      	RJMP _0x26C
                 ; 0000 0841         {
                 ; 0000 0842                 maju();
000f75 940e 18c8 	CALL SUBOPT_0x63
                 ; 0000 0843                 displaySensorBit();
                 ; 0000 0844                 scanBlackLine();
                 ; 0000 0845         }
000f77 cffb      	RJMP _0x26A
                 _0x26C:
                 ; 0000 0846         baca_sensor();
000f78 940e 067c 	CALL _baca_sensor
                 ; 0000 0847         while(!sKa)
                 _0x26D:
000f7a fc30      	SBRC R3,0
000f7b c003      	RJMP _0x26F
                 ; 0000 0848         {
                 ; 0000 0849                 maju();
000f7c 940e 18c8 	CALL SUBOPT_0x63
                 ; 0000 084A                 displaySensorBit();
                 ; 0000 084B                 scanBlackLine();
                 ; 0000 084C         }
000f7e cffb      	RJMP _0x26D
                 _0x26F:
                 ; 0000 084D         for(f=0;f<10;f++)
000f7f e010      	LDI  R17,LOW(0)
                 _0x271:
000f80 301a      	CPI  R17,10
000f81 f420      	BRSH _0x272
                 ; 0000 084E         {
                 ; 0000 084F                 maju();
000f82 940e 18c8 	CALL SUBOPT_0x63
                 ; 0000 0850                 displaySensorBit();
                 ; 0000 0851                 scanBlackLine();
                 ; 0000 0852         }
000f84 5f1f      	SUBI R17,-1
000f85 cffa      	RJMP _0x271
                 _0x272:
                 ; 0000 0853         // done !
                 ; 0000 0854         indikatorSudut();
000f86 d39f      	RCALL _indikatorSudut
                 ; 0000 0855 }
000f87 9119      	LD   R17,Y+
000f88 9508      	RET
                 ;
                 ;void cekPoint4a(void)
                 ; 0000 0858 {
                 _cekPoint4a:
                 ; 0000 0859         // cekpoint 4;
                 ; 0000 085A         MINPWM = _MINPWM - 5;
000f89 940e 1926 	CALL SUBOPT_0x72
000f8b 9735      	SBIW R30,5
000f8c 940e 192b 	CALL SUBOPT_0x73
                 ; 0000 085B         var_Kp = 17;
000f8e 940e 18e7 	CALL SUBOPT_0x6A
                 ; 0000 085C         var_Ki = 0;
                 ; 0000 085D         var_Kd = 11;
                 ; 0000 085E 
                 ; 0000 085F         cekpoint4:
                 _0x273:
                 ; 0000 0860 
                 ; 0000 0861         maju();
000f90 940e 18c8 	CALL SUBOPT_0x63
                 ; 0000 0862         displaySensorBit();
                 ; 0000 0863         scanBlackLine();
                 ; 0000 0864 
                 ; 0000 0865         if(!sKa)
000f92 fc30      	SBRC R3,0
000f93 c025      	RJMP _0x274
                 ; 0000 0866         {
                 ; 0000 0867                 stop(10);
000f94 e0ea      	LDI  R30,LOW(10)
000f95 93ea      	ST   -Y,R30
000f96 940e 076a 	CALL _stop
                 ; 0000 0868                 indikatorSudut();
000f98 940e 18bd 	CALL SUBOPT_0x60
                 ; 0000 0869                 baca_sensor();
                 ; 0000 086A                 while(sKa)
                 _0x275:
000f9a fe30      	SBRS R3,0
000f9b c005      	RJMP _0x277
                 ; 0000 086B                 {
                 ; 0000 086C                         mundur();
000f9c 940e 1901 	CALL SUBOPT_0x6C
                 ; 0000 086D                         lpwm = MINPWM;
                 ; 0000 086E                         rpwm = MINPWM;
                 ; 0000 086F                         baca_sensor();
000f9e 940e 067c 	CALL _baca_sensor
                 ; 0000 0870                 }
000fa0 cff9      	RJMP _0x275
                 _0x277:
                 ; 0000 0871 
                 ; 0000 0872                 stop(10);
000fa1 940e 1904 	CALL SUBOPT_0x6D
                 ; 0000 0873 
                 ; 0000 0874                 baca_sensor();
                 ; 0000 0875                 while(sensor<255)
                 _0x278:
000fa3 efef      	LDI  R30,LOW(255)
000fa4 166e      	CP   R6,R30
000fa5 f428      	BRSH _0x27A
                 ; 0000 0876                 {
                 ; 0000 0877                         baca_sensor();
000fa6 940e 18c1 	CALL SUBOPT_0x61
                 ; 0000 0878                         lpwm = MINPWM;
                 ; 0000 0879                         rpwm = MINPWM;
                 ; 0000 087A                         rotkan();
000fa8 940e 0780 	CALL _rotkan
                 ; 0000 087B                 }
000faa cff8      	RJMP _0x278
                 _0x27A:
                 ; 0000 087C 
                 ; 0000 087D                 baca_sensor();
000fab 940e 067c 	CALL _baca_sensor
                 ; 0000 087E                 while(s4)
                 _0x27B:
000fad fe24      	SBRS R2,4
000fae c005      	RJMP _0x27D
                 ; 0000 087F                 {
                 ; 0000 0880                         baca_sensor();
000faf 940e 18c1 	CALL SUBOPT_0x61
                 ; 0000 0881                         lpwm = MINPWM;
                 ; 0000 0882                         rpwm = MINPWM;
                 ; 0000 0883                         rotkan();
000fb1 940e 0780 	CALL _rotkan
                 ; 0000 0884                 }
000fb3 cff9      	RJMP _0x27B
                 _0x27D:
                 ; 0000 0885 
                 ; 0000 0886                 stop(10);
000fb4 e0ea      	LDI  R30,LOW(10)
000fb5 93ea      	ST   -Y,R30
000fb6 940e 076a 	CALL _stop
                 ; 0000 0887                 goto cekpoint41;
000fb8 c001      	RJMP _0x27E
                 ; 0000 0888         }
                 ; 0000 0889         goto cekpoint4;
                 _0x274:
000fb9 cfd6      	RJMP _0x273
                 ; 0000 088A 
                 ; 0000 088B         cekpoint41:
                 _0x27E:
                 ; 0000 088C 
                 ; 0000 088D         maju();
000fba 940e 18c8 	CALL SUBOPT_0x63
                 ; 0000 088E         displaySensorBit();
                 ; 0000 088F         scanBlackLine();
                 ; 0000 0890 
                 ; 0000 0891         if(!sKi)
000fbc fc31      	SBRC R3,1
000fbd c007      	RJMP _0x27F
                 ; 0000 0892         {
                 ; 0000 0893                 indikatorSudut();
000fbe d367      	RCALL _indikatorSudut
                 ; 0000 0894                 //MINPWM = 100;
                 ; 0000 0895                 while(!sKi)
                 _0x280:
000fbf fc31      	SBRC R3,1
000fc0 c003      	RJMP _0x282
                 ; 0000 0896                 {
                 ; 0000 0897                         maju();
000fc1 940e 18c8 	CALL SUBOPT_0x63
                 ; 0000 0898                         displaySensorBit();
                 ; 0000 0899                         scanBlackLine();
                 ; 0000 089A                 }
000fc3 cffb      	RJMP _0x280
                 _0x282:
                 ; 0000 089B                 goto cekpoint42;
000fc4 c001      	RJMP _0x283
                 ; 0000 089C         }
                 ; 0000 089D 
                 ; 0000 089E         goto cekpoint41;
                 _0x27F:
000fc5 cff4      	RJMP _0x27E
                 ; 0000 089F 
                 ; 0000 08A0         cekpoint42:
                 _0x283:
                 ; 0000 08A1 
                 ; 0000 08A2         maju();
000fc6 940e 18c8 	CALL SUBOPT_0x63
                 ; 0000 08A3         displaySensorBit();
                 ; 0000 08A4         scanBlackLine();
                 ; 0000 08A5         if(!sKi)
000fc8 fc31      	SBRC R3,1
000fc9 c007      	RJMP _0x284
                 ; 0000 08A6         {
                 ; 0000 08A7                 indikatorSudut();
000fca d35b      	RCALL _indikatorSudut
                 ; 0000 08A8                 //MINPWM = 110;
                 ; 0000 08A9                 while(!sKi)
                 _0x285:
000fcb fc31      	SBRC R3,1
000fcc c003      	RJMP _0x287
                 ; 0000 08AA                 {
                 ; 0000 08AB                         maju();
000fcd 940e 18c8 	CALL SUBOPT_0x63
                 ; 0000 08AC                         displaySensorBit();
                 ; 0000 08AD                         scanBlackLine();
                 ; 0000 08AE                 }
000fcf cffb      	RJMP _0x285
                 _0x287:
                 ; 0000 08AF                 goto cekpoint43;
000fd0 c001      	RJMP _0x288
                 ; 0000 08B0         }
                 ; 0000 08B1         goto cekpoint42;
                 _0x284:
000fd1 cff4      	RJMP _0x283
                 ; 0000 08B2 
                 ; 0000 08B3         cekpoint43:
                 _0x288:
                 ; 0000 08B4 
                 ; 0000 08B5         //maju();
                 ; 0000 08B6         displaySensorBit();
000fd2 940e 190d 	CALL SUBOPT_0x6F
                 ; 0000 08B7         scanBlackLine();
                 ; 0000 08B8         if(!sKi)
000fd4 fc31      	SBRC R3,1
000fd5 c007      	RJMP _0x289
                 ; 0000 08B9         {
                 ; 0000 08BA                 indikatorSudut();
000fd6 d34f      	RCALL _indikatorSudut
                 ; 0000 08BB                 //MINPWM = 120;
                 ; 0000 08BC                 while(!sKi)
                 _0x28A:
000fd7 fc31      	SBRC R3,1
000fd8 c003      	RJMP _0x28C
                 ; 0000 08BD                 {
                 ; 0000 08BE                         maju();
000fd9 940e 18c8 	CALL SUBOPT_0x63
                 ; 0000 08BF                         displaySensorBit();
                 ; 0000 08C0                         scanBlackLine();
                 ; 0000 08C1                 }
000fdb cffb      	RJMP _0x28A
                 _0x28C:
                 ; 0000 08C2                 goto cekpoint44;
000fdc c001      	RJMP _0x28D
                 ; 0000 08C3         }
                 ; 0000 08C4         goto cekpoint43;
                 _0x289:
000fdd cff4      	RJMP _0x288
                 ; 0000 08C5 
                 ; 0000 08C6         cekpoint44:
                 _0x28D:
                 ; 0000 08C7 
                 ; 0000 08C8         maju();
000fde 940e 18c8 	CALL SUBOPT_0x63
                 ; 0000 08C9         displaySensorBit();
                 ; 0000 08CA         scanBlackLine();
                 ; 0000 08CB         if(!sKi)
000fe0 fc31      	SBRC R3,1
000fe1 c007      	RJMP _0x28E
                 ; 0000 08CC         {
                 ; 0000 08CD                 indikatorSudut();
000fe2 d343      	RCALL _indikatorSudut
                 ; 0000 08CE                 //MINPWM = 130;
                 ; 0000 08CF                 while(!sKi)
                 _0x28F:
000fe3 fc31      	SBRC R3,1
000fe4 c003      	RJMP _0x291
                 ; 0000 08D0                 {
                 ; 0000 08D1                         maju();
000fe5 940e 18c8 	CALL SUBOPT_0x63
                 ; 0000 08D2                         displaySensorBit();
                 ; 0000 08D3                         scanBlackLine();
                 ; 0000 08D4                 }
000fe7 cffb      	RJMP _0x28F
                 _0x291:
                 ; 0000 08D5                 goto cekpoint45;
000fe8 c001      	RJMP _0x292
                 ; 0000 08D6         }
                 ; 0000 08D7         goto cekpoint44;
                 _0x28E:
000fe9 cff4      	RJMP _0x28D
                 ; 0000 08D8 
                 ; 0000 08D9         cekpoint45:
                 _0x292:
                 ; 0000 08DA 
                 ; 0000 08DB         maju();
000fea 940e 18c8 	CALL SUBOPT_0x63
                 ; 0000 08DC         displaySensorBit();
                 ; 0000 08DD         scanBlackLine();
                 ; 0000 08DE         if(!sKi)
000fec fc31      	SBRC R3,1
000fed c007      	RJMP _0x293
                 ; 0000 08DF         {
                 ; 0000 08E0                 indikatorSudut();
000fee d337      	RCALL _indikatorSudut
                 ; 0000 08E1                 //MINPWM = 140;
                 ; 0000 08E2                 while(!sKi)
                 _0x294:
000fef fc31      	SBRC R3,1
000ff0 c003      	RJMP _0x296
                 ; 0000 08E3                 {
                 ; 0000 08E4                         maju();
000ff1 940e 18c8 	CALL SUBOPT_0x63
                 ; 0000 08E5                         displaySensorBit();
                 ; 0000 08E6                         scanBlackLine();
                 ; 0000 08E7                 }
000ff3 cffb      	RJMP _0x294
                 _0x296:
                 ; 0000 08E8                 goto cekpoint5;
000ff4 c001      	RJMP _0x297
                 ; 0000 08E9         }
                 ; 0000 08EA         goto cekpoint45;
                 _0x293:
000ff5 cff4      	RJMP _0x292
                 ; 0000 08EB 
                 ; 0000 08EC         cekpoint5:
                 _0x297:
                 ; 0000 08ED         indikatorSudut();
                 _0x2080007:
000ff6 d32f      	RCALL _indikatorSudut
                 ; 0000 08EE }
000ff7 9508      	RET
                 ;
                 ;void cekPoint5a(void)
                 ; 0000 08F1 {
                 _cekPoint5a:
                 ; 0000 08F2         //cek point 5
                 ; 0000 08F3         MINPWM = _MINPWM + 5;
000ff8 940e 1926 	CALL SUBOPT_0x72
000ffa 9635      	ADIW R30,5
000ffb 940e 192b 	CALL SUBOPT_0x73
                 ; 0000 08F4         var_Kp = 11;
000ffd 940e 1911 	CALL SUBOPT_0x70
                 ; 0000 08F5         var_Ki = 0;
                 ; 0000 08F6         var_Kd = 7;
                 ; 0000 08F7 
                 ; 0000 08F8         cekpoint5:
                 _0x298:
                 ; 0000 08F9 
                 ; 0000 08FA         maju();
000fff 940e 075e 	CALL _maju
                 ; 0000 08FB         displaySensorBit();
001001 940e 0719 	CALL _displaySensorBit
                 ; 0000 08FC         if((MINPWM % 2) == 0)
001003 940e 189a 	CALL SUBOPT_0x5A
001005 e0e2      	LDI  R30,LOW(2)
001006 e0f0      	LDI  R31,HIGH(2)
001007 940e 1a29 	CALL __MODW21
001009 9730      	SBIW R30,0
00100a f409      	BRNE _0x299
                 ; 0000 08FD         {
                 ; 0000 08FE                 scanBlackLine();
00100b db73      	RCALL _scanBlackLine
                 ; 0000 08FF         }
                 ; 0000 0900         MINPWM = MINPWM + 2;
                 _0x299:
00100c 940e 1877 	CALL SUBOPT_0x54
00100e 9632      	ADIW R30,2
00100f 940e 192b 	CALL SUBOPT_0x73
                 ; 0000 0901         if(sensor==255)
001011 efef      	LDI  R30,LOW(255)
001012 15e6      	CP   R30,R6
001013 f449      	BRNE _0x29A
                 ; 0000 0902         {
                 ; 0000 0903                 rotkan();
001014 940e 0780 	CALL _rotkan
                 ; 0000 0904                 indikatorPerempatan();
001016 d310      	RCALL _indikatorPerempatan
                 ; 0000 0905                 stop(150);
001017 e9e6      	LDI  R30,LOW(150)
001018 93ea      	ST   -Y,R30
001019 940e 076a 	CALL _stop
                 ; 0000 0906                 indikatorPerempatan();
00101b d30b      	RCALL _indikatorPerempatan
                 ; 0000 0907                 goto exit;
00101c c001      	RJMP _0x29B
                 ; 0000 0908         }
                 ; 0000 0909         goto cekpoint5;
                 _0x29A:
00101d cfe1      	RJMP _0x298
                 ; 0000 090A 
                 ; 0000 090B         exit:
                 _0x29B:
                 ; 0000 090C }
00101e 9508      	RET
                 ;
                 ;void cekPointFinalA(void)
                 ; 0000 090F {
                 ; 0000 0910 }
                 ;
                 ;void strategiA(void)
                 ; 0000 0913 {
                 _strategiA:
                 ; 0000 0914         if(NoStrategi < 2)      goto level_1a;
00101f 940e 1930 	CALL SUBOPT_0x74
001021 30e2      	CPI  R30,LOW(0x2)
001022 f0a0      	BRLO _0x29D
                 ; 0000 0915         else if(NoStrategi < 3) goto level_2a;
001023 940e 1930 	CALL SUBOPT_0x74
001025 30e3      	CPI  R30,LOW(0x3)
001026 f1c8      	BRLO _0x2A0
                 ; 0000 0916         else if(NoStrategi < 4) goto level_3a;
001027 940e 1930 	CALL SUBOPT_0x74
001029 30e4      	CPI  R30,LOW(0x4)
00102a f408      	BRSH _0x2A2
00102b c05c      	RJMP _0x2A3
                 ; 0000 0917         else if(NoStrategi < 5) goto level_4a;
                 _0x2A2:
00102c 940e 1930 	CALL SUBOPT_0x74
00102e 30e5      	CPI  R30,LOW(0x5)
00102f f408      	BRSH _0x2A5
001030 c080      	RJMP _0x2A6
                 ; 0000 0918 
                 ; 0000 0919         else if(NoStrategi < 6) goto level_5a;
                 _0x2A5:
001031 940e 1930 	CALL SUBOPT_0x74
001033 30e6      	CPI  R30,LOW(0x6)
001034 f408      	BRSH _0x2A8
001035 c0a3      	RJMP _0x2A9
                 ; 0000 091A         else                    goto level_6a;
                 _0x2A8:
001036 c0ca      	RJMP _0x2AB
                 ; 0000 091B 
                 ; 0000 091C         level_1a:
                 _0x29D:
                 ; 0000 091D 
                 ; 0000 091E         backlight = 1;
001037 940e 1935 	CALL SUBOPT_0x75
                 ; 0000 091F         NoStrategi = 1;
                 ; 0000 0920         delay_ms(50);
                 ; 0000 0921         lcd_clear();
001039 940e 1697 	CALL SUBOPT_0x8
                 ; 0000 0922         lcd_gotoxy(0,0);
                 ; 0000 0923         lcd_putsf(" Skenario-StartA");
                +
00103b e2e6     +LDI R30 , LOW ( 2 * _0x0 + ( 694 ) )
00103c e0f3     +LDI R31 , HIGH ( 2 * _0x0 + ( 694 ) )
                 	__POINTW1FN _0x0,694
00103d 940e 1688 	CALL SUBOPT_0x5
                 ; 0000 0924         lcd_gotoxy(0,1);
00103f 940e 16a0 	CALL SUBOPT_0xA
                 ; 0000 0925         lcd_putsf("  OK ?");
001041 940e 193e 	CALL SUBOPT_0x76
                 ; 0000 0926         lcd_gotoxy(0,0);
001043 940e 1683 	CALL SUBOPT_0x4
                 ; 0000 0927         lcd_putchar(0);
001045 940e 16b4 	CALL SUBOPT_0xD
                 ; 0000 0928 
                 ; 0000 0929         if(!sw_up)
001047 9984      	SBIC 0x10,4
001048 c003      	RJMP _0x2AE
                 ; 0000 092A         {
                 ; 0000 092B                 delay_ms(150);
001049 940e 169a 	CALL SUBOPT_0x9
                 ; 0000 092C                 goto level_6a;
00104b c0b5      	RJMP _0x2AB
                 ; 0000 092D         }
                 ; 0000 092E         if(!sw_down)
                 _0x2AE:
00104c 9986      	SBIC 0x10,6
00104d c003      	RJMP _0x2AF
                 ; 0000 092F         {
                 ; 0000 0930                 delay_ms(150);
00104e 940e 169a 	CALL SUBOPT_0x9
                 ; 0000 0931                 goto level_2a;
001050 c00f      	RJMP _0x2A0
                 ; 0000 0932         }
                 ; 0000 0933         if(!sw_ok)
                 _0x2AF:
001051 9985      	SBIC 0x10,5
001052 c007      	RJMP _0x2B0
                 ; 0000 0934         {
                 ; 0000 0935                 delay_ms(250);
001053 940e 1941 	CALL SUBOPT_0x77
                 ; 0000 0936                 backlight = 0;
001055 98c3      	CBI  0x18,3
                 ; 0000 0937 
                 ; 0000 0938                 cekPointStarta();
001056 dd33      	RCALL _cekPointStarta
                 ; 0000 0939                 cekPoint1a();
001057 940e 1944 	CALL SUBOPT_0x78
                 ; 0000 093A                 cekPoint2a();
                 ; 0000 093B                 cekPoint3a();
                 ; 0000 093C                 cekPoint4a();
                 ; 0000 093D                 cekPoint5a();
                 ; 0000 093E 
                 ; 0000 093F                 goto exit_strategi;
001059 c0ce      	RJMP _0x2B3
                 ; 0000 0940         }
                 ; 0000 0941         if(!sw_cancel)
                 _0x2B0:
00105a 9983      	SBIC 0x10,3
00105b c003      	RJMP _0x2B4
                 ; 0000 0942         {
                 ; 0000 0943                 delay_ms(250);
00105c 940e 1941 	CALL SUBOPT_0x77
                 ; 0000 0944                 goto exit_strategi;
00105e c0c9      	RJMP _0x2B3
                 ; 0000 0945         }
                 ; 0000 0946 
                 ; 0000 0947         goto level_1a;
                 _0x2B4:
00105f cfd7      	RJMP _0x29D
                 ; 0000 0948 
                 ; 0000 0949         level_2a:
                 _0x2A0:
                 ; 0000 094A 
                 ; 0000 094B         backlight = 1;
001060 940e 194e 	CALL SUBOPT_0x79
                 ; 0000 094C         NoStrategi = 2;
                 ; 0000 094D         delay_ms(50);
                 ; 0000 094E         lcd_clear();
001062 940e 1697 	CALL SUBOPT_0x8
                 ; 0000 094F         lcd_gotoxy(0,0);
                 ; 0000 0950         lcd_putsf("  Skenario-1A");
                +
001064 e3ee     +LDI R30 , LOW ( 2 * _0x0 + ( 718 ) )
001065 e0f3     +LDI R31 , HIGH ( 2 * _0x0 + ( 718 ) )
                 	__POINTW1FN _0x0,718
001066 940e 1688 	CALL SUBOPT_0x5
                 ; 0000 0951         lcd_gotoxy(0,1);
001068 940e 16a0 	CALL SUBOPT_0xA
                 ; 0000 0952         lcd_putsf("  OK ?");
00106a 940e 193e 	CALL SUBOPT_0x76
                 ; 0000 0953         lcd_gotoxy(0,0);
00106c 940e 1683 	CALL SUBOPT_0x4
                 ; 0000 0954         lcd_putchar(0);
00106e 940e 16b4 	CALL SUBOPT_0xD
                 ; 0000 0955 
                 ; 0000 0956         if(!sw_up)
001070 9984      	SBIC 0x10,4
001071 c003      	RJMP _0x2B7
                 ; 0000 0957         {
                 ; 0000 0958                 delay_ms(150);
001072 940e 169a 	CALL SUBOPT_0x9
                 ; 0000 0959                 goto level_1a;
001074 cfc2      	RJMP _0x29D
                 ; 0000 095A         }
                 ; 0000 095B         if(!sw_down)
                 _0x2B7:
001075 9986      	SBIC 0x10,6
001076 c003      	RJMP _0x2B8
                 ; 0000 095C         {
                 ; 0000 095D                 delay_ms(150);
001077 940e 169a 	CALL SUBOPT_0x9
                 ; 0000 095E                 goto level_3a;
001079 c00e      	RJMP _0x2A3
                 ; 0000 095F         }
                 ; 0000 0960          if(!sw_ok)
                 _0x2B8:
00107a 9985      	SBIC 0x10,5
00107b c006      	RJMP _0x2B9
                 ; 0000 0961         {
                 ; 0000 0962                 delay_ms(250);
00107c 940e 1941 	CALL SUBOPT_0x77
                 ; 0000 0963                 backlight = 0;
00107e 98c3      	CBI  0x18,3
                 ; 0000 0964 
                 ; 0000 0965                 cekPoint1a();
00107f 940e 1944 	CALL SUBOPT_0x78
                 ; 0000 0966                 cekPoint2a();
                 ; 0000 0967                 cekPoint3a();
                 ; 0000 0968                 cekPoint4a();
                 ; 0000 0969                 cekPoint5a();
                 ; 0000 096A 
                 ; 0000 096B                 goto exit_strategi;
001081 c0a6      	RJMP _0x2B3
                 ; 0000 096C         }
                 ; 0000 096D         if(!sw_cancel)
                 _0x2B9:
001082 9983      	SBIC 0x10,3
001083 c003      	RJMP _0x2BC
                 ; 0000 096E         {
                 ; 0000 096F                 delay_ms(250);
001084 940e 1941 	CALL SUBOPT_0x77
                 ; 0000 0970                 goto exit_strategi;
001086 c0a1      	RJMP _0x2B3
                 ; 0000 0971         }
                 ; 0000 0972         goto level_2a;
                 _0x2BC:
001087 cfd8      	RJMP _0x2A0
                 ; 0000 0973 
                 ; 0000 0974         level_3a:
                 _0x2A3:
                 ; 0000 0975 
                 ; 0000 0976         backlight = 1;
001088 940e 1957 	CALL SUBOPT_0x7A
                 ; 0000 0977         NoStrategi = 3;
                 ; 0000 0978         delay_ms(50);
                 ; 0000 0979         lcd_clear();
00108a 940e 1697 	CALL SUBOPT_0x8
                 ; 0000 097A         lcd_gotoxy(0,0);
                 ; 0000 097B         lcd_putsf("  Skenario-2A");
                +
00108c e4ec     +LDI R30 , LOW ( 2 * _0x0 + ( 732 ) )
00108d e0f3     +LDI R31 , HIGH ( 2 * _0x0 + ( 732 ) )
                 	__POINTW1FN _0x0,732
00108e 940e 1688 	CALL SUBOPT_0x5
                 ; 0000 097C         lcd_gotoxy(0,1);
001090 940e 16a0 	CALL SUBOPT_0xA
                 ; 0000 097D         lcd_putsf("  OK ?");
001092 940e 193e 	CALL SUBOPT_0x76
                 ; 0000 097E         lcd_gotoxy(0,0);
001094 940e 1683 	CALL SUBOPT_0x4
                 ; 0000 097F         lcd_putchar(0);
001096 940e 16b4 	CALL SUBOPT_0xD
                 ; 0000 0980 
                 ; 0000 0981         if(!sw_up)
001098 9984      	SBIC 0x10,4
001099 c003      	RJMP _0x2BF
                 ; 0000 0982         {
                 ; 0000 0983                 delay_ms(150);
00109a 940e 169a 	CALL SUBOPT_0x9
                 ; 0000 0984                 goto level_2a;
00109c cfc3      	RJMP _0x2A0
                 ; 0000 0985         }
                 ; 0000 0986         if(!sw_down)
                 _0x2BF:
00109d 9986      	SBIC 0x10,6
00109e c003      	RJMP _0x2C0
                 ; 0000 0987         {
                 ; 0000 0988                 delay_ms(150);
00109f 940e 169a 	CALL SUBOPT_0x9
                 ; 0000 0989                 goto level_4a;
0010a1 c00f      	RJMP _0x2A6
                 ; 0000 098A         }
                 ; 0000 098B          if(!sw_ok)
                 _0x2C0:
0010a2 9985      	SBIC 0x10,5
0010a3 c007      	RJMP _0x2C1
                 ; 0000 098C         {
                 ; 0000 098D                 delay_ms(250);
0010a4 940e 1941 	CALL SUBOPT_0x77
                 ; 0000 098E                 backlight = 0;
0010a6 98c3      	CBI  0x18,3
                 ; 0000 098F 
                 ; 0000 0990                 cekPoint2a();
0010a7 ddd1      	RCALL _cekPoint2a
                 ; 0000 0991                 cekPoint3a();
0010a8 940e 1960 	CALL SUBOPT_0x7B
                 ; 0000 0992                 cekPoint4a();
                 ; 0000 0993                 cekPoint5a();
                 ; 0000 0994 
                 ; 0000 0995                 goto exit_strategi;
0010aa c07d      	RJMP _0x2B3
                 ; 0000 0996         }
                 ; 0000 0997         if(!sw_cancel)
                 _0x2C1:
0010ab 9983      	SBIC 0x10,3
0010ac c003      	RJMP _0x2C4
                 ; 0000 0998         {
                 ; 0000 0999                 delay_ms(250);
0010ad 940e 1941 	CALL SUBOPT_0x77
                 ; 0000 099A                 goto exit_strategi;
0010af c078      	RJMP _0x2B3
                 ; 0000 099B         }
                 ; 0000 099C         goto level_3a;
                 _0x2C4:
0010b0 cfd7      	RJMP _0x2A3
                 ; 0000 099D 
                 ; 0000 099E         level_4a:
                 _0x2A6:
                 ; 0000 099F 
                 ; 0000 09A0         backlight = 1;
0010b1 940e 1966 	CALL SUBOPT_0x7C
                 ; 0000 09A1         NoStrategi = 4;
                 ; 0000 09A2         delay_ms(50);
                 ; 0000 09A3         lcd_clear();
0010b3 940e 1697 	CALL SUBOPT_0x8
                 ; 0000 09A4         lcd_gotoxy(0,0);
                 ; 0000 09A5         lcd_putsf("  Skenario-3A");
                +
0010b5 e5ea     +LDI R30 , LOW ( 2 * _0x0 + ( 746 ) )
0010b6 e0f3     +LDI R31 , HIGH ( 2 * _0x0 + ( 746 ) )
                 	__POINTW1FN _0x0,746
0010b7 940e 1688 	CALL SUBOPT_0x5
                 ; 0000 09A6         lcd_gotoxy(0,1);
0010b9 940e 16a0 	CALL SUBOPT_0xA
                 ; 0000 09A7         lcd_putsf("  OK ?");
0010bb 940e 193e 	CALL SUBOPT_0x76
                 ; 0000 09A8         lcd_gotoxy(0,0);
0010bd 940e 1683 	CALL SUBOPT_0x4
                 ; 0000 09A9         lcd_putchar(0);
0010bf 940e 16b4 	CALL SUBOPT_0xD
                 ; 0000 09AA 
                 ; 0000 09AB         if(!sw_up)
0010c1 9984      	SBIC 0x10,4
0010c2 c003      	RJMP _0x2C7
                 ; 0000 09AC         {
                 ; 0000 09AD                 delay_ms(150);
0010c3 940e 169a 	CALL SUBOPT_0x9
                 ; 0000 09AE                 goto level_3a;
0010c5 cfc2      	RJMP _0x2A3
                 ; 0000 09AF         }
                 ; 0000 09B0         if(!sw_down)
                 _0x2C7:
0010c6 9986      	SBIC 0x10,6
0010c7 c003      	RJMP _0x2C8
                 ; 0000 09B1         {
                 ; 0000 09B2                 delay_ms(150);
0010c8 940e 169a 	CALL SUBOPT_0x9
                 ; 0000 09B3                 goto level_5a;
0010ca c00e      	RJMP _0x2A9
                 ; 0000 09B4         }
                 ; 0000 09B5          if(!sw_ok)
                 _0x2C8:
0010cb 9985      	SBIC 0x10,5
0010cc c006      	RJMP _0x2C9
                 ; 0000 09B6         {
                 ; 0000 09B7                 delay_ms(250);
0010cd 940e 1941 	CALL SUBOPT_0x77
                 ; 0000 09B8                 backlight = 0;
0010cf 98c3      	CBI  0x18,3
                 ; 0000 09B9 
                 ; 0000 09BA                 cekPoint3a();
0010d0 940e 1960 	CALL SUBOPT_0x7B
                 ; 0000 09BB                 cekPoint4a();
                 ; 0000 09BC                 cekPoint5a();
                 ; 0000 09BD 
                 ; 0000 09BE                 goto exit_strategi;
0010d2 c055      	RJMP _0x2B3
                 ; 0000 09BF         }
                 ; 0000 09C0         if(!sw_cancel)
                 _0x2C9:
0010d3 9983      	SBIC 0x10,3
0010d4 c003      	RJMP _0x2CC
                 ; 0000 09C1         {
                 ; 0000 09C2                 delay_ms(250);
0010d5 940e 1941 	CALL SUBOPT_0x77
                 ; 0000 09C3                 goto exit_strategi;
0010d7 c050      	RJMP _0x2B3
                 ; 0000 09C4         }
                 ; 0000 09C5         goto level_4a;
                 _0x2CC:
0010d8 cfd8      	RJMP _0x2A6
                 ; 0000 09C6 
                 ; 0000 09C7         level_5a:
                 _0x2A9:
                 ; 0000 09C8 
                 ; 0000 09C9         backlight = 1;
0010d9 940e 196f 	CALL SUBOPT_0x7D
                 ; 0000 09CA         NoStrategi = 5;
                 ; 0000 09CB         delay_ms(50);
                 ; 0000 09CC         lcd_clear();
0010db 940e 1697 	CALL SUBOPT_0x8
                 ; 0000 09CD         lcd_gotoxy(0,0);
                 ; 0000 09CE         lcd_putsf("  Skenario-4A");
                +
0010dd e6e8     +LDI R30 , LOW ( 2 * _0x0 + ( 760 ) )
0010de e0f3     +LDI R31 , HIGH ( 2 * _0x0 + ( 760 ) )
                 	__POINTW1FN _0x0,760
0010df 940e 1688 	CALL SUBOPT_0x5
                 ; 0000 09CF         lcd_gotoxy(0,1);
0010e1 940e 16a0 	CALL SUBOPT_0xA
                 ; 0000 09D0         lcd_putsf("  OK ?");
0010e3 940e 193e 	CALL SUBOPT_0x76
                 ; 0000 09D1         lcd_gotoxy(0,0);
0010e5 940e 1683 	CALL SUBOPT_0x4
                 ; 0000 09D2         lcd_putchar(0);
0010e7 940e 16b4 	CALL SUBOPT_0xD
                 ; 0000 09D3 
                 ; 0000 09D4         if(!sw_up)
0010e9 9984      	SBIC 0x10,4
0010ea c003      	RJMP _0x2CF
                 ; 0000 09D5         {
                 ; 0000 09D6                 delay_ms(150);
0010eb 940e 169a 	CALL SUBOPT_0x9
                 ; 0000 09D7                 goto level_4a;
0010ed cfc3      	RJMP _0x2A6
                 ; 0000 09D8         }
                 ; 0000 09D9         if(!sw_down)
                 _0x2CF:
0010ee 9986      	SBIC 0x10,6
0010ef c003      	RJMP _0x2D0
                 ; 0000 09DA         {
                 ; 0000 09DB                 delay_ms(150);
0010f0 940e 169a 	CALL SUBOPT_0x9
                 ; 0000 09DC                 goto level_6a;
0010f2 c00e      	RJMP _0x2AB
                 ; 0000 09DD         }
                 ; 0000 09DE          if(!sw_ok)
                 _0x2D0:
0010f3 9985      	SBIC 0x10,5
0010f4 c006      	RJMP _0x2D1
                 ; 0000 09DF         {
                 ; 0000 09E0                 delay_ms(250);
0010f5 940e 1941 	CALL SUBOPT_0x77
                 ; 0000 09E1                 backlight = 0;
0010f7 98c3      	CBI  0x18,3
                 ; 0000 09E2 
                 ; 0000 09E3                 cekPoint4a();
0010f8 de90      	RCALL _cekPoint4a
                 ; 0000 09E4                 cekPoint5a();
0010f9 defe      	RCALL _cekPoint5a
                 ; 0000 09E5 
                 ; 0000 09E6                 goto exit_strategi;
0010fa c02d      	RJMP _0x2B3
                 ; 0000 09E7         }
                 ; 0000 09E8         if(!sw_cancel)
                 _0x2D1:
0010fb 9983      	SBIC 0x10,3
0010fc c003      	RJMP _0x2D4
                 ; 0000 09E9         {
                 ; 0000 09EA                 delay_ms(250);
0010fd 940e 1941 	CALL SUBOPT_0x77
                 ; 0000 09EB                 goto exit_strategi;
0010ff c028      	RJMP _0x2B3
                 ; 0000 09EC         }
                 ; 0000 09ED         goto level_5a;
                 _0x2D4:
001100 cfd8      	RJMP _0x2A9
                 ; 0000 09EE 
                 ; 0000 09EF         level_6a:
                 _0x2AB:
                 ; 0000 09F0 
                 ; 0000 09F1         backlight = 1;
001101 940e 1978 	CALL SUBOPT_0x7E
                 ; 0000 09F2         NoStrategi = 6;
                 ; 0000 09F3         delay_ms(50);
                 ; 0000 09F4         lcd_clear();
001103 940e 1697 	CALL SUBOPT_0x8
                 ; 0000 09F5         lcd_gotoxy(0,0);
                 ; 0000 09F6         lcd_putsf("  Skenario-5A");
                +
001105 e7e6     +LDI R30 , LOW ( 2 * _0x0 + ( 774 ) )
001106 e0f3     +LDI R31 , HIGH ( 2 * _0x0 + ( 774 ) )
                 	__POINTW1FN _0x0,774
001107 940e 1688 	CALL SUBOPT_0x5
                 ; 0000 09F7         lcd_gotoxy(0,1);
001109 940e 16a0 	CALL SUBOPT_0xA
                 ; 0000 09F8         lcd_putsf("  OK ?");
00110b 940e 193e 	CALL SUBOPT_0x76
                 ; 0000 09F9         lcd_gotoxy(0,0);
00110d 940e 1683 	CALL SUBOPT_0x4
                 ; 0000 09FA         lcd_putchar(0);
00110f 940e 16b4 	CALL SUBOPT_0xD
                 ; 0000 09FB 
                 ; 0000 09FC         if(!sw_up)
001111 9984      	SBIC 0x10,4
001112 c003      	RJMP _0x2D7
                 ; 0000 09FD         {
                 ; 0000 09FE                 delay_ms(150);
001113 940e 169a 	CALL SUBOPT_0x9
                 ; 0000 09FF                 goto level_5a;
001115 cfc3      	RJMP _0x2A9
                 ; 0000 0A00         }
                 ; 0000 0A01         if(!sw_down)
                 _0x2D7:
001116 9986      	SBIC 0x10,6
001117 c003      	RJMP _0x2D8
                 ; 0000 0A02         {
                 ; 0000 0A03                 delay_ms(150);
001118 940e 169a 	CALL SUBOPT_0x9
                 ; 0000 0A04                 goto level_1a;
00111a cf1c      	RJMP _0x29D
                 ; 0000 0A05         }
                 ; 0000 0A06          if(!sw_ok)
                 _0x2D8:
00111b 9985      	SBIC 0x10,5
00111c c005      	RJMP _0x2D9
                 ; 0000 0A07         {
                 ; 0000 0A08                 delay_ms(250);
00111d 940e 1941 	CALL SUBOPT_0x77
                 ; 0000 0A09                 backlight = 0;
00111f 98c3      	CBI  0x18,3
                 ; 0000 0A0A 
                 ; 0000 0A0B                 cekPoint5a();
001120 ded7      	RCALL _cekPoint5a
                 ; 0000 0A0C 
                 ; 0000 0A0D                 goto exit_strategi;
001121 c006      	RJMP _0x2B3
                 ; 0000 0A0E         }
                 ; 0000 0A0F         if(!sw_cancel)
                 _0x2D9:
001122 9983      	SBIC 0x10,3
001123 c003      	RJMP _0x2DC
                 ; 0000 0A10         {
                 ; 0000 0A11                 delay_ms(250);
001124 940e 1941 	CALL SUBOPT_0x77
                 ; 0000 0A12                 goto exit_strategi;
001126 c001      	RJMP _0x2B3
                 ; 0000 0A13         }
                 ; 0000 0A14         goto level_6a;
                 _0x2DC:
001127 cfd9      	RJMP _0x2AB
                 ; 0000 0A15 
                 ; 0000 0A16         exit_strategi:
                 _0x2B3:
                 ; 0000 0A17         backlight = 0;
001128 c20b      	RJMP _0x2080006
                 ; 0000 0A18 }
                 ;
                 ;// strategi track B penyisihan, warna : biru , kuning
                 ;
                 ;void cekPointStartb(void)
                 ; 0000 0A1D {
                 _cekPointStartb:
                 ; 0000 0A1E         start1:
                 _0x2DF:
                 ; 0000 0A1F 
                 ; 0000 0A20         maju();
001129 940e 18c8 	CALL SUBOPT_0x63
                 ; 0000 0A21         displaySensorBit();
                 ; 0000 0A22         scanBlackLine();
                 ; 0000 0A23         if((!sKi) && (sensor==255))
00112b fc31      	SBRC R3,1
00112c c003      	RJMP _0x2E1
00112d efef      	LDI  R30,LOW(255)
00112e 15e6      	CP   R30,R6
00112f f009      	BREQ _0x2E2
                 _0x2E1:
001130 c017      	RJMP _0x2E0
                 _0x2E2:
                 ; 0000 0A24         {
                 ; 0000 0A25                 stop(5);
001131 940e 18c4 	CALL SUBOPT_0x62
                 ; 0000 0A26                 indikatorPerempatan();
001133 d1f3      	RCALL _indikatorPerempatan
                 ; 0000 0A27 
                 ; 0000 0A28                 while((sensor!=0b11100111)&&(sensor!=0b11101111)&&(sensor!=0b11110111))
                 _0x2E3:
001134 eee7      	LDI  R30,LOW(231)
001135 15e6      	CP   R30,R6
001136 f031      	BREQ _0x2E6
001137 eeef      	LDI  R30,LOW(239)
001138 15e6      	CP   R30,R6
001139 f019      	BREQ _0x2E6
00113a efe7      	LDI  R30,LOW(247)
00113b 15e6      	CP   R30,R6
00113c f409      	BRNE _0x2E7
                 _0x2E6:
00113d c007      	RJMP _0x2E5
                 _0x2E7:
                 ; 0000 0A29                 {
                 ; 0000 0A2A                         baca_sensor();
00113e 940e 18ce 	CALL SUBOPT_0x64
                 ; 0000 0A2B                         lpwm=MAXPWM/2;
001140 940e 18bb 	CALL SUBOPT_0x5F
                 ; 0000 0A2C                         rpwm=MAXPWM/2;
001142 940e 18d7 	CALL SUBOPT_0x67
                 ; 0000 0A2D                         rotkan();
                 ; 0000 0A2E                 }
001144 cfef      	RJMP _0x2E3
                 _0x2E5:
                 ; 0000 0A2F 
                 ; 0000 0A30                 stop(5);
001145 940e 18c4 	CALL SUBOPT_0x62
                 ; 0000 0A31                 goto cekpoint11;
001147 c002      	RJMP _0x2E8
                 ; 0000 0A32         }
                 ; 0000 0A33         scanSudut();
                 _0x2E0:
001148 dc1c      	RCALL _scanSudut
                 ; 0000 0A34         goto start1;
001149 cfdf      	RJMP _0x2DF
                 ; 0000 0A35 
                 ; 0000 0A36         cekpoint11:
                 _0x2E8:
                 ; 0000 0A37 }
00114a 9508      	RET
                 ;
                 ;void cekPoint1b(void)
                 ; 0000 0A3A {
                 _cekPoint1b:
                 ; 0000 0A3B         //cek point 1
                 ; 0000 0A3C         cekpoint11:
                 _0x2E9:
                 ; 0000 0A3D 
                 ; 0000 0A3E         maju();
00114b 940e 18c8 	CALL SUBOPT_0x63
                 ; 0000 0A3F         displaySensorBit();
                 ; 0000 0A40         scanBlackLine();
                 ; 0000 0A41 
                 ; 0000 0A42         if((!sKa)&&(sensor==255))
00114d fc30      	SBRC R3,0
00114e c003      	RJMP _0x2EB
00114f efef      	LDI  R30,LOW(255)
001150 15e6      	CP   R30,R6
001151 f009      	BREQ _0x2EC
                 _0x2EB:
001152 c024      	RJMP _0x2EA
                 _0x2EC:
                 ; 0000 0A43         {
                 ; 0000 0A44                 indikatorSudut();
001153 940e 18d4 	CALL SUBOPT_0x66
                 ; 0000 0A45                 stop(5);
                 ; 0000 0A46 
                 ; 0000 0A47                 while(sensor==255)
                 _0x2ED:
001155 efef      	LDI  R30,LOW(255)
001156 15e6      	CP   R30,R6
001157 f4e1      	BRNE _0x2EF
                 ; 0000 0A48                 {
                 ; 0000 0A49                         baca_sensor();
001158 940e 18ce 	CALL SUBOPT_0x64
                 ; 0000 0A4A                         lpwm=MAXPWM / 2;
00115a 940e 18bb 	CALL SUBOPT_0x5F
                 ; 0000 0A4B                         rpwm=MAXPWM / 2;
00115c 940e 18d7 	CALL SUBOPT_0x67
                 ; 0000 0A4C                         rotkan();
                 ; 0000 0A4D                         if(!sKi)
00115e fc31      	SBRC R3,1
00115f c013      	RJMP _0x2F0
                 ; 0000 0A4E                         {
                 ; 0000 0A4F                                 indikatorPerempatan();
001160 940e 18da 	CALL SUBOPT_0x68
                 ; 0000 0A50                                 stop(5);
                 ; 0000 0A51 
                 ; 0000 0A52                                 while((sensor!=0b11100111)&&(sensor!=0b11101111)&&(sensor!=0b11110111))
                 _0x2F1:
001162 eee7      	LDI  R30,LOW(231)
001163 15e6      	CP   R30,R6
001164 f031      	BREQ _0x2F4
001165 eeef      	LDI  R30,LOW(239)
001166 15e6      	CP   R30,R6
001167 f019      	BREQ _0x2F4
001168 efe7      	LDI  R30,LOW(247)
001169 15e6      	CP   R30,R6
00116a f409      	BRNE _0x2F5
                 _0x2F4:
00116b c007      	RJMP _0x2F3
                 _0x2F5:
                 ; 0000 0A53                                 {
                 ; 0000 0A54                                         baca_sensor();
00116c 940e 18ce 	CALL SUBOPT_0x64
                 ; 0000 0A55                                         lpwm=MAXPWM/2;
00116e 940e 18bb 	CALL SUBOPT_0x5F
                 ; 0000 0A56                                         rpwm=MAXPWM/2;
001170 940e 18d1 	CALL SUBOPT_0x65
                 ; 0000 0A57                                         rotkir();
                 ; 0000 0A58                                 }
001172 cfef      	RJMP _0x2F1
                 _0x2F3:
                 ; 0000 0A59                         }
                 ; 0000 0A5A                 }
                 _0x2F0:
001173 cfe1      	RJMP _0x2ED
                 _0x2EF:
                 ; 0000 0A5B                 stop(5);
001174 940e 18c4 	CALL SUBOPT_0x62
                 ; 0000 0A5C                 goto cekpoint12;
001176 c02d      	RJMP _0x2F6
                 ; 0000 0A5D         }
                 ; 0000 0A5E 
                 ; 0000 0A5F         if((!sKi)&&(sensor==255))
                 _0x2EA:
001177 fc31      	SBRC R3,1
001178 c003      	RJMP _0x2F8
001179 efef      	LDI  R30,LOW(255)
00117a 15e6      	CP   R30,R6
00117b f009      	BREQ _0x2F9
                 _0x2F8:
00117c c026      	RJMP _0x2F7
                 _0x2F9:
                 ; 0000 0A60         {
                 ; 0000 0A61                 indikatorSudut();
00117d 940e 18d4 	CALL SUBOPT_0x66
                 ; 0000 0A62                 stop(5);
                 ; 0000 0A63 
                 ; 0000 0A64                 baca_sensor();
00117f 940e 067c 	CALL _baca_sensor
                 ; 0000 0A65                 while(sensor==255)
                 _0x2FA:
001181 efef      	LDI  R30,LOW(255)
001182 15e6      	CP   R30,R6
001183 f4e1      	BRNE _0x2FC
                 ; 0000 0A66                 {
                 ; 0000 0A67                         baca_sensor();
001184 940e 18ce 	CALL SUBOPT_0x64
                 ; 0000 0A68                         lpwm=MAXPWM / 2;
001186 940e 18bb 	CALL SUBOPT_0x5F
                 ; 0000 0A69                         rpwm=MAXPWM / 2;
001188 940e 18d1 	CALL SUBOPT_0x65
                 ; 0000 0A6A                         rotkir();
                 ; 0000 0A6B                         if(!sKa)
00118a fc30      	SBRC R3,0
00118b c013      	RJMP _0x2FD
                 ; 0000 0A6C                         {
                 ; 0000 0A6D                                 indikatorPerempatan();
00118c 940e 18da 	CALL SUBOPT_0x68
                 ; 0000 0A6E                                 stop(5);
                 ; 0000 0A6F 
                 ; 0000 0A70                                 while((sensor!=0b11100111)&&(sensor!=0b11101111)&&(sensor!=0b11110111))
                 _0x2FE:
00118e eee7      	LDI  R30,LOW(231)
00118f 15e6      	CP   R30,R6
001190 f031      	BREQ _0x301
001191 eeef      	LDI  R30,LOW(239)
001192 15e6      	CP   R30,R6
001193 f019      	BREQ _0x301
001194 efe7      	LDI  R30,LOW(247)
001195 15e6      	CP   R30,R6
001196 f409      	BRNE _0x302
                 _0x301:
001197 c007      	RJMP _0x300
                 _0x302:
                 ; 0000 0A71                                 {
                 ; 0000 0A72                                         baca_sensor();
001198 940e 18ce 	CALL SUBOPT_0x64
                 ; 0000 0A73                                         lpwm=MAXPWM/2;
00119a 940e 18bb 	CALL SUBOPT_0x5F
                 ; 0000 0A74                                         rpwm=MAXPWM/2;
00119c 940e 18d1 	CALL SUBOPT_0x65
                 ; 0000 0A75                                         rotkir();
                 ; 0000 0A76                                 }
00119e cfef      	RJMP _0x2FE
                 _0x300:
                 ; 0000 0A77                         }
                 ; 0000 0A78                 }
                 _0x2FD:
00119f cfe1      	RJMP _0x2FA
                 _0x2FC:
                 ; 0000 0A79                 stop(5);
0011a0 940e 18c4 	CALL SUBOPT_0x62
                 ; 0000 0A7A                 goto cekpoint12;
0011a2 c001      	RJMP _0x2F6
                 ; 0000 0A7B         }
                 ; 0000 0A7C         goto cekpoint11;
                 _0x2F7:
0011a3 cfa7      	RJMP _0x2E9
                 ; 0000 0A7D 
                 ; 0000 0A7E         cekpoint12:
                 _0x2F6:
                 ; 0000 0A7F 
                 ; 0000 0A80         maju();
0011a4 940e 18c8 	CALL SUBOPT_0x63
                 ; 0000 0A81         displaySensorBit();
                 ; 0000 0A82         scanBlackLine();
                 ; 0000 0A83         if((!sKa)&&(sensor==255))
0011a6 fc30      	SBRC R3,0
0011a7 c003      	RJMP _0x304
0011a8 efef      	LDI  R30,LOW(255)
0011a9 15e6      	CP   R30,R6
0011aa f009      	BREQ _0x305
                 _0x304:
0011ab c017      	RJMP _0x303
                 _0x305:
                 ; 0000 0A84         {
                 ; 0000 0A85                 stop(5);
0011ac 940e 18c4 	CALL SUBOPT_0x62
                 ; 0000 0A86                 indikatorPerempatan();
0011ae d178      	RCALL _indikatorPerempatan
                 ; 0000 0A87 
                 ; 0000 0A88                 while((sensor!=0b11100111)&&(sensor!=0b11101111)&&(sensor!=0b11110111))
                 _0x306:
0011af eee7      	LDI  R30,LOW(231)
0011b0 15e6      	CP   R30,R6
0011b1 f031      	BREQ _0x309
0011b2 eeef      	LDI  R30,LOW(239)
0011b3 15e6      	CP   R30,R6
0011b4 f019      	BREQ _0x309
0011b5 efe7      	LDI  R30,LOW(247)
0011b6 15e6      	CP   R30,R6
0011b7 f409      	BRNE _0x30A
                 _0x309:
0011b8 c007      	RJMP _0x308
                 _0x30A:
                 ; 0000 0A89                 {
                 ; 0000 0A8A                         baca_sensor();
0011b9 940e 18ce 	CALL SUBOPT_0x64
                 ; 0000 0A8B                         lpwm=MAXPWM/2;
0011bb 940e 18bb 	CALL SUBOPT_0x5F
                 ; 0000 0A8C                         rpwm=MAXPWM/2;
0011bd 940e 18d7 	CALL SUBOPT_0x67
                 ; 0000 0A8D                         rotkan();
                 ; 0000 0A8E                 }
0011bf cfef      	RJMP _0x306
                 _0x308:
                 ; 0000 0A8F 
                 ; 0000 0A90                 stop(5);
0011c0 940e 18c4 	CALL SUBOPT_0x62
                 ; 0000 0A91                 goto cekpoint13;
0011c2 c001      	RJMP _0x30B
                 ; 0000 0A92         }
                 ; 0000 0A93 
                 ; 0000 0A94         goto cekpoint12;
                 _0x303:
0011c3 cfe0      	RJMP _0x2F6
                 ; 0000 0A95 
                 ; 0000 0A96         cekpoint13:
                 _0x30B:
                 ; 0000 0A97 
                 ; 0000 0A98         maju();
0011c4 940e 18c8 	CALL SUBOPT_0x63
                 ; 0000 0A99         displaySensorBit();
                 ; 0000 0A9A         scanBlackLine();
                 ; 0000 0A9B         if((!sKa) && (sensor==255))
0011c6 fc30      	SBRC R3,0
0011c7 c003      	RJMP _0x30D
0011c8 efef      	LDI  R30,LOW(255)
0011c9 15e6      	CP   R30,R6
0011ca f009      	BREQ _0x30E
                 _0x30D:
0011cb c017      	RJMP _0x30C
                 _0x30E:
                 ; 0000 0A9C         {
                 ; 0000 0A9D                 stop(5);
0011cc 940e 18c4 	CALL SUBOPT_0x62
                 ; 0000 0A9E                 indikatorPerempatan();
0011ce d158      	RCALL _indikatorPerempatan
                 ; 0000 0A9F 
                 ; 0000 0AA0                 while((sensor!=0b11100111)&&(sensor!=0b11101111)&&(sensor!=0b11110111))
                 _0x30F:
0011cf eee7      	LDI  R30,LOW(231)
0011d0 15e6      	CP   R30,R6
0011d1 f031      	BREQ _0x312
0011d2 eeef      	LDI  R30,LOW(239)
0011d3 15e6      	CP   R30,R6
0011d4 f019      	BREQ _0x312
0011d5 efe7      	LDI  R30,LOW(247)
0011d6 15e6      	CP   R30,R6
0011d7 f409      	BRNE _0x313
                 _0x312:
0011d8 c007      	RJMP _0x311
                 _0x313:
                 ; 0000 0AA1                 {
                 ; 0000 0AA2                         baca_sensor();
0011d9 940e 18ce 	CALL SUBOPT_0x64
                 ; 0000 0AA3                         lpwm=MAXPWM/2;
0011db 940e 18bb 	CALL SUBOPT_0x5F
                 ; 0000 0AA4                         rpwm=MAXPWM/2;
0011dd 940e 18d1 	CALL SUBOPT_0x65
                 ; 0000 0AA5                         rotkir();
                 ; 0000 0AA6                 }
0011df cfef      	RJMP _0x30F
                 _0x311:
                 ; 0000 0AA7 
                 ; 0000 0AA8                 stop(5);
0011e0 940e 18c4 	CALL SUBOPT_0x62
                 ; 0000 0AA9                 goto cekpoint14;
0011e2 c002      	RJMP _0x314
                 ; 0000 0AAA         }
                 ; 0000 0AAB         scanSudut();
                 _0x30C:
0011e3 db81      	RCALL _scanSudut
                 ; 0000 0AAC         goto cekpoint13;
0011e4 cfdf      	RJMP _0x30B
                 ; 0000 0AAD 
                 ; 0000 0AAE         cekpoint14:
                 _0x314:
                 ; 0000 0AAF 
                 ; 0000 0AB0         maju();
0011e5 940e 18c8 	CALL SUBOPT_0x63
                 ; 0000 0AB1         displaySensorBit();
                 ; 0000 0AB2         scanBlackLine();
                 ; 0000 0AB3         if((!sKi)&&(!sKa)&&(sensor<255))
0011e7 fc31      	SBRC R3,1
0011e8 c005      	RJMP _0x316
0011e9 fc30      	SBRC R3,0
0011ea c003      	RJMP _0x316
0011eb efef      	LDI  R30,LOW(255)
0011ec 166e      	CP   R6,R30
0011ed f008      	BRLO _0x317
                 _0x316:
0011ee c021      	RJMP _0x315
                 _0x317:
                 ; 0000 0AB4         {
                 ; 0000 0AB5                 stop(5);
0011ef 940e 18c4 	CALL SUBOPT_0x62
                 ; 0000 0AB6                 indikatorPerempatan();
0011f1 d135      	RCALL _indikatorPerempatan
                 ; 0000 0AB7 
                 ; 0000 0AB8                 while(sensor<255)
                 _0x318:
0011f2 efef      	LDI  R30,LOW(255)
0011f3 166e      	CP   R6,R30
0011f4 f438      	BRSH _0x31A
                 ; 0000 0AB9                 {
                 ; 0000 0ABA                         baca_sensor();
0011f5 940e 18ce 	CALL SUBOPT_0x64
                 ; 0000 0ABB                         lpwm=MAXPWM/2;
0011f7 940e 18bb 	CALL SUBOPT_0x5F
                 ; 0000 0ABC                         rpwm=MAXPWM/2;
0011f9 940e 18d7 	CALL SUBOPT_0x67
                 ; 0000 0ABD                         rotkan();
                 ; 0000 0ABE                 }
0011fb cff6      	RJMP _0x318
                 _0x31A:
                 ; 0000 0ABF 
                 ; 0000 0AC0                 while((sensor!=0b11100111)&&(sensor!=0b11101111)&&(sensor!=0b11110111))
                 _0x31B:
0011fc eee7      	LDI  R30,LOW(231)
0011fd 15e6      	CP   R30,R6
0011fe f031      	BREQ _0x31E
0011ff eeef      	LDI  R30,LOW(239)
001200 15e6      	CP   R30,R6
001201 f019      	BREQ _0x31E
001202 efe7      	LDI  R30,LOW(247)
001203 15e6      	CP   R30,R6
001204 f409      	BRNE _0x31F
                 _0x31E:
001205 c007      	RJMP _0x31D
                 _0x31F:
                 ; 0000 0AC1                 {
                 ; 0000 0AC2                         baca_sensor();
001206 940e 18ce 	CALL SUBOPT_0x64
                 ; 0000 0AC3                         lpwm=MAXPWM/2;
001208 940e 18bb 	CALL SUBOPT_0x5F
                 ; 0000 0AC4                         rpwm=MAXPWM/2;
00120a 940e 18d7 	CALL SUBOPT_0x67
                 ; 0000 0AC5                         rotkan();
                 ; 0000 0AC6                 }
00120c cfef      	RJMP _0x31B
                 _0x31D:
                 ; 0000 0AC7 
                 ; 0000 0AC8                 stop(5);
00120d 940e 18c4 	CALL SUBOPT_0x62
                 ; 0000 0AC9                 goto cekpoint21;
00120f c001      	RJMP _0x320
                 ; 0000 0ACA         }
                 ; 0000 0ACB         goto cekpoint14;
                 _0x315:
001210 cfd4      	RJMP _0x314
                 ; 0000 0ACC 
                 ; 0000 0ACD         cekpoint21:
                 _0x320:
                 ; 0000 0ACE }
001211 9508      	RET
                 ;
                 ;void cekPoint2b(void)
                 ; 0000 0AD1 {
                 _cekPoint2b:
                 ; 0000 0AD2         //cek point 2
                 ; 0000 0AD3         for(;;)
                 _0x322:
                 ; 0000 0AD4         {
                 ; 0000 0AD5                 indikatorPerempatan();
001212 d114      	RCALL _indikatorPerempatan
                 ; 0000 0AD6         }
001213 cffe      	RJMP _0x322
                 ; 0000 0AD7 }
                 ;
                 ;void cekPoint3b(void)
                 ; 0000 0ADA {
                 _cekPoint3b:
                 ; 0000 0ADB         //cek point 3
                 ; 0000 0ADC         for(;;)
                 _0x325:
                 ; 0000 0ADD         {
                 ; 0000 0ADE                 indikatorPerempatan();
001214 d112      	RCALL _indikatorPerempatan
                 ; 0000 0ADF         }
001215 cffe      	RJMP _0x325
                 ; 0000 0AE0 }
                 ;
                 ;void cekPoint4b(void)
                 ; 0000 0AE3 {
                 _cekPoint4b:
                 ; 0000 0AE4         //cek point 4
                 ; 0000 0AE5         for(;;)
                 _0x328:
                 ; 0000 0AE6         {
                 ; 0000 0AE7                 indikatorPerempatan();
001216 d110      	RCALL _indikatorPerempatan
                 ; 0000 0AE8         }
001217 cffe      	RJMP _0x328
                 ; 0000 0AE9 }
                 ;
                 ;void cekPoint5b(void)
                 ; 0000 0AEC {
                 _cekPoint5b:
                 ; 0000 0AED         //cek point 5
                 ; 0000 0AEE         for(;;)
                 _0x32B:
                 ; 0000 0AEF         {
                 ; 0000 0AF0                 indikatorPerempatan();
001218 d10e      	RCALL _indikatorPerempatan
                 ; 0000 0AF1         }
001219 cffe      	RJMP _0x32B
                 ; 0000 0AF2 }
                 ;
                 ;void cekPointFinalB(void)
                 ; 0000 0AF5 {
                 ; 0000 0AF6 }
                 ;
                 ;void strategiB(void)
                 ; 0000 0AF9 {
                 _strategiB:
                 ; 0000 0AFA         if(NoStrategi < 2)      goto level_1b;
00121a 940e 1930 	CALL SUBOPT_0x74
00121c 30e2      	CPI  R30,LOW(0x2)
00121d f0a0      	BRLO _0x32E
                 ; 0000 0AFB         else if(NoStrategi < 3) goto level_2b;
00121e 940e 1930 	CALL SUBOPT_0x74
001220 30e3      	CPI  R30,LOW(0x3)
001221 f1c8      	BRLO _0x331
                 ; 0000 0AFC         else if(NoStrategi < 4) goto level_3b;
001222 940e 1930 	CALL SUBOPT_0x74
001224 30e4      	CPI  R30,LOW(0x4)
001225 f408      	BRSH _0x333
001226 c05c      	RJMP _0x334
                 ; 0000 0AFD         else if(NoStrategi < 5) goto level_4b;
                 _0x333:
001227 940e 1930 	CALL SUBOPT_0x74
001229 30e5      	CPI  R30,LOW(0x5)
00122a f408      	BRSH _0x336
00122b c080      	RJMP _0x337
                 ; 0000 0AFE 
                 ; 0000 0AFF         else if(NoStrategi < 6) goto level_5b;
                 _0x336:
00122c 940e 1930 	CALL SUBOPT_0x74
00122e 30e6      	CPI  R30,LOW(0x6)
00122f f408      	BRSH _0x339
001230 c0a3      	RJMP _0x33A
                 ; 0000 0B00         else                    goto level_6b;
                 _0x339:
001231 c0ca      	RJMP _0x33C
                 ; 0000 0B01 
                 ; 0000 0B02         level_1b:
                 _0x32E:
                 ; 0000 0B03 
                 ; 0000 0B04         backlight = 1;
001232 940e 1935 	CALL SUBOPT_0x75
                 ; 0000 0B05         NoStrategi = 1;
                 ; 0000 0B06         delay_ms(50);
                 ; 0000 0B07         lcd_clear();
001234 940e 1697 	CALL SUBOPT_0x8
                 ; 0000 0B08         lcd_gotoxy(0,0);
                 ; 0000 0B09         lcd_putsf(" Skenario-StartB");
                +
001236 e8e4     +LDI R30 , LOW ( 2 * _0x0 + ( 788 ) )
001237 e0f3     +LDI R31 , HIGH ( 2 * _0x0 + ( 788 ) )
                 	__POINTW1FN _0x0,788
001238 940e 1688 	CALL SUBOPT_0x5
                 ; 0000 0B0A         lcd_gotoxy(0,1);
00123a 940e 16a0 	CALL SUBOPT_0xA
                 ; 0000 0B0B         lcd_putsf("  OK ?");
00123c 940e 193e 	CALL SUBOPT_0x76
                 ; 0000 0B0C         lcd_gotoxy(0,0);
00123e 940e 1683 	CALL SUBOPT_0x4
                 ; 0000 0B0D         lcd_putchar(0);
001240 940e 16b4 	CALL SUBOPT_0xD
                 ; 0000 0B0E 
                 ; 0000 0B0F         if(!sw_up)
001242 9984      	SBIC 0x10,4
001243 c003      	RJMP _0x33F
                 ; 0000 0B10         {
                 ; 0000 0B11                 delay_ms(250);
001244 940e 1941 	CALL SUBOPT_0x77
                 ; 0000 0B12                 goto level_6b;
001246 c0b5      	RJMP _0x33C
                 ; 0000 0B13         }
                 ; 0000 0B14         if(!sw_down)
                 _0x33F:
001247 9986      	SBIC 0x10,6
001248 c003      	RJMP _0x340
                 ; 0000 0B15         {
                 ; 0000 0B16                 delay_ms(250);
001249 940e 1941 	CALL SUBOPT_0x77
                 ; 0000 0B17                 goto level_2b;
00124b c00f      	RJMP _0x331
                 ; 0000 0B18         }
                 ; 0000 0B19         if(!sw_ok)
                 _0x340:
00124c 9985      	SBIC 0x10,5
00124d c007      	RJMP _0x341
                 ; 0000 0B1A         {
                 ; 0000 0B1B                 delay_ms(250);
00124e 940e 1941 	CALL SUBOPT_0x77
                 ; 0000 0B1C                 backlight = 0;
001250 98c3      	CBI  0x18,3
                 ; 0000 0B1D 
                 ; 0000 0B1E                 cekPointStartb();
001251 ded7      	RCALL _cekPointStartb
                 ; 0000 0B1F                 cekPoint1b();
001252 940e 1981 	CALL SUBOPT_0x7F
                 ; 0000 0B20                 cekPoint2b();
                 ; 0000 0B21                 cekPoint3b();
                 ; 0000 0B22                 cekPoint4b();
                 ; 0000 0B23                 cekPoint5b();
                 ; 0000 0B24 
                 ; 0000 0B25                 goto exit_strategi;
001254 c0ce      	RJMP _0x344
                 ; 0000 0B26         }
                 ; 0000 0B27         if(!sw_cancel)
                 _0x341:
001255 9983      	SBIC 0x10,3
001256 c003      	RJMP _0x345
                 ; 0000 0B28         {
                 ; 0000 0B29                 delay_ms(250);
001257 940e 1941 	CALL SUBOPT_0x77
                 ; 0000 0B2A                 goto exit_strategi;
001259 c0c9      	RJMP _0x344
                 ; 0000 0B2B         }
                 ; 0000 0B2C 
                 ; 0000 0B2D         goto level_1b;
                 _0x345:
00125a cfd7      	RJMP _0x32E
                 ; 0000 0B2E 
                 ; 0000 0B2F         level_2b:
                 _0x331:
                 ; 0000 0B30 
                 ; 0000 0B31         backlight = 1;
00125b 940e 194e 	CALL SUBOPT_0x79
                 ; 0000 0B32         NoStrategi = 2;
                 ; 0000 0B33         delay_ms(50);
                 ; 0000 0B34         lcd_clear();
00125d 940e 1697 	CALL SUBOPT_0x8
                 ; 0000 0B35         lcd_gotoxy(0,0);
                 ; 0000 0B36         lcd_putsf("  Skenario-1B");
                +
00125f e9e5     +LDI R30 , LOW ( 2 * _0x0 + ( 805 ) )
001260 e0f3     +LDI R31 , HIGH ( 2 * _0x0 + ( 805 ) )
                 	__POINTW1FN _0x0,805
001261 940e 1688 	CALL SUBOPT_0x5
                 ; 0000 0B37         lcd_gotoxy(0,1);
001263 940e 16a0 	CALL SUBOPT_0xA
                 ; 0000 0B38         lcd_putsf("  OK ?");
001265 940e 193e 	CALL SUBOPT_0x76
                 ; 0000 0B39         lcd_gotoxy(0,0);
001267 940e 1683 	CALL SUBOPT_0x4
                 ; 0000 0B3A         lcd_putchar(0);
001269 940e 16b4 	CALL SUBOPT_0xD
                 ; 0000 0B3B 
                 ; 0000 0B3C         if(!sw_up)
00126b 9984      	SBIC 0x10,4
00126c c003      	RJMP _0x348
                 ; 0000 0B3D         {
                 ; 0000 0B3E                 delay_ms(250);
00126d 940e 1941 	CALL SUBOPT_0x77
                 ; 0000 0B3F                 goto level_1b;
00126f cfc2      	RJMP _0x32E
                 ; 0000 0B40         }
                 ; 0000 0B41         if(!sw_down)
                 _0x348:
001270 9986      	SBIC 0x10,6
001271 c003      	RJMP _0x349
                 ; 0000 0B42         {
                 ; 0000 0B43                 delay_ms(250);
001272 940e 1941 	CALL SUBOPT_0x77
                 ; 0000 0B44                 goto level_3b;
001274 c00e      	RJMP _0x334
                 ; 0000 0B45         }
                 ; 0000 0B46          if(!sw_ok)
                 _0x349:
001275 9985      	SBIC 0x10,5
001276 c006      	RJMP _0x34A
                 ; 0000 0B47         {
                 ; 0000 0B48                 delay_ms(250);
001277 940e 1941 	CALL SUBOPT_0x77
                 ; 0000 0B49                 backlight = 0;
001279 98c3      	CBI  0x18,3
                 ; 0000 0B4A 
                 ; 0000 0B4B                 cekPoint1b();
00127a 940e 1981 	CALL SUBOPT_0x7F
                 ; 0000 0B4C                 cekPoint2b();
                 ; 0000 0B4D                 cekPoint3b();
                 ; 0000 0B4E                 cekPoint4b();
                 ; 0000 0B4F                 cekPoint5b();
                 ; 0000 0B50 
                 ; 0000 0B51                 goto exit_strategi;
00127c c0a6      	RJMP _0x344
                 ; 0000 0B52         }
                 ; 0000 0B53         if(!sw_cancel)
                 _0x34A:
00127d 9983      	SBIC 0x10,3
00127e c003      	RJMP _0x34D
                 ; 0000 0B54         {
                 ; 0000 0B55                 delay_ms(250);
00127f 940e 1941 	CALL SUBOPT_0x77
                 ; 0000 0B56                 goto exit_strategi;
001281 c0a1      	RJMP _0x344
                 ; 0000 0B57         }
                 ; 0000 0B58         goto level_2b;
                 _0x34D:
001282 cfd8      	RJMP _0x331
                 ; 0000 0B59 
                 ; 0000 0B5A         level_3b:
                 _0x334:
                 ; 0000 0B5B 
                 ; 0000 0B5C         backlight = 1;
001283 940e 1957 	CALL SUBOPT_0x7A
                 ; 0000 0B5D         NoStrategi = 3;
                 ; 0000 0B5E         delay_ms(50);
                 ; 0000 0B5F         lcd_clear();
001285 940e 1697 	CALL SUBOPT_0x8
                 ; 0000 0B60         lcd_gotoxy(0,0);
                 ; 0000 0B61         lcd_putsf("  Skenario-2B");
                +
001287 eae3     +LDI R30 , LOW ( 2 * _0x0 + ( 819 ) )
001288 e0f3     +LDI R31 , HIGH ( 2 * _0x0 + ( 819 ) )
                 	__POINTW1FN _0x0,819
001289 940e 1688 	CALL SUBOPT_0x5
                 ; 0000 0B62         lcd_gotoxy(0,1);
00128b 940e 16a0 	CALL SUBOPT_0xA
                 ; 0000 0B63         lcd_putsf("  OK ?");
00128d 940e 193e 	CALL SUBOPT_0x76
                 ; 0000 0B64         lcd_gotoxy(0,0);
00128f 940e 1683 	CALL SUBOPT_0x4
                 ; 0000 0B65         lcd_putchar(0);
001291 940e 16b4 	CALL SUBOPT_0xD
                 ; 0000 0B66 
                 ; 0000 0B67         if(!sw_up)
001293 9984      	SBIC 0x10,4
001294 c003      	RJMP _0x350
                 ; 0000 0B68         {
                 ; 0000 0B69                 delay_ms(250);
001295 940e 1941 	CALL SUBOPT_0x77
                 ; 0000 0B6A                 goto level_2b;
001297 cfc3      	RJMP _0x331
                 ; 0000 0B6B         }
                 ; 0000 0B6C         if(!sw_down)
                 _0x350:
001298 9986      	SBIC 0x10,6
001299 c003      	RJMP _0x351
                 ; 0000 0B6D         {
                 ; 0000 0B6E                 delay_ms(250);
00129a 940e 1941 	CALL SUBOPT_0x77
                 ; 0000 0B6F                 goto level_4b;
00129c c00f      	RJMP _0x337
                 ; 0000 0B70         }
                 ; 0000 0B71          if(!sw_ok)
                 _0x351:
00129d 9985      	SBIC 0x10,5
00129e c007      	RJMP _0x352
                 ; 0000 0B72         {
                 ; 0000 0B73                 delay_ms(250);
00129f 940e 1941 	CALL SUBOPT_0x77
                 ; 0000 0B74                 backlight = 0;
0012a1 98c3      	CBI  0x18,3
                 ; 0000 0B75 
                 ; 0000 0B76                 cekPoint2b();
0012a2 df6f      	RCALL _cekPoint2b
                 ; 0000 0B77                 cekPoint3b();
0012a3 940e 198b 	CALL SUBOPT_0x80
                 ; 0000 0B78                 cekPoint4b();
                 ; 0000 0B79                 cekPoint5b();
                 ; 0000 0B7A 
                 ; 0000 0B7B                 goto exit_strategi;
0012a5 c07d      	RJMP _0x344
                 ; 0000 0B7C         }
                 ; 0000 0B7D         if(!sw_cancel)
                 _0x352:
0012a6 9983      	SBIC 0x10,3
0012a7 c003      	RJMP _0x355
                 ; 0000 0B7E         {
                 ; 0000 0B7F                 delay_ms(250);
0012a8 940e 1941 	CALL SUBOPT_0x77
                 ; 0000 0B80                 goto exit_strategi;
0012aa c078      	RJMP _0x344
                 ; 0000 0B81         }
                 ; 0000 0B82         goto level_3b;
                 _0x355:
0012ab cfd7      	RJMP _0x334
                 ; 0000 0B83 
                 ; 0000 0B84         level_4b:
                 _0x337:
                 ; 0000 0B85 
                 ; 0000 0B86         backlight = 1;
0012ac 940e 1966 	CALL SUBOPT_0x7C
                 ; 0000 0B87         NoStrategi = 4;
                 ; 0000 0B88         delay_ms(50);
                 ; 0000 0B89         lcd_clear();
0012ae 940e 1697 	CALL SUBOPT_0x8
                 ; 0000 0B8A         lcd_gotoxy(0,0);
                 ; 0000 0B8B         lcd_putsf("  Skenario-3B");
                +
0012b0 ebe1     +LDI R30 , LOW ( 2 * _0x0 + ( 833 ) )
0012b1 e0f3     +LDI R31 , HIGH ( 2 * _0x0 + ( 833 ) )
                 	__POINTW1FN _0x0,833
0012b2 940e 1688 	CALL SUBOPT_0x5
                 ; 0000 0B8C         lcd_gotoxy(0,1);
0012b4 940e 16a0 	CALL SUBOPT_0xA
                 ; 0000 0B8D         lcd_putsf("  OK ?");
0012b6 940e 193e 	CALL SUBOPT_0x76
                 ; 0000 0B8E         lcd_gotoxy(0,0);
0012b8 940e 1683 	CALL SUBOPT_0x4
                 ; 0000 0B8F         lcd_putchar(0);
0012ba 940e 16b4 	CALL SUBOPT_0xD
                 ; 0000 0B90 
                 ; 0000 0B91         if(!sw_up)
0012bc 9984      	SBIC 0x10,4
0012bd c003      	RJMP _0x358
                 ; 0000 0B92         {
                 ; 0000 0B93                 delay_ms(250);
0012be 940e 1941 	CALL SUBOPT_0x77
                 ; 0000 0B94                 goto level_3b;
0012c0 cfc2      	RJMP _0x334
                 ; 0000 0B95         }
                 ; 0000 0B96         if(!sw_down)
                 _0x358:
0012c1 9986      	SBIC 0x10,6
0012c2 c003      	RJMP _0x359
                 ; 0000 0B97         {
                 ; 0000 0B98                 delay_ms(250);
0012c3 940e 1941 	CALL SUBOPT_0x77
                 ; 0000 0B99                 goto level_5b;
0012c5 c00e      	RJMP _0x33A
                 ; 0000 0B9A         }
                 ; 0000 0B9B          if(!sw_ok)
                 _0x359:
0012c6 9985      	SBIC 0x10,5
0012c7 c006      	RJMP _0x35A
                 ; 0000 0B9C         {
                 ; 0000 0B9D                 delay_ms(250);
0012c8 940e 1941 	CALL SUBOPT_0x77
                 ; 0000 0B9E                 backlight = 0;
0012ca 98c3      	CBI  0x18,3
                 ; 0000 0B9F 
                 ; 0000 0BA0                 cekPoint3b();
0012cb 940e 198b 	CALL SUBOPT_0x80
                 ; 0000 0BA1                 cekPoint4b();
                 ; 0000 0BA2                 cekPoint5b();
                 ; 0000 0BA3 
                 ; 0000 0BA4                 goto exit_strategi;
0012cd c055      	RJMP _0x344
                 ; 0000 0BA5         }
                 ; 0000 0BA6         if(!sw_cancel)
                 _0x35A:
0012ce 9983      	SBIC 0x10,3
0012cf c003      	RJMP _0x35D
                 ; 0000 0BA7         {
                 ; 0000 0BA8                 delay_ms(250);
0012d0 940e 1941 	CALL SUBOPT_0x77
                 ; 0000 0BA9                 goto exit_strategi;
0012d2 c050      	RJMP _0x344
                 ; 0000 0BAA         }
                 ; 0000 0BAB         goto level_4b;
                 _0x35D:
0012d3 cfd8      	RJMP _0x337
                 ; 0000 0BAC 
                 ; 0000 0BAD         level_5b:
                 _0x33A:
                 ; 0000 0BAE 
                 ; 0000 0BAF         backlight = 1;
0012d4 940e 196f 	CALL SUBOPT_0x7D
                 ; 0000 0BB0         NoStrategi = 5;
                 ; 0000 0BB1         delay_ms(50);
                 ; 0000 0BB2         lcd_clear();
0012d6 940e 1697 	CALL SUBOPT_0x8
                 ; 0000 0BB3         lcd_gotoxy(0,0);
                 ; 0000 0BB4         lcd_putsf("  Skenario-4B");
                +
0012d8 ebef     +LDI R30 , LOW ( 2 * _0x0 + ( 847 ) )
0012d9 e0f3     +LDI R31 , HIGH ( 2 * _0x0 + ( 847 ) )
                 	__POINTW1FN _0x0,847
0012da 940e 1688 	CALL SUBOPT_0x5
                 ; 0000 0BB5         lcd_gotoxy(0,1);
0012dc 940e 16a0 	CALL SUBOPT_0xA
                 ; 0000 0BB6         lcd_putsf("  OK ?");
0012de 940e 193e 	CALL SUBOPT_0x76
                 ; 0000 0BB7         lcd_gotoxy(0,0);
0012e0 940e 1683 	CALL SUBOPT_0x4
                 ; 0000 0BB8         lcd_putchar(0);
0012e2 940e 16b4 	CALL SUBOPT_0xD
                 ; 0000 0BB9 
                 ; 0000 0BBA         if(!sw_up)
0012e4 9984      	SBIC 0x10,4
0012e5 c003      	RJMP _0x360
                 ; 0000 0BBB         {
                 ; 0000 0BBC                 delay_ms(250);
0012e6 940e 1941 	CALL SUBOPT_0x77
                 ; 0000 0BBD                 goto level_4b;
0012e8 cfc3      	RJMP _0x337
                 ; 0000 0BBE         }
                 ; 0000 0BBF         if(!sw_down)
                 _0x360:
0012e9 9986      	SBIC 0x10,6
0012ea c003      	RJMP _0x361
                 ; 0000 0BC0         {
                 ; 0000 0BC1                 delay_ms(250);
0012eb 940e 1941 	CALL SUBOPT_0x77
                 ; 0000 0BC2                 goto level_6b;
0012ed c00e      	RJMP _0x33C
                 ; 0000 0BC3         }
                 ; 0000 0BC4          if(!sw_ok)
                 _0x361:
0012ee 9985      	SBIC 0x10,5
0012ef c006      	RJMP _0x362
                 ; 0000 0BC5         {
                 ; 0000 0BC6                 delay_ms(250);
0012f0 940e 1941 	CALL SUBOPT_0x77
                 ; 0000 0BC7                 backlight = 0;
0012f2 98c3      	CBI  0x18,3
                 ; 0000 0BC8 
                 ; 0000 0BC9                 cekPoint4b();
0012f3 df22      	RCALL _cekPoint4b
                 ; 0000 0BCA                 cekPoint5b();
0012f4 df23      	RCALL _cekPoint5b
                 ; 0000 0BCB 
                 ; 0000 0BCC                 goto exit_strategi;
0012f5 c02d      	RJMP _0x344
                 ; 0000 0BCD         }
                 ; 0000 0BCE         if(!sw_cancel)
                 _0x362:
0012f6 9983      	SBIC 0x10,3
0012f7 c003      	RJMP _0x365
                 ; 0000 0BCF         {
                 ; 0000 0BD0                 delay_ms(250);
0012f8 940e 1941 	CALL SUBOPT_0x77
                 ; 0000 0BD1                 goto exit_strategi;
0012fa c028      	RJMP _0x344
                 ; 0000 0BD2         }
                 ; 0000 0BD3         goto level_5b;
                 _0x365:
0012fb cfd8      	RJMP _0x33A
                 ; 0000 0BD4 
                 ; 0000 0BD5         level_6b:
                 _0x33C:
                 ; 0000 0BD6 
                 ; 0000 0BD7         backlight = 1;
0012fc 940e 1978 	CALL SUBOPT_0x7E
                 ; 0000 0BD8         NoStrategi = 6;
                 ; 0000 0BD9         delay_ms(50);
                 ; 0000 0BDA         lcd_clear();
0012fe 940e 1697 	CALL SUBOPT_0x8
                 ; 0000 0BDB         lcd_gotoxy(0,0);
                 ; 0000 0BDC         lcd_putsf("  Skenario-5B");
                +
001300 eced     +LDI R30 , LOW ( 2 * _0x0 + ( 861 ) )
001301 e0f3     +LDI R31 , HIGH ( 2 * _0x0 + ( 861 ) )
                 	__POINTW1FN _0x0,861
001302 940e 1688 	CALL SUBOPT_0x5
                 ; 0000 0BDD         lcd_gotoxy(0,1);
001304 940e 16a0 	CALL SUBOPT_0xA
                 ; 0000 0BDE         lcd_putsf("  OK ?");
001306 940e 193e 	CALL SUBOPT_0x76
                 ; 0000 0BDF         lcd_gotoxy(0,0);
001308 940e 1683 	CALL SUBOPT_0x4
                 ; 0000 0BE0         lcd_putchar(0);
00130a 940e 16b4 	CALL SUBOPT_0xD
                 ; 0000 0BE1 
                 ; 0000 0BE2         if(!sw_up)
00130c 9984      	SBIC 0x10,4
00130d c003      	RJMP _0x368
                 ; 0000 0BE3         {
                 ; 0000 0BE4                 delay_ms(250);
00130e 940e 1941 	CALL SUBOPT_0x77
                 ; 0000 0BE5                 goto level_5b;
001310 cfc3      	RJMP _0x33A
                 ; 0000 0BE6         }
                 ; 0000 0BE7         if(!sw_down)
                 _0x368:
001311 9986      	SBIC 0x10,6
001312 c003      	RJMP _0x369
                 ; 0000 0BE8         {
                 ; 0000 0BE9                 delay_ms(250);
001313 940e 1941 	CALL SUBOPT_0x77
                 ; 0000 0BEA                 goto level_1b;
001315 cf1c      	RJMP _0x32E
                 ; 0000 0BEB         }
                 ; 0000 0BEC          if(!sw_ok)
                 _0x369:
001316 9985      	SBIC 0x10,5
001317 c005      	RJMP _0x36A
                 ; 0000 0BED         {
                 ; 0000 0BEE                 delay_ms(250);
001318 940e 1941 	CALL SUBOPT_0x77
                 ; 0000 0BEF                 backlight = 0;
00131a 98c3      	CBI  0x18,3
                 ; 0000 0BF0 
                 ; 0000 0BF1                 cekPoint5b();
00131b defc      	RCALL _cekPoint5b
                 ; 0000 0BF2 
                 ; 0000 0BF3                 goto exit_strategi;
00131c c006      	RJMP _0x344
                 ; 0000 0BF4         }
                 ; 0000 0BF5         if(!sw_cancel)
                 _0x36A:
00131d 9983      	SBIC 0x10,3
00131e c003      	RJMP _0x36D
                 ; 0000 0BF6         {
                 ; 0000 0BF7                 delay_ms(250);
00131f 940e 1941 	CALL SUBOPT_0x77
                 ; 0000 0BF8                 goto exit_strategi;
001321 c001      	RJMP _0x344
                 ; 0000 0BF9         }
                 ; 0000 0BFA         goto level_6b;
                 _0x36D:
001322 cfd9      	RJMP _0x33C
                 ; 0000 0BFB 
                 ; 0000 0BFC         exit_strategi:
                 _0x344:
                 ; 0000 0BFD         lcd_clear();
001323 940e 15d5 	CALL _lcd_clear
                 ; 0000 0BFE         backlight = 0;
001325 c00e      	RJMP _0x2080006
                 ; 0000 0BFF }
                 ;
                 ;////////////////////////////////////////
                 ;
                 ;void indikatorSudut(void)
                 ; 0000 0C04 {
                 _indikatorSudut:
                 ; 0000 0C05         backlight = 1;
001326 c008      	RJMP _0x2080005
                 ; 0000 0C06         delay_ms(100);
                 ; 0000 0C07         backlight = 0;
                 ; 0000 0C08 }
                 ;
                 ;void indikatorPerempatan(void)
                 ; 0000 0C0B {
                 _indikatorPerempatan:
                 ; 0000 0C0C         backlight = 1;
001327 9ac3      	SBI  0x18,3
                 ; 0000 0C0D         delay_ms(100);
001328 e6e4      	LDI  R30,LOW(100)
001329 e0f0      	LDI  R31,HIGH(100)
00132a 940e 186e 	CALL SUBOPT_0x52
                 ; 0000 0C0E         backlight = 0;
00132c 98c3      	CBI  0x18,3
                 ; 0000 0C0F         delay_ms(150);
00132d 940e 169a 	CALL SUBOPT_0x9
                 ; 0000 0C10         backlight = 1;
                 _0x2080005:
00132f 9ac3      	SBI  0x18,3
                 ; 0000 0C11         delay_ms(100);
001330 e6e4      	LDI  R30,LOW(100)
001331 e0f0      	LDI  R31,HIGH(100)
001332 940e 186e 	CALL SUBOPT_0x52
                 ; 0000 0C12         backlight = 0;
                 _0x2080006:
001334 98c3      	CBI  0x18,3
                 ; 0000 0C13 }
001335 9508      	RET
                 ;
                 ;/////////////////////////////////////
                 ;
                 ;void main(void)
                 ; 0000 0C18 {
                 _main:
                 ; 0000 0C19         PORTA=0x00;
001336 e0e0      	LDI  R30,LOW(0)
001337 bbeb      	OUT  0x1B,R30
                 ; 0000 0C1A         DDRA=0x00;
001338 bbea      	OUT  0x1A,R30
                 ; 0000 0C1B         PORTB=0x00;
001339 bbe8      	OUT  0x18,R30
                 ; 0000 0C1C         DDRB=0xFF;
00133a efef      	LDI  R30,LOW(255)
00133b bbe7      	OUT  0x17,R30
                 ; 0000 0C1D         PORTC=0x03;
00133c e0e3      	LDI  R30,LOW(3)
00133d bbe5      	OUT  0x15,R30
                 ; 0000 0C1E         DDRC=0xFC;
00133e efec      	LDI  R30,LOW(252)
00133f bbe4      	OUT  0x14,R30
                 ; 0000 0C1F         PORTD=0x78;
001340 e7e8      	LDI  R30,LOW(120)
001341 bbe2      	OUT  0x12,R30
                 ; 0000 0C20         DDRD=0x00;
001342 e0e0      	LDI  R30,LOW(0)
001343 bbe1      	OUT  0x11,R30
                 ; 0000 0C21 
                 ; 0000 0C22         TCCR0=0x05;
001344 e0e5      	LDI  R30,LOW(5)
001345 bfe3      	OUT  0x33,R30
                 ; 0000 0C23         TCNT0=0xFF;
001346 efef      	LDI  R30,LOW(255)
001347 bfe2      	OUT  0x32,R30
                 ; 0000 0C24         OCR0=0x00;
001348 e0e0      	LDI  R30,LOW(0)
001349 bfec      	OUT  0x3C,R30
                 ; 0000 0C25 
                 ; 0000 0C26         TIMSK=0x01;
00134a e0e1      	LDI  R30,LOW(1)
00134b bfe9      	OUT  0x39,R30
                 ; 0000 0C27 
                 ; 0000 0C28         ACSR=0x80;
00134c e8e0      	LDI  R30,LOW(128)
00134d b9e8      	OUT  0x8,R30
                 ; 0000 0C29         SFIOR=0x00;
00134e e0e0      	LDI  R30,LOW(0)
00134f bfe0      	OUT  0x30,R30
                 ; 0000 0C2A 
                 ; 0000 0C2B         ADMUX=ADC_VREF_TYPE & 0xff;
001350 e2e0      	LDI  R30,LOW(32)
001351 b9e7      	OUT  0x7,R30
                 ; 0000 0C2C         ADCSRA=0x87;
001352 e8e7      	LDI  R30,LOW(135)
001353 b9e6      	OUT  0x6,R30
                 ; 0000 0C2D 
                 ; 0000 0C2E         lcd_init(16);
001354 e1e0      	LDI  R30,LOW(16)
001355 93ea      	ST   -Y,R30
001356 940e 1620 	CALL _lcd_init
                 ; 0000 0C2F         define_char(char0,0);
001358 e5e4      	LDI  R30,LOW(_char0*2)
001359 e0f0      	LDI  R31,HIGH(_char0*2)
00135a 93fa      	ST   -Y,R31
00135b 93ea      	ST   -Y,R30
00135c e0e0      	LDI  R30,LOW(0)
00135d 93ea      	ST   -Y,R30
00135e 940e 0257 	CALL _define_char
                 ; 0000 0C30 
                 ; 0000 0C31         indikatorSudut();
001360 dfc5      	RCALL _indikatorSudut
                 ; 0000 0C32         delay_ms(500);
001361 efe4      	LDI  R30,LOW(500)
001362 e0f1      	LDI  R31,HIGH(500)
001363 940e 186e 	CALL SUBOPT_0x52
                 ; 0000 0C33         backlight = 1;
001365 9ac3      	SBI  0x18,3
                 ; 0000 0C34 
                 ; 0000 0C35         stop(1);
001366 940e 1991 	CALL SUBOPT_0x81
                 ; 0000 0C36         TCCR0=0x05;
001368 e0e5      	LDI  R30,LOW(5)
001369 bfe3      	OUT  0x33,R30
                 ; 0000 0C37 
                 ; 0000 0C38         showMenu();
00136a 940e 03ac 	CALL _showMenu
                 ; 0000 0C39         backlight = 0;
00136c 98c3      	CBI  0x18,3
                 ; 0000 0C3A         #asm("sei")
00136d 9478      	sei
                 ; 0000 0C3B 
                 ; 0000 0C3C         var_Kp  = Kp;
00136e 940e 16bc 	CALL SUBOPT_0xF
001370 940e 1995 	CALL SUBOPT_0x82
                 ; 0000 0C3D         var_Ki  = Ki;
001372 940e 16c5 	CALL SUBOPT_0x11
001374 940e 199b 	CALL SUBOPT_0x83
                 ; 0000 0C3E         var_Kd  = Kd;
001376 e0a2      	LDI  R26,LOW(_Kd)
001377 e0b0      	LDI  R27,HIGH(_Kd)
001378 940e 19a1 	CALL SUBOPT_0x84
00137a 93e0 02a4 	STS  _var_Kd,R30
00137c 93f0 02a5 	STS  _var_Kd+1,R31
                 ; 0000 0C3F 
                 ; 0000 0C40         tempKp = Kp;
00137e 940e 16bc 	CALL SUBOPT_0xF
001380 e0a3      	LDI  R26,LOW(_tempKp)
001381 e0b0      	LDI  R27,HIGH(_tempKp)
001382 940e 1a5e 	CALL __EEPROMWRB
                 ; 0000 0C41         tempKd = Ki;
001384 940e 16c5 	CALL SUBOPT_0x11
001386 e0a5      	LDI  R26,LOW(_tempKd)
001387 e0b0      	LDI  R27,HIGH(_tempKd)
001388 940e 1a5e 	CALL __EEPROMWRB
                 ; 0000 0C42         tempKi = Ki;
00138a 940e 16c5 	CALL SUBOPT_0x11
00138c e0a4      	LDI  R26,LOW(_tempKi)
00138d e0b0      	LDI  R27,HIGH(_tempKi)
00138e 940e 1a5e 	CALL __EEPROMWRB
                 ; 0000 0C43 
                 ; 0000 0C44         MAXPWM = (int)MAXSpeed;
001390 e0a6      	LDI  R26,LOW(_MAXSpeed)
001391 e0b0      	LDI  R27,HIGH(_MAXSpeed)
001392 940e 19a1 	CALL SUBOPT_0x84
001394 93e0 0288 	STS  _MAXPWM,R30
001396 93f0 0289 	STS  _MAXPWM+1,R31
                 ; 0000 0C45         _MINPWM = MINSpeed;
001398 e0a7      	LDI  R26,LOW(_MINSpeed)
001399 e0b0      	LDI  R27,HIGH(_MINSpeed)
00139a 940e 19a1 	CALL SUBOPT_0x84
00139c 93e0 028c 	STS  __MINPWM,R30
00139e 93f0 028d 	STS  __MINPWM+1,R31
                 ; 0000 0C46         MINPWM = _MINPWM;
0013a0 940e 1926 	CALL SUBOPT_0x72
0013a2 940e 192b 	CALL SUBOPT_0x73
                 ; 0000 0C47 
                 ; 0000 0C48         intervalPWM = (MAXSpeed - MINSpeed) / 8;
0013a4 e0a6      	LDI  R26,LOW(_MAXSpeed)
0013a5 e0b0      	LDI  R27,HIGH(_MAXSpeed)
0013a6 940e 1a52 	CALL __EEPROMRDB
0013a8 2e0e      	MOV  R0,R30
0013a9 2411      	CLR  R1
0013aa e0a7      	LDI  R26,LOW(_MINSpeed)
0013ab e0b0      	LDI  R27,HIGH(_MINSpeed)
0013ac 940e 19a1 	CALL SUBOPT_0x84
0013ae 01d0      	MOVW R26,R0
0013af 1bae      	SUB  R26,R30
0013b0 0bbf      	SBC  R27,R31
0013b1 940e 189f 	CALL SUBOPT_0x5B
                 ; 0000 0C49         PV = 0;
0013b3 e0e0      	LDI  R30,LOW(0)
0013b4 93e0 0298 	STS  _PV,R30
0013b6 93e0 0299 	STS  _PV+1,R30
                 ; 0000 0C4A         error = 0;
0013b8 93e0 029a 	STS  _error,R30
0013ba 93e0 029b 	STS  _error+1,R30
                 ; 0000 0C4B         last_error = 0;
0013bc 93e0 029c 	STS  _last_error,R30
0013be 93e0 029d 	STS  _last_error+1,R30
                 ; 0000 0C4C 
                 ; 0000 0C4D         delay_ms(200);
0013c0 940e 1691 	CALL SUBOPT_0x7
                 ; 0000 0C4E         indikatorPerempatan();
0013c2 df64      	RCALL _indikatorPerempatan
                 ; 0000 0C4F 
                 ; 0000 0C50         maju();
0013c3 940e 075e 	CALL _maju
                 ; 0000 0C51 
                 ; 0000 0C52         while (1)
                 _0x380:
                 ; 0000 0C53         {
                 ; 0000 0C54                 displaySensorBit();
0013c5 940e 190d 	CALL SUBOPT_0x6F
                 ; 0000 0C55                 scanBlackLine();
                 ; 0000 0C56                 //scanSudut();
                 ; 0000 0C57 
                 ; 0000 0C58                 // strategi track A
                 ; 0000 0C59                 if(!sw_up)      // interupsi
0013c7 9984      	SBIC 0x10,4
0013c8 c008      	RJMP _0x383
                 ; 0000 0C5A                 {
                 ; 0000 0C5B                         delay_ms(125);
0013c9 940e 16ae 	CALL SUBOPT_0xC
                 ; 0000 0C5C                         stop(1);
0013cb 940e 1991 	CALL SUBOPT_0x81
                 ; 0000 0C5D                         lcd_clear();
0013cd 940e 15d5 	CALL _lcd_clear
                 ; 0000 0C5E                         strategiA();
0013cf dc4f      	RCALL _strategiA
                 ; 0000 0C5F                         goto exitRobot;
0013d0 c018      	RJMP _0x384
                 ; 0000 0C60                 }
                 ; 0000 0C61 
                 ; 0000 0C62                 // strategi track B
                 ; 0000 0C63                 if(!sw_down)    // interupsi
                 _0x383:
0013d1 9986      	SBIC 0x10,6
0013d2 c008      	RJMP _0x385
                 ; 0000 0C64                 {
                 ; 0000 0C65                         delay_ms(125);
0013d3 940e 16ae 	CALL SUBOPT_0xC
                 ; 0000 0C66                         stop(1);
0013d5 940e 1991 	CALL SUBOPT_0x81
                 ; 0000 0C67                         lcd_clear();
0013d7 940e 15d5 	CALL _lcd_clear
                 ; 0000 0C68                         strategiB();
0013d9 de40      	RCALL _strategiB
                 ; 0000 0C69                         goto exitRobot;
0013da c00e      	RJMP _0x384
                 ; 0000 0C6A                 }
                 ; 0000 0C6B 
                 ; 0000 0C6C                 // percobaan counting
                 ; 0000 0C6D                 while(!sKi)
                 _0x385:
                 _0x386:
0013db fc31      	SBRC R3,1
0013dc c004      	RJMP _0x388
                 ; 0000 0C6E                 {
                 ; 0000 0C6F                         displaySensorBit();
0013dd 940e 190d 	CALL SUBOPT_0x6F
                 ; 0000 0C70                         scanBlackLine();
                 ; 0000 0C71                         backlight = 1;
0013df 9ac3      	SBI  0x18,3
                 ; 0000 0C72                 }
0013e0 cffa      	RJMP _0x386
                 _0x388:
                 ; 0000 0C73 
                 ; 0000 0C74                 while(!sKa)
                 _0x38B:
0013e1 fc30      	SBRC R3,0
0013e2 c004      	RJMP _0x38D
                 ; 0000 0C75                 {
                 ; 0000 0C76                         displaySensorBit();
0013e3 940e 190d 	CALL SUBOPT_0x6F
                 ; 0000 0C77                         scanBlackLine();
                 ; 0000 0C78                         backlight = 1;
0013e5 9ac3      	SBI  0x18,3
                 ; 0000 0C79                 }
0013e6 cffa      	RJMP _0x38B
                 _0x38D:
                 ; 0000 0C7A                 backlight = 0;
0013e7 98c3      	CBI  0x18,3
                 ; 0000 0C7B         };
0013e8 cfdc      	RJMP _0x380
                 ; 0000 0C7C 
                 ; 0000 0C7D         var_Kp = tempKp;
                 ; 0000 0C7E         var_Ki = tempKi;
                 ; 0000 0C7F         var_Kd = tempKd;
                 ; 0000 0C80 
                 ; 0000 0C81         exitRobot:
                 _0x384:
                 ; 0000 0C82         goto exitRobot;
0013e9 cfff      	RJMP _0x384
                 ; 0000 0C83 }
                 	#ifndef __SLEEP_DEFINED__
                 	#endif
                 
                 	.CSEG
                 _put_buff_G100:
0013ea 931a      	ST   -Y,R17
0013eb 930a      	ST   -Y,R16
0013ec 81aa      	LDD  R26,Y+2
0013ed 81bb      	LDD  R27,Y+2+1
0013ee 9612      	ADIW R26,2
0013ef 940e 1a45 	CALL __GETW1P
0013f1 9730      	SBIW R30,0
0013f2 f129      	BREQ _0x2000010
0013f3 81aa      	LDD  R26,Y+2
0013f4 81bb      	LDD  R27,Y+2+1
0013f5 9614      	ADIW R26,4
0013f6 940e 1a45 	CALL __GETW1P
0013f8 018f      	MOVW R16,R30
0013f9 9730      	SBIW R30,0
0013fa f061      	BREQ _0x2000012
                +
0013fb 3002     +CPI R16 , LOW ( 2 )
0013fc e0e0     +LDI R30 , HIGH ( 2 )
0013fd 071e     +CPC R17 , R30
                 	__CPWRN 16,17,2
0013fe f0c0      	BRLO _0x2000013
0013ff 01f8      	MOVW R30,R16
001400 9731      	SBIW R30,1
001401 018f      	MOVW R16,R30
                +
001402 81aa     +LDD R26 , Y + 2
001403 81bb     +LDD R27 , Y + 2 + 1
001404 9614     +ADIW R26 , 4
001405 93ed     +ST X + , R30
001406 93fc     +ST X , R31
                 	__PUTW1SNS 2,4
                 _0x2000012:
001407 81aa      	LDD  R26,Y+2
001408 81bb      	LDD  R27,Y+2+1
001409 9612      	ADIW R26,2
00140a 940e 175d 	CALL SUBOPT_0x30
00140c 9731      	SBIW R30,1
00140d 81ac      	LDD  R26,Y+4
00140e 83a0      	STD  Z+0,R26
00140f 81aa      	LDD  R26,Y+2
001410 81bb      	LDD  R27,Y+2+1
001411 940e 1a45 	CALL __GETW1P
001413 23ff      	TST  R31
001414 f012      	BRMI _0x2000014
001415 940e 175d 	CALL SUBOPT_0x30
                 _0x2000014:
                 _0x2000013:
001417 c006      	RJMP _0x2000015
                 _0x2000010:
001418 81aa      	LDD  R26,Y+2
001419 81bb      	LDD  R27,Y+2+1
00141a efef      	LDI  R30,LOW(65535)
00141b efff      	LDI  R31,HIGH(65535)
00141c 93ed      	ST   X+,R30
00141d 93fc      	ST   X,R31
                 _0x2000015:
00141e 8119      	LDD  R17,Y+1
00141f 8108      	LDD  R16,Y+0
001420 9625      	ADIW R28,5
001421 9508      	RET
                 __print_G100:
001422 9726      	SBIW R28,6
001423 940e 1a73 	CALL __SAVELOCR6
001425 e010      	LDI  R17,0
001426 85ac      	LDD  R26,Y+12
001427 85bd      	LDD  R27,Y+12+1
001428 e0e0      	LDI  R30,LOW(0)
001429 e0f0      	LDI  R31,HIGH(0)
00142a 93ed      	ST   X+,R30
00142b 93fc      	ST   X,R31
                 _0x2000016:
00142c 89ea      	LDD  R30,Y+18
00142d 89fb      	LDD  R31,Y+18+1
00142e 9631      	ADIW R30,1
00142f 8bea      	STD  Y+18,R30
001430 8bfb      	STD  Y+18+1,R31
001431 9731      	SBIW R30,1
001432 91e4      	LPM  R30,Z
001433 2f2e      	MOV  R18,R30
001434 30e0      	CPI  R30,0
001435 f411      	BRNE PC+3
001436 940c 154f 	JMP _0x2000018
001438 2fe1      	MOV  R30,R17
001439 30e0      	CPI  R30,0
00143a f439      	BRNE _0x200001C
00143b 3225      	CPI  R18,37
00143c f411      	BRNE _0x200001D
00143d e011      	LDI  R17,LOW(1)
00143e c002      	RJMP _0x200001E
                 _0x200001D:
00143f 940e 19a5 	CALL SUBOPT_0x85
                 _0x200001E:
001441 c10c      	RJMP _0x200001B
                 _0x200001C:
001442 30e1      	CPI  R30,LOW(0x1)
001443 f4a9      	BRNE _0x200001F
001444 3225      	CPI  R18,37
001445 f419      	BRNE _0x2000020
001446 940e 19a5 	CALL SUBOPT_0x85
001448 c104      	RJMP _0x20000C9
                 _0x2000020:
001449 e012      	LDI  R17,LOW(2)
00144a e040      	LDI  R20,LOW(0)
00144b e000      	LDI  R16,LOW(0)
00144c 322d      	CPI  R18,45
00144d f411      	BRNE _0x2000021
00144e e001      	LDI  R16,LOW(1)
00144f c0fe      	RJMP _0x200001B
                 _0x2000021:
001450 322b      	CPI  R18,43
001451 f411      	BRNE _0x2000022
001452 e24b      	LDI  R20,LOW(43)
001453 c0fa      	RJMP _0x200001B
                 _0x2000022:
001454 3220      	CPI  R18,32
001455 f411      	BRNE _0x2000023
001456 e240      	LDI  R20,LOW(32)
001457 c0f6      	RJMP _0x200001B
                 _0x2000023:
001458 c002      	RJMP _0x2000024
                 _0x200001F:
001459 30e2      	CPI  R30,LOW(0x2)
00145a f439      	BRNE _0x2000025
                 _0x2000024:
00145b e050      	LDI  R21,LOW(0)
00145c e013      	LDI  R17,LOW(3)
00145d 3320      	CPI  R18,48
00145e f411      	BRNE _0x2000026
00145f 6800      	ORI  R16,LOW(128)
001460 c0ed      	RJMP _0x200001B
                 _0x2000026:
001461 c004      	RJMP _0x2000027
                 _0x2000025:
001462 30e3      	CPI  R30,LOW(0x3)
001463 f011      	BREQ PC+3
001464 940c 154e 	JMP _0x200001B
                 _0x2000027:
001466 3320      	CPI  R18,48
001467 f010      	BRLO _0x200002A
001468 332a      	CPI  R18,58
001469 f008      	BRLO _0x200002B
                 _0x200002A:
00146a c007      	RJMP _0x2000029
                 _0x200002B:
00146b e0aa      	LDI  R26,LOW(10)
00146c 9f5a      	MUL  R21,R26
00146d 2d50      	MOV  R21,R0
00146e 2fe2      	MOV  R30,R18
00146f 53e0      	SUBI R30,LOW(48)
001470 0f5e      	ADD  R21,R30
001471 c0dc      	RJMP _0x200001B
                 _0x2000029:
001472 2fe2      	MOV  R30,R18
001473 36e3      	CPI  R30,LOW(0x63)
001474 f449      	BRNE _0x200002F
001475 940e 19ae 	CALL SUBOPT_0x86
001477 89e8      	LDD  R30,Y+16
001478 89f9      	LDD  R31,Y+16+1
001479 81a4      	LDD  R26,Z+4
00147a 93aa      	ST   -Y,R26
00147b 940e 19b4 	CALL SUBOPT_0x87
00147d c0cf      	RJMP _0x2000030
                 _0x200002F:
00147e 37e3      	CPI  R30,LOW(0x73)
00147f f441      	BRNE _0x2000032
001480 940e 19ae 	CALL SUBOPT_0x86
001482 940e 19bc 	CALL SUBOPT_0x88
001484 940e 1654 	CALL _strlen
001486 2f1e      	MOV  R17,R30
001487 c00a      	RJMP _0x2000033
                 _0x2000032:
001488 37e0      	CPI  R30,LOW(0x70)
001489 f461      	BRNE _0x2000035
00148a 940e 19ae 	CALL SUBOPT_0x86
00148c 940e 19bc 	CALL SUBOPT_0x88
00148e 940e 165e 	CALL _strlenf
001490 2f1e      	MOV  R17,R30
001491 6008      	ORI  R16,LOW(8)
                 _0x2000033:
001492 6002      	ORI  R16,LOW(2)
001493 770f      	ANDI R16,LOW(127)
001494 e030      	LDI  R19,LOW(0)
001495 c035      	RJMP _0x2000036
                 _0x2000035:
001496 36e4      	CPI  R30,LOW(0x64)
001497 f011      	BREQ _0x2000039
001498 36e9      	CPI  R30,LOW(0x69)
001499 f411      	BRNE _0x200003A
                 _0x2000039:
00149a 6004      	ORI  R16,LOW(4)
00149b c002      	RJMP _0x200003B
                 _0x200003A:
00149c 37e5      	CPI  R30,LOW(0x75)
00149d f431      	BRNE _0x200003C
                 _0x200003B:
00149e e5ec      	LDI  R30,LOW(_tbl10_G100*2)
00149f e0f0      	LDI  R31,HIGH(_tbl10_G100*2)
0014a0 83ee      	STD  Y+6,R30
0014a1 83ff      	STD  Y+6+1,R31
0014a2 e015      	LDI  R17,LOW(5)
0014a3 c00d      	RJMP _0x200003D
                 _0x200003C:
0014a4 35e8      	CPI  R30,LOW(0x58)
0014a5 f411      	BRNE _0x200003F
0014a6 6008      	ORI  R16,LOW(8)
0014a7 c004      	RJMP _0x2000040
                 _0x200003F:
0014a8 37e8      	CPI  R30,LOW(0x78)
0014a9 f011      	BREQ PC+3
0014aa 940c 154d 	JMP _0x2000071
                 _0x2000040:
0014ac e6e6      	LDI  R30,LOW(_tbl16_G100*2)
0014ad e0f0      	LDI  R31,HIGH(_tbl16_G100*2)
0014ae 83ee      	STD  Y+6,R30
0014af 83ff      	STD  Y+6+1,R31
0014b0 e014      	LDI  R17,LOW(4)
                 _0x200003D:
0014b1 ff02      	SBRS R16,2
0014b2 c014      	RJMP _0x2000042
0014b3 940e 19ae 	CALL SUBOPT_0x86
0014b5 940e 19c6 	CALL SUBOPT_0x89
0014b7 85ab      	LDD  R26,Y+11
0014b8 23aa      	TST  R26
0014b9 f43a      	BRPL _0x2000043
0014ba 85ea      	LDD  R30,Y+10
0014bb 85fb      	LDD  R31,Y+10+1
0014bc 940e 19fb 	CALL __ANEGW1
0014be 87ea      	STD  Y+10,R30
0014bf 87fb      	STD  Y+10+1,R31
0014c0 e24d      	LDI  R20,LOW(45)
                 _0x2000043:
0014c1 3040      	CPI  R20,0
0014c2 f011      	BREQ _0x2000044
0014c3 5f1f      	SUBI R17,-LOW(1)
0014c4 c001      	RJMP _0x2000045
                 _0x2000044:
0014c5 7f0b      	ANDI R16,LOW(251)
                 _0x2000045:
0014c6 c004      	RJMP _0x2000046
                 _0x2000042:
0014c7 940e 19ae 	CALL SUBOPT_0x86
0014c9 940e 19c6 	CALL SUBOPT_0x89
                 _0x2000046:
                 _0x2000036:
0014cb fd00      	SBRC R16,0
0014cc c011      	RJMP _0x2000047
                 _0x2000048:
0014cd 1715      	CP   R17,R21
0014ce f478      	BRSH _0x200004A
0014cf ff07      	SBRS R16,7
0014d0 c008      	RJMP _0x200004B
0014d1 ff02      	SBRS R16,2
0014d2 c004      	RJMP _0x200004C
0014d3 7f0b      	ANDI R16,LOW(251)
0014d4 2f24      	MOV  R18,R20
0014d5 5011      	SUBI R17,LOW(1)
0014d6 c001      	RJMP _0x200004D
                 _0x200004C:
0014d7 e320      	LDI  R18,LOW(48)
                 _0x200004D:
0014d8 c001      	RJMP _0x200004E
                 _0x200004B:
0014d9 e220      	LDI  R18,LOW(32)
                 _0x200004E:
0014da 940e 19a5 	CALL SUBOPT_0x85
0014dc 5051      	SUBI R21,LOW(1)
0014dd cfef      	RJMP _0x2000048
                 _0x200004A:
                 _0x2000047:
0014de 2f31      	MOV  R19,R17
0014df ff01      	SBRS R16,1
0014e0 c017      	RJMP _0x200004F
                 _0x2000050:
0014e1 3030      	CPI  R19,0
0014e2 f0a1      	BREQ _0x2000052
0014e3 ff03      	SBRS R16,3
0014e4 c006      	RJMP _0x2000053
0014e5 81ee      	LDD  R30,Y+6
0014e6 81ff      	LDD  R31,Y+6+1
0014e7 9125      	LPM  R18,Z+
0014e8 83ee      	STD  Y+6,R30
0014e9 83ff      	STD  Y+6+1,R31
0014ea c005      	RJMP _0x2000054
                 _0x2000053:
0014eb 81ae      	LDD  R26,Y+6
0014ec 81bf      	LDD  R27,Y+6+1
0014ed 912d      	LD   R18,X+
0014ee 83ae      	STD  Y+6,R26
0014ef 83bf      	STD  Y+6+1,R27
                 _0x2000054:
0014f0 940e 19a5 	CALL SUBOPT_0x85
0014f2 3050      	CPI  R21,0
0014f3 f009      	BREQ _0x2000055
0014f4 5051      	SUBI R21,LOW(1)
                 _0x2000055:
0014f5 5031      	SUBI R19,LOW(1)
0014f6 cfea      	RJMP _0x2000050
                 _0x2000052:
0014f7 c04b      	RJMP _0x2000056
                 _0x200004F:
                 _0x2000058:
0014f8 e320      	LDI  R18,LOW(48)
0014f9 81ee      	LDD  R30,Y+6
0014fa 81ff      	LDD  R31,Y+6+1
0014fb 940e 1a49 	CALL __GETW1PF
0014fd 87e8      	STD  Y+8,R30
0014fe 87f9      	STD  Y+8+1,R31
0014ff 81ee      	LDD  R30,Y+6
001500 81ff      	LDD  R31,Y+6+1
001501 9632      	ADIW R30,2
001502 83ee      	STD  Y+6,R30
001503 83ff      	STD  Y+6+1,R31
                 _0x200005A:
001504 85e8      	LDD  R30,Y+8
001505 85f9      	LDD  R31,Y+8+1
001506 85aa      	LDD  R26,Y+10
001507 85bb      	LDD  R27,Y+10+1
001508 17ae      	CP   R26,R30
001509 07bf      	CPC  R27,R31
00150a f050      	BRLO _0x200005C
00150b 5f2f      	SUBI R18,-LOW(1)
00150c 85a8      	LDD  R26,Y+8
00150d 85b9      	LDD  R27,Y+8+1
00150e 85ea      	LDD  R30,Y+10
00150f 85fb      	LDD  R31,Y+10+1
001510 1bea      	SUB  R30,R26
001511 0bfb      	SBC  R31,R27
001512 87ea      	STD  Y+10,R30
001513 87fb      	STD  Y+10+1,R31
001514 cfef      	RJMP _0x200005A
                 _0x200005C:
001515 332a      	CPI  R18,58
001516 f028      	BRLO _0x200005D
001517 ff03      	SBRS R16,3
001518 c002      	RJMP _0x200005E
001519 5f29      	SUBI R18,-LOW(7)
00151a c001      	RJMP _0x200005F
                 _0x200005E:
00151b 5d29      	SUBI R18,-LOW(39)
                 _0x200005F:
                 _0x200005D:
00151c fd04      	SBRC R16,4
00151d c01a      	RJMP _0x2000061
00151e 3321      	CPI  R18,49
00151f f420      	BRSH _0x2000063
001520 85a8      	LDD  R26,Y+8
001521 85b9      	LDD  R27,Y+8+1
001522 9711      	SBIW R26,1
001523 f409      	BRNE _0x2000062
                 _0x2000063:
001524 c009      	RJMP _0x20000CA
                 _0x2000062:
001525 1753      	CP   R21,R19
001526 f010      	BRLO _0x2000067
001527 ff00      	SBRS R16,0
001528 c001      	RJMP _0x2000068
                 _0x2000067:
001529 c013      	RJMP _0x2000066
                 _0x2000068:
00152a e220      	LDI  R18,LOW(32)
00152b ff07      	SBRS R16,7
00152c c00b      	RJMP _0x2000069
00152d e320      	LDI  R18,LOW(48)
                 _0x20000CA:
00152e 6100      	ORI  R16,LOW(16)
00152f ff02      	SBRS R16,2
001530 c007      	RJMP _0x200006A
001531 7f0b      	ANDI R16,LOW(251)
001532 934a      	ST   -Y,R20
001533 940e 19b4 	CALL SUBOPT_0x87
001535 3050      	CPI  R21,0
001536 f009      	BREQ _0x200006B
001537 5051      	SUBI R21,LOW(1)
                 _0x200006B:
                 _0x200006A:
                 _0x2000069:
                 _0x2000061:
001538 940e 19a5 	CALL SUBOPT_0x85
00153a 3050      	CPI  R21,0
00153b f009      	BREQ _0x200006C
00153c 5051      	SUBI R21,LOW(1)
                 _0x200006C:
                 _0x2000066:
00153d 5031      	SUBI R19,LOW(1)
00153e 85a8      	LDD  R26,Y+8
00153f 85b9      	LDD  R27,Y+8+1
001540 9712      	SBIW R26,2
001541 f008      	BRLO _0x2000059
001542 cfb5      	RJMP _0x2000058
                 _0x2000059:
                 _0x2000056:
001543 ff00      	SBRS R16,0
001544 c008      	RJMP _0x200006D
                 _0x200006E:
001545 3050      	CPI  R21,0
001546 f031      	BREQ _0x2000070
001547 5051      	SUBI R21,LOW(1)
001548 e2e0      	LDI  R30,LOW(32)
001549 93ea      	ST   -Y,R30
00154a 940e 19b4 	CALL SUBOPT_0x87
00154c cff8      	RJMP _0x200006E
                 _0x2000070:
                 _0x200006D:
                 _0x2000071:
                 _0x2000030:
                 _0x20000C9:
00154d e010      	LDI  R17,LOW(0)
                 _0x200001B:
00154e cedd      	RJMP _0x2000016
                 _0x2000018:
00154f 85ac      	LDD  R26,Y+12
001550 85bd      	LDD  R27,Y+12+1
001551 940e 1a45 	CALL __GETW1P
001553 940e 1a7a 	CALL __LOADLOCR6
001555 9664      	ADIW R28,20
001556 9508      	RET
                 _sprintf:
001557 92ff      	PUSH R15
001558 2ef8      	MOV  R15,R24
001559 9726      	SBIW R28,6
00155a 940e 1a75 	CALL __SAVELOCR4
00155c 940e 19ce 	CALL SUBOPT_0x8A
00155e 9730      	SBIW R30,0
00155f f419      	BRNE _0x2000072
001560 efef      	LDI  R30,LOW(65535)
001561 efff      	LDI  R31,HIGH(65535)
001562 c025      	RJMP _0x2080004
                 _0x2000072:
001563 01de      	MOVW R26,R28
001564 9616      	ADIW R26,6
001565 940e 19f7 	CALL __ADDW2R15
001567 018d      	MOVW R16,R26
001568 940e 19ce 	CALL SUBOPT_0x8A
00156a 83ee      	STD  Y+6,R30
00156b 83ff      	STD  Y+6+1,R31
00156c e0e0      	LDI  R30,LOW(0)
00156d 87e8      	STD  Y+8,R30
00156e 87e9      	STD  Y+8+1,R30
00156f 01de      	MOVW R26,R28
001570 961a      	ADIW R26,10
001571 940e 19f7 	CALL __ADDW2R15
001573 940e 1a45 	CALL __GETW1P
001575 93fa      	ST   -Y,R31
001576 93ea      	ST   -Y,R30
001577 931a      	ST   -Y,R17
001578 930a      	ST   -Y,R16
001579 eeea      	LDI  R30,LOW(_put_buff_G100)
00157a e1f3      	LDI  R31,HIGH(_put_buff_G100)
00157b 93fa      	ST   -Y,R31
00157c 93ea      	ST   -Y,R30
00157d 01fe      	MOVW R30,R28
00157e 963a      	ADIW R30,10
00157f 93fa      	ST   -Y,R31
001580 93ea      	ST   -Y,R30
001581 dea0      	RCALL __print_G100
001582 019f      	MOVW R18,R30
001583 81ae      	LDD  R26,Y+6
001584 81bf      	LDD  R27,Y+6+1
001585 e0e0      	LDI  R30,LOW(0)
001586 93ec      	ST   X,R30
001587 01f9      	MOVW R30,R18
                 _0x2080004:
001588 940e 1a7c 	CALL __LOADLOCR4
00158a 962a      	ADIW R28,10
00158b 90ff      	POP  R15
00158c 9508      	RET
                 	#ifndef __SLEEP_DEFINED__
                 	#endif
                 
                 	.DSEG
                 
                 	.CSEG
                 __lcd_write_nibble_G101:
00158d 81e8      	LD   R30,Y
00158e 71e0      	ANDI R30,LOW(0x10)
00158f f011      	BREQ _0x2020004
001590 9ac4      	SBI  0x18,4
001591 c001      	RJMP _0x2020005
                 _0x2020004:
001592 98c4      	CBI  0x18,4
                 _0x2020005:
001593 81e8      	LD   R30,Y
001594 72e0      	ANDI R30,LOW(0x20)
001595 f011      	BREQ _0x2020006
001596 9ac5      	SBI  0x18,5
001597 c001      	RJMP _0x2020007
                 _0x2020006:
001598 98c5      	CBI  0x18,5
                 _0x2020007:
001599 81e8      	LD   R30,Y
00159a 74e0      	ANDI R30,LOW(0x40)
00159b f011      	BREQ _0x2020008
00159c 9ac6      	SBI  0x18,6
00159d c001      	RJMP _0x2020009
                 _0x2020008:
00159e 98c6      	CBI  0x18,6
                 _0x2020009:
00159f 81e8      	LD   R30,Y
0015a0 78e0      	ANDI R30,LOW(0x80)
0015a1 f011      	BREQ _0x202000A
0015a2 9ac7      	SBI  0x18,7
0015a3 c001      	RJMP _0x202000B
                 _0x202000A:
0015a4 98c7      	CBI  0x18,7
                 _0x202000B:
                +
0015a5 e088     +LDI R24 , LOW ( 8 )
                +__DELAY_USB_LOOP :
0015a6 958a     +DEC R24
0015a7 f7f1     +BRNE __DELAY_USB_LOOP
                 	__DELAY_USB 8
0015a8 9ac2      	SBI  0x18,2
                +
0015a9 e184     +LDI R24 , LOW ( 20 )
                +__DELAY_USB_LOOP :
0015aa 958a     +DEC R24
0015ab f7f1     +BRNE __DELAY_USB_LOOP
                 	__DELAY_USB 20
0015ac 98c2      	CBI  0x18,2
                +
0015ad e184     +LDI R24 , LOW ( 20 )
                +__DELAY_USB_LOOP :
0015ae 958a     +DEC R24
0015af f7f1     +BRNE __DELAY_USB_LOOP
                 	__DELAY_USB 20
0015b0 c0a1      	RJMP _0x2080001
                 __lcd_write_data:
0015b1 81e8      	LD   R30,Y
0015b2 93ea      	ST   -Y,R30
0015b3 dfd9      	RCALL __lcd_write_nibble_G101
0015b4 81e8          ld    r30,y
0015b5 95e2          swap  r30
0015b6 83e8          st    y,r30
0015b7 81e8      	LD   R30,Y
0015b8 93ea      	ST   -Y,R30
0015b9 dfd3      	RCALL __lcd_write_nibble_G101
                +
0015ba ec88     +LDI R24 , LOW ( 200 )
                +__DELAY_USB_LOOP :
0015bb 958a     +DEC R24
0015bc f7f1     +BRNE __DELAY_USB_LOOP
                 	__DELAY_USB 200
0015bd c094      	RJMP _0x2080001
                 _lcd_write_byte:
0015be 81e9      	LDD  R30,Y+1
0015bf 93ea      	ST   -Y,R30
0015c0 dff0      	RCALL __lcd_write_data
0015c1 940e 19d5 	CALL SUBOPT_0x8B
0015c3 c00f      	RJMP _0x2080003
                 _lcd_gotoxy:
0015c4 81e8      	LD   R30,Y
0015c5 e0f0      	LDI  R31,0
0015c6 55ea      	SUBI R30,LOW(-__base_y_G101)
0015c7 4ffd      	SBCI R31,HIGH(-__base_y_G101)
0015c8 81e0      	LD   R30,Z
0015c9 81a9      	LDD  R26,Y+1
0015ca 0fea      	ADD  R30,R26
0015cb 93ea      	ST   -Y,R30
0015cc dfe4      	RCALL __lcd_write_data
0015cd 81e9      	LDD  R30,Y+1
0015ce 93e0 02aa 	STS  __lcd_x,R30
0015d0 81e8      	LD   R30,Y
0015d1 93e0 02ab 	STS  __lcd_y,R30
                 _0x2080003:
0015d3 9622      	ADIW R28,2
0015d4 9508      	RET
                 _lcd_clear:
0015d5 e0e2      	LDI  R30,LOW(2)
0015d6 940e 19dc 	CALL SUBOPT_0x8C
0015d8 e0ec      	LDI  R30,LOW(12)
0015d9 93ea      	ST   -Y,R30
0015da dfd6      	RCALL __lcd_write_data
0015db e0e1      	LDI  R30,LOW(1)
0015dc 940e 19dc 	CALL SUBOPT_0x8C
0015de e0e0      	LDI  R30,LOW(0)
0015df 93e0 02ab 	STS  __lcd_y,R30
0015e1 93e0 02aa 	STS  __lcd_x,R30
0015e3 9508      	RET
                 _lcd_putchar:
0015e4 81a8      	LD   R26,Y
0015e5 30aa      	CPI  R26,LOW(0xA)
0015e6 f031      	BREQ _0x2020011
0015e7 91e0 02ac 	LDS  R30,__lcd_maxx
0015e9 91a0 02aa 	LDS  R26,__lcd_x
0015eb 17ae      	CP   R26,R30
0015ec f068      	BRLO _0x2020010
                 _0x2020011:
0015ed e0e0      	LDI  R30,LOW(0)
0015ee 93ea      	ST   -Y,R30
0015ef 91e0 02ab 	LDS  R30,__lcd_y
0015f1 5fef      	SUBI R30,-LOW(1)
0015f2 93e0 02ab 	STS  __lcd_y,R30
0015f4 93ea      	ST   -Y,R30
0015f5 dfce      	RCALL _lcd_gotoxy
0015f6 81a8      	LD   R26,Y
0015f7 30aa      	CPI  R26,LOW(0xA)
0015f8 f409      	BRNE _0x2020013
0015f9 c058      	RJMP _0x2080001
                 _0x2020013:
                 _0x2020010:
0015fa 91e0 02aa 	LDS  R30,__lcd_x
0015fc 5fef      	SUBI R30,-LOW(1)
0015fd 93e0 02aa 	STS  __lcd_x,R30
0015ff 940e 19d5 	CALL SUBOPT_0x8B
001601 c050      	RJMP _0x2080001
                 _lcd_puts:
001602 931a      	ST   -Y,R17
                 _0x2020014:
001603 81a9      	LDD  R26,Y+1
001604 81ba      	LDD  R27,Y+1+1
001605 91ed      	LD   R30,X+
001606 83a9      	STD  Y+1,R26
001607 83ba      	STD  Y+1+1,R27
001608 2f1e      	MOV  R17,R30
001609 30e0      	CPI  R30,0
00160a f019      	BREQ _0x2020016
00160b 931a      	ST   -Y,R17
00160c dfd7      	RCALL _lcd_putchar
00160d cff5      	RJMP _0x2020014
                 _0x2020016:
00160e c00e      	RJMP _0x2080002
                 _lcd_putsf:
00160f 931a      	ST   -Y,R17
                 _0x2020017:
001610 81e9      	LDD  R30,Y+1
001611 81fa      	LDD  R31,Y+1+1
001612 9631      	ADIW R30,1
001613 83e9      	STD  Y+1,R30
001614 83fa      	STD  Y+1+1,R31
001615 9731      	SBIW R30,1
001616 91e4      	LPM  R30,Z
001617 2f1e      	MOV  R17,R30
001618 30e0      	CPI  R30,0
001619 f019      	BREQ _0x2020019
00161a 931a      	ST   -Y,R17
00161b dfc8      	RCALL _lcd_putchar
00161c cff3      	RJMP _0x2020017
                 _0x2020019:
                 _0x2080002:
00161d 8118      	LDD  R17,Y+0
00161e 9623      	ADIW R28,3
00161f 9508      	RET
                 _lcd_init:
001620 9abc      	SBI  0x17,4
001621 9abd      	SBI  0x17,5
001622 9abe      	SBI  0x17,6
001623 9abf      	SBI  0x17,7
001624 9aba      	SBI  0x17,2
001625 9ab8      	SBI  0x17,0
001626 9ab9      	SBI  0x17,1
001627 98c2      	CBI  0x18,2
001628 98c0      	CBI  0x18,0
001629 98c1      	CBI  0x18,1
00162a 81e8      	LD   R30,Y
00162b 93e0 02ac 	STS  __lcd_maxx,R30
00162d 58e0      	SUBI R30,-LOW(128)
                +
00162e 93e0 02a8+STS __base_y_G101 + ( 2 ) , R30
                 	__PUTB1MN __base_y_G101,2
001630 81e8      	LD   R30,Y
001631 54e0      	SUBI R30,-LOW(192)
                +
001632 93e0 02a9+STS __base_y_G101 + ( 3 ) , R30
                 	__PUTB1MN __base_y_G101,3
001634 e1e4      	LDI  R30,LOW(20)
001635 e0f0      	LDI  R31,HIGH(20)
001636 940e 186e 	CALL SUBOPT_0x52
001638 940e 19e2 	CALL SUBOPT_0x8D
00163a 940e 19e2 	CALL SUBOPT_0x8D
00163c 940e 19e2 	CALL SUBOPT_0x8D
00163e e2e0      	LDI  R30,LOW(32)
00163f 93ea      	ST   -Y,R30
001640 df4c      	RCALL __lcd_write_nibble_G101
                +
001641 e28c     +LDI R24 , LOW ( 300 )
001642 e091     +LDI R25 , HIGH ( 300 )
                +__DELAY_USW_LOOP :
001643 9701     +SBIW R24 , 1
001644 f7f1     +BRNE __DELAY_USW_LOOP
                 	__DELAY_USW 300
001645 e2e8      	LDI  R30,LOW(40)
001646 93ea      	ST   -Y,R30
001647 df69      	RCALL __lcd_write_data
001648 e0e4      	LDI  R30,LOW(4)
001649 93ea      	ST   -Y,R30
00164a df66      	RCALL __lcd_write_data
00164b e8e5      	LDI  R30,LOW(133)
00164c 93ea      	ST   -Y,R30
00164d df63      	RCALL __lcd_write_data
00164e e0e6      	LDI  R30,LOW(6)
00164f 93ea      	ST   -Y,R30
001650 df60      	RCALL __lcd_write_data
001651 df83      	RCALL _lcd_clear
                 _0x2080001:
001652 9621      	ADIW R28,1
001653 9508      	RET
                 
                 	.CSEG
                 
                 	.CSEG
                 _strlen:
001654 91a9          ld   r26,y+
001655 91b9          ld   r27,y+
001656 27ee          clr  r30
001657 27ff          clr  r31
                 strlen0:
001658 916d          ld   r22,x+
001659 2366          tst  r22
00165a f011          breq strlen1
00165b 9631          adiw r30,1
00165c cffb          rjmp strlen0
                 strlen1:
00165d 9508          ret
                 _strlenf:
00165e 27aa          clr  r26
00165f 27bb          clr  r27
001660 91e9          ld   r30,y+
001661 91f9          ld   r31,y+
                 strlenf0:
001662 9005      	lpm  r0,z+
001663 2000          tst  r0
001664 f011          breq strlenf1
001665 9611          adiw r26,1
001666 cffb          rjmp strlenf0
                 strlenf1:
001667 01fd          movw r30,r26
001668 9508          ret
                 
                 	.DSEG
                 _lcd:
000260           	.BYTE 0x20
                 _adc6:
000280           	.BYTE 0x1
                 _adc7:
000281           	.BYTE 0x1
                 _xcount:
000282           	.BYTE 0x1
                 _SP:
000283           	.BYTE 0x1
                 _lpwm:
000284           	.BYTE 0x2
                 _rpwm:
000286           	.BYTE 0x2
                 _MAXPWM:
000288           	.BYTE 0x2
                 _MINPWM:
00028a           	.BYTE 0x2
                 __MINPWM:
00028c           	.BYTE 0x2
                 _intervalPWM:
00028e           	.BYTE 0x2
                 _MV:
000290           	.BYTE 0x2
                 _P:
000292           	.BYTE 0x2
                 _I:
000294           	.BYTE 0x2
                 _D:
000296           	.BYTE 0x2
                 _PV:
000298           	.BYTE 0x2
                 _error:
00029a           	.BYTE 0x2
                 _last_error:
00029c           	.BYTE 0x2
                 _rate:
00029e           	.BYTE 0x2
                 _var_Kp:
0002a0           	.BYTE 0x2
                 _var_Ki:
0002a2           	.BYTE 0x2
                 _var_Kd:
0002a4           	.BYTE 0x2
                 
                 	.ESEG
                 _Kp:
000000 11        	.DB  0x11
                 _Ki:
000001 00        	.DB  0x0
                 _Kd:
000002 0b        	.DB  0xB
                 _tempKp:
000003 11        	.DB  0x11
                 _tempKi:
000004 00        	.DB  0x0
                 _tempKd:
000005 0b        	.DB  0xB
                 _MAXSpeed:
000006 ff        	.DB  0xFF
                 _MINSpeed:
000007 64        	.DB  0x64
                 _WarnaGaris:
000008 01        	.DB  0x1
                 _SensLine:
000009 02        	.DB  0x2
                 _Skenario:
00000a 02        	.DB  0x2
                 _Mode:
00000b 01        	.DB  0x1
                 _NoStrategi:
00000c 01        	.DB  0x1
                 _bt7:
00000d 07        	.DB  0x7
                 _bt6:
00000e 07        	.DB  0x7
                 _bt5:
00000f 07        	.DB  0x7
                 _bt4:
000010 07        	.DB  0x7
                 _bt3:
000011 07        	.DB  0x7
                 _bt2:
000012 07        	.DB  0x7
                 _bt1:
000013 07        	.DB  0x7
                 _bt0:
000014 07        	.DB  0x7
                 _ba7:
000015 07        	.DB  0x7
                 _ba6:
000016 07        	.DB  0x7
                 _ba5:
000017 07        	.DB  0x7
                 _ba4:
000018 07        	.DB  0x7
                 _ba3:
000019 07        	.DB  0x7
                 _ba2:
00001a 07        	.DB  0x7
                 _ba1:
00001b 07        	.DB  0x7
                 _ba0:
00001c 07        	.DB  0x7
                 _bb7:
00001d c8        	.DB  0xC8
                 _bb6:
00001e c8        	.DB  0xC8
                 _bb5:
00001f c8        	.DB  0xC8
                 _bb4:
000020 c8        	.DB  0xC8
                 _bb3:
000021 c8        	.DB  0xC8
                 _bb2:
000022 c8        	.DB  0xC8
                 _bb1:
000023 c8        	.DB  0xC8
                 _bb0:
000024 c8        	.DB  0xC8
                 
                 	.DSEG
                 __base_y_G101:
0002a6           	.BYTE 0x4
                 __lcd_x:
0002aa           	.BYTE 0x1
                 __lcd_y:
0002ab           	.BYTE 0x1
                 __lcd_maxx:
0002ac           	.BYTE 0x1
                 
                 	.CSEG
                 ;OPTIMIZER ADDED SUBROUTINE, CALLED 7 TIMES, CODE SIZE REDUCTION:9 WORDS
                 SUBOPT_0x0:
001669 91e0 0284 	LDS  R30,_lpwm
00166b 91f0 0285 	LDS  R31,_lpwm+1
00166d 9508      	RET
                 
                 ;OPTIMIZER ADDED SUBROUTINE, CALLED 2 TIMES, CODE SIZE REDUCTION:2 WORDS
                 SUBOPT_0x1:
00166e 91a0 0282 	LDS  R26,_xcount
001670 e0b0      	LDI  R27,0
001671 17ea      	CP   R30,R26
001672 07fb      	CPC  R31,R27
001673 9508      	RET
                 
                 ;OPTIMIZER ADDED SUBROUTINE, CALLED 6 TIMES, CODE SIZE REDUCTION:7 WORDS
                 SUBOPT_0x2:
001674 91e0 0286 	LDS  R30,_rpwm
001676 91f0 0287 	LDS  R31,_rpwm+1
001678 9508      	RET
                 
                 ;OPTIMIZER ADDED SUBROUTINE, CALLED 2 TIMES, CODE SIZE REDUCTION:4 WORDS
                 SUBOPT_0x3:
001679 940e 1a24 	CALL __DIVW21
00167b 2f1e      	MOV  R17,R30
00167c 5d10      	SUBI R17,-LOW(48)
00167d 931a      	ST   -Y,R17
00167e 940e 15e4 	CALL _lcd_putchar
001680 81a9      	LDD  R26,Y+1
001681 27bb      	CLR  R27
001682 9508      	RET
                 
                 ;OPTIMIZER ADDED SUBROUTINE, CALLED 50 TIMES, CODE SIZE REDUCTION:193 WORDS
                 SUBOPT_0x4:
001683 e0e0      	LDI  R30,LOW(0)
001684 93ea      	ST   -Y,R30
001685 93ea      	ST   -Y,R30
001686 940c 15c4 	JMP  _lcd_gotoxy
                 
                 ;OPTIMIZER ADDED SUBROUTINE, CALLED 72 TIMES, CODE SIZE REDUCTION:139 WORDS
                 SUBOPT_0x5:
001688 93fa      	ST   -Y,R31
001689 93ea      	ST   -Y,R30
00168a 940c 160f 	JMP  _lcd_putsf
                 
                 ;OPTIMIZER ADDED SUBROUTINE, CALLED 12 TIMES, CODE SIZE REDUCTION:41 WORDS
                 SUBOPT_0x6:
00168c e0f0      	LDI  R31,0
00168d 30e1      	CPI  R30,LOW(0x1)
00168e e0a0      	LDI  R26,HIGH(0x1)
00168f 07fa      	CPC  R31,R26
001690 9508      	RET
                 
                 ;OPTIMIZER ADDED SUBROUTINE, CALLED 6 TIMES, CODE SIZE REDUCTION:17 WORDS
                 SUBOPT_0x7:
001691 ece8      	LDI  R30,LOW(200)
001692 e0f0      	LDI  R31,HIGH(200)
001693 93fa      	ST   -Y,R31
001694 93ea      	ST   -Y,R30
001695 940c 19eb 	JMP  _delay_ms
                 
                 ;OPTIMIZER ADDED SUBROUTINE, CALLED 21 TIMES, CODE SIZE REDUCTION:37 WORDS
                 SUBOPT_0x8:
001697 940e 15d5 	CALL _lcd_clear
001699 cfe9      	RJMP SUBOPT_0x4
                 
                 ;OPTIMIZER ADDED SUBROUTINE, CALLED 25 TIMES, CODE SIZE REDUCTION:93 WORDS
                 SUBOPT_0x9:
00169a e9e6      	LDI  R30,LOW(150)
00169b e0f0      	LDI  R31,HIGH(150)
00169c 93fa      	ST   -Y,R31
00169d 93ea      	ST   -Y,R30
00169e 940c 19eb 	JMP  _delay_ms
                 
                 ;OPTIMIZER ADDED SUBROUTINE, CALLED 30 TIMES, CODE SIZE REDUCTION:113 WORDS
                 SUBOPT_0xA:
0016a0 e0e0      	LDI  R30,LOW(0)
0016a1 93ea      	ST   -Y,R30
0016a2 e0e1      	LDI  R30,LOW(1)
0016a3 93ea      	ST   -Y,R30
0016a4 940c 15c4 	JMP  _lcd_gotoxy
                 
                 ;OPTIMIZER ADDED SUBROUTINE, CALLED 2 TIMES, CODE SIZE REDUCTION:3 WORDS
                 SUBOPT_0xB:
0016a6 e6e4      	LDI  R30,LOW(100)
0016a7 e0f0      	LDI  R31,HIGH(100)
0016a8 93fa      	ST   -Y,R31
0016a9 93ea      	ST   -Y,R30
0016aa 940e 19eb 	CALL _delay_ms
0016ac 940c 15d5 	JMP  _lcd_clear
                 
                 ;OPTIMIZER ADDED SUBROUTINE, CALLED 18 TIMES, CODE SIZE REDUCTION:65 WORDS
                 SUBOPT_0xC:
0016ae e7ed      	LDI  R30,LOW(125)
0016af e0f0      	LDI  R31,HIGH(125)
0016b0 93fa      	ST   -Y,R31
0016b1 93ea      	ST   -Y,R30
0016b2 940c 19eb 	JMP  _delay_ms
                 
                 ;OPTIMIZER ADDED SUBROUTINE, CALLED 21 TIMES, CODE SIZE REDUCTION:37 WORDS
                 SUBOPT_0xD:
0016b4 e0e0      	LDI  R30,LOW(0)
0016b5 93ea      	ST   -Y,R30
0016b6 940c 15e4 	JMP  _lcd_putchar
                 
                 ;OPTIMIZER ADDED SUBROUTINE, CALLED 17 TIMES, CODE SIZE REDUCTION:29 WORDS
                 SUBOPT_0xE:
0016b8 e2e0      	LDI  R30,LOW(32)
0016b9 93ea      	ST   -Y,R30
0016ba 940c 15e4 	JMP  _lcd_putchar
                 
                 ;OPTIMIZER ADDED SUBROUTINE, CALLED 3 TIMES, CODE SIZE REDUCTION:1 WORDS
                 SUBOPT_0xF:
0016bc e0a0      	LDI  R26,LOW(_Kp)
0016bd e0b0      	LDI  R27,HIGH(_Kp)
0016be 940e 1a52 	CALL __EEPROMRDB
0016c0 9508      	RET
                 
                 ;OPTIMIZER ADDED SUBROUTINE, CALLED 5 TIMES, CODE SIZE REDUCTION:9 WORDS
                 SUBOPT_0x10:
0016c1 93ea      	ST   -Y,R30
0016c2 940e 0274 	CALL _tampil
0016c4 cff3      	RJMP SUBOPT_0xE
                 
                 ;OPTIMIZER ADDED SUBROUTINE, CALLED 4 TIMES, CODE SIZE REDUCTION:3 WORDS
                 SUBOPT_0x11:
0016c5 e0a1      	LDI  R26,LOW(_Ki)
0016c6 e0b0      	LDI  R27,HIGH(_Ki)
0016c7 940e 1a52 	CALL __EEPROMRDB
0016c9 9508      	RET
                 
                 ;OPTIMIZER ADDED SUBROUTINE, CALLED 3 TIMES, CODE SIZE REDUCTION:1 WORDS
                 SUBOPT_0x12:
0016ca 940e 1a52 	CALL __EEPROMRDB
0016cc cff4      	RJMP SUBOPT_0x10
                 
                 ;OPTIMIZER ADDED SUBROUTINE, CALLED 2 TIMES, CODE SIZE REDUCTION:1 WORDS
                 SUBOPT_0x13:
0016cd e0e0      	LDI  R30,LOW(0)
0016ce 93ea      	ST   -Y,R30
0016cf 940e 15c4 	CALL _lcd_gotoxy
0016d1 cfe2      	RJMP SUBOPT_0xD
                 
                 ;OPTIMIZER ADDED SUBROUTINE, CALLED 4 TIMES, CODE SIZE REDUCTION:3 WORDS
                 SUBOPT_0x14:
0016d2 940e 02f4 	CALL _setByte
0016d4 cfbc      	RJMP SUBOPT_0x7
                 
                 ;OPTIMIZER ADDED SUBROUTINE, CALLED 11 TIMES, CODE SIZE REDUCTION:27 WORDS
                 SUBOPT_0x15:
0016d5 93ea      	ST   -Y,R30
0016d6 e0e1      	LDI  R30,LOW(1)
0016d7 93ea      	ST   -Y,R30
0016d8 940c 15c4 	JMP  _lcd_gotoxy
                 
                 ;OPTIMIZER ADDED SUBROUTINE, CALLED 11 TIMES, CODE SIZE REDUCTION:17 WORDS
                 SUBOPT_0x16:
0016da e0ab      	LDI  R26,LOW(_Mode)
0016db e0b0      	LDI  R27,HIGH(_Mode)
0016dc 940e 1a52 	CALL __EEPROMRDB
0016de 9508      	RET
                 
                 ;OPTIMIZER ADDED SUBROUTINE, CALLED 6 TIMES, CODE SIZE REDUCTION:7 WORDS
                 SUBOPT_0x17:
                +
0016df eee9     +LDI R30 , LOW ( 2 * _0x0 + ( 377 ) )
0016e0 e0f1     +LDI R31 , HIGH ( 2 * _0x0 + ( 377 ) )
                 	__POINTW1FN _0x0,377
0016e1 cfa6      	RJMP SUBOPT_0x5
                 
                 ;OPTIMIZER ADDED SUBROUTINE, CALLED 10 TIMES, CODE SIZE REDUCTION:24 WORDS
                 SUBOPT_0x18:
0016e2 93ea      	ST   -Y,R30
0016e3 e0e0      	LDI  R30,LOW(0)
0016e4 93ea      	ST   -Y,R30
0016e5 940c 15c4 	JMP  _lcd_gotoxy
                 
                 ;OPTIMIZER ADDED SUBROUTINE, CALLED 28 TIMES, CODE SIZE REDUCTION:51 WORDS
                 SUBOPT_0x19:
0016e7 e6e0      	LDI  R30,LOW(_lcd)
0016e8 e0f2      	LDI  R31,HIGH(_lcd)
0016e9 93fa      	ST   -Y,R31
0016ea 93ea      	ST   -Y,R30
0016eb 9508      	RET
                 
                 ;OPTIMIZER ADDED SUBROUTINE, CALLED 4 TIMES, CODE SIZE REDUCTION:3 WORDS
                 SUBOPT_0x1A:
0016ec e0e3      	LDI  R30,LOW(3)
0016ed 93ea      	ST   -Y,R30
0016ee 940c 024a 	JMP  _read_adc
                 
                 ;OPTIMIZER ADDED SUBROUTINE, CALLED 40 TIMES, CODE SIZE REDUCTION:114 WORDS
                 SUBOPT_0x1B:
0016f0 27ff      	CLR  R31
0016f1 2766      	CLR  R22
0016f2 2777      	CLR  R23
0016f3 940e 1a4d 	CALL __PUTPARD1
0016f5 9508      	RET
                 
                 ;OPTIMIZER ADDED SUBROUTINE, CALLED 4 TIMES, CODE SIZE REDUCTION:3 WORDS
                 SUBOPT_0x1C:
0016f6 e0e2      	LDI  R30,LOW(2)
0016f7 93ea      	ST   -Y,R30
0016f8 940c 024a 	JMP  _read_adc
                 
                 ;OPTIMIZER ADDED SUBROUTINE, CALLED 4 TIMES, CODE SIZE REDUCTION:3 WORDS
                 SUBOPT_0x1D:
0016fa e0e1      	LDI  R30,LOW(1)
0016fb 93ea      	ST   -Y,R30
0016fc 940c 024a 	JMP  _read_adc
                 
                 ;OPTIMIZER ADDED SUBROUTINE, CALLED 4 TIMES, CODE SIZE REDUCTION:3 WORDS
                 SUBOPT_0x1E:
0016fe e0e0      	LDI  R30,LOW(0)
0016ff 93ea      	ST   -Y,R30
001700 940c 024a 	JMP  _read_adc
                 
                 ;OPTIMIZER ADDED SUBROUTINE, CALLED 2 TIMES, CODE SIZE REDUCTION:1 WORDS
                 SUBOPT_0x1F:
001702 e180      	LDI  R24,16
001703 940e 1557 	CALL _sprintf
001705 9664      	ADIW R28,20
001706 cfe0      	RJMP SUBOPT_0x19
                 
                 ;OPTIMIZER ADDED SUBROUTINE, CALLED 4 TIMES, CODE SIZE REDUCTION:3 WORDS
                 SUBOPT_0x20:
001707 e0e7      	LDI  R30,LOW(7)
001708 93ea      	ST   -Y,R30
001709 940c 024a 	JMP  _read_adc
                 
                 ;OPTIMIZER ADDED SUBROUTINE, CALLED 4 TIMES, CODE SIZE REDUCTION:3 WORDS
                 SUBOPT_0x21:
00170b e0e6      	LDI  R30,LOW(6)
00170c 93ea      	ST   -Y,R30
00170d 940c 024a 	JMP  _read_adc
                 
                 ;OPTIMIZER ADDED SUBROUTINE, CALLED 4 TIMES, CODE SIZE REDUCTION:3 WORDS
                 SUBOPT_0x22:
00170f e0e5      	LDI  R30,LOW(5)
001710 93ea      	ST   -Y,R30
001711 940c 024a 	JMP  _read_adc
                 
                 ;OPTIMIZER ADDED SUBROUTINE, CALLED 4 TIMES, CODE SIZE REDUCTION:3 WORDS
                 SUBOPT_0x23:
001713 e0e4      	LDI  R30,LOW(4)
001714 93ea      	ST   -Y,R30
001715 940c 024a 	JMP  _read_adc
                 
                 ;OPTIMIZER ADDED SUBROUTINE, CALLED 3 TIMES, CODE SIZE REDUCTION:1 WORDS
                 SUBOPT_0x24:
001717 e1a4      	LDI  R26,LOW(_bt0)
001718 e0b0      	LDI  R27,HIGH(_bt0)
001719 940e 1a52 	CALL __EEPROMRDB
00171b 9508      	RET
                 
                 ;OPTIMIZER ADDED SUBROUTINE, CALLED 3 TIMES, CODE SIZE REDUCTION:1 WORDS
                 SUBOPT_0x25:
00171c e1a3      	LDI  R26,LOW(_bt1)
00171d e0b0      	LDI  R27,HIGH(_bt1)
00171e 940e 1a52 	CALL __EEPROMRDB
001720 9508      	RET
                 
                 ;OPTIMIZER ADDED SUBROUTINE, CALLED 3 TIMES, CODE SIZE REDUCTION:1 WORDS
                 SUBOPT_0x26:
001721 e1a2      	LDI  R26,LOW(_bt2)
001722 e0b0      	LDI  R27,HIGH(_bt2)
001723 940e 1a52 	CALL __EEPROMRDB
001725 9508      	RET
                 
                 ;OPTIMIZER ADDED SUBROUTINE, CALLED 3 TIMES, CODE SIZE REDUCTION:1 WORDS
                 SUBOPT_0x27:
001726 e1a1      	LDI  R26,LOW(_bt3)
001727 e0b0      	LDI  R27,HIGH(_bt3)
001728 940e 1a52 	CALL __EEPROMRDB
00172a 9508      	RET
                 
                 ;OPTIMIZER ADDED SUBROUTINE, CALLED 3 TIMES, CODE SIZE REDUCTION:1 WORDS
                 SUBOPT_0x28:
00172b e1a0      	LDI  R26,LOW(_bt4)
00172c e0b0      	LDI  R27,HIGH(_bt4)
00172d 940e 1a52 	CALL __EEPROMRDB
00172f 9508      	RET
                 
                 ;OPTIMIZER ADDED SUBROUTINE, CALLED 3 TIMES, CODE SIZE REDUCTION:1 WORDS
                 SUBOPT_0x29:
001730 e0af      	LDI  R26,LOW(_bt5)
001731 e0b0      	LDI  R27,HIGH(_bt5)
001732 940e 1a52 	CALL __EEPROMRDB
001734 9508      	RET
                 
                 ;OPTIMIZER ADDED SUBROUTINE, CALLED 3 TIMES, CODE SIZE REDUCTION:1 WORDS
                 SUBOPT_0x2A:
001735 e0ae      	LDI  R26,LOW(_bt6)
001736 e0b0      	LDI  R27,HIGH(_bt6)
001737 940e 1a52 	CALL __EEPROMRDB
001739 9508      	RET
                 
                 ;OPTIMIZER ADDED SUBROUTINE, CALLED 3 TIMES, CODE SIZE REDUCTION:1 WORDS
                 SUBOPT_0x2B:
00173a e0ad      	LDI  R26,LOW(_bt7)
00173b e0b0      	LDI  R27,HIGH(_bt7)
00173c 940e 1a52 	CALL __EEPROMRDB
00173e 9508      	RET
                 
                 ;OPTIMIZER ADDED SUBROUTINE, CALLED 3 TIMES, CODE SIZE REDUCTION:5 WORDS
                 SUBOPT_0x2C:
00173f efef      	LDI  R30,LOW(255)
001740 e0f0      	LDI  R31,HIGH(255)
001741 93e0 0286 	STS  _rpwm,R30
001743 93f0 0287 	STS  _rpwm+1,R31
001745 9508      	RET
                 
                 ;OPTIMIZER ADDED SUBROUTINE, CALLED 3 TIMES, CODE SIZE REDUCTION:5 WORDS
                 SUBOPT_0x2D:
001746 efef      	LDI  R30,LOW(255)
001747 e0f0      	LDI  R31,HIGH(255)
001748 93e0 0284 	STS  _lpwm,R30
00174a 93f0 0285 	STS  _lpwm+1,R31
00174c 9508      	RET
                 
                 ;OPTIMIZER ADDED SUBROUTINE, CALLED 7 TIMES, CODE SIZE REDUCTION:21 WORDS
                 SUBOPT_0x2E:
00174d e0ea      	LDI  R30,LOW(10)
00174e e0f0      	LDI  R31,HIGH(10)
00174f 93fa      	ST   -Y,R31
001750 93ea      	ST   -Y,R30
001751 940c 19eb 	JMP  _delay_ms
                 
                 ;OPTIMIZER ADDED SUBROUTINE, CALLED 3 TIMES, CODE SIZE REDUCTION:13 WORDS
                 SUBOPT_0x2F:
001753 e0e0      	LDI  R30,LOW(0)
001754 93e0 0284 	STS  _lpwm,R30
001756 93e0 0285 	STS  _lpwm+1,R30
001758 93e0 0286 	STS  _rpwm,R30
00175a 93e0 0287 	STS  _rpwm+1,R30
00175c 9508      	RET
                 
                 ;OPTIMIZER ADDED SUBROUTINE, CALLED 4 TIMES, CODE SIZE REDUCTION:6 WORDS
                 SUBOPT_0x30:
00175d 91ed      	LD   R30,X+
00175e 91fd      	LD   R31,X+
00175f 9631      	ADIW R30,1
001760 93fe      	ST   -X,R31
001761 93ee      	ST   -X,R30
001762 9508      	RET
                 
                 ;OPTIMIZER ADDED SUBROUTINE, CALLED 2 TIMES, CODE SIZE REDUCTION:17 WORDS
                 SUBOPT_0x31:
                +
001763 e5e9     +LDI R30 , LOW ( 2 * _0x0 + ( 489 ) )
001764 e0f2     +LDI R31 , HIGH ( 2 * _0x0 + ( 489 ) )
                 	__POINTW1FN _0x0,489
001765 93fa      	ST   -Y,R31
001766 93ea      	ST   -Y,R30
001767 df01      	RCALL SUBOPT_0x0
001768 940e 19ff 	CALL __CWD1
00176a 940e 1a4d 	CALL __PUTPARD1
00176c df07      	RCALL SUBOPT_0x2
00176d 940e 19ff 	CALL __CWD1
00176f 940e 1a4d 	CALL __PUTPARD1
001771 e088      	LDI  R24,8
001772 940e 1557 	CALL _sprintf
001774 962c      	ADIW R28,12
001775 cf71      	RJMP SUBOPT_0x19
                 
                 ;OPTIMIZER ADDED SUBROUTINE, CALLED 2 TIMES, CODE SIZE REDUCTION:77 WORDS
                 SUBOPT_0x32:
001776 931a      	ST   -Y,R17
001777 930a      	ST   -Y,R16
001778 e1a5      	LDI  R26,LOW(_ba7)
001779 e0b0      	LDI  R27,HIGH(_ba7)
00177a e0e7      	LDI  R30,LOW(7)
00177b 940e 1a5e 	CALL __EEPROMWRB
00177d e1a6      	LDI  R26,LOW(_ba6)
00177e e0b0      	LDI  R27,HIGH(_ba6)
00177f 940e 1a5e 	CALL __EEPROMWRB
001781 e1a7      	LDI  R26,LOW(_ba5)
001782 e0b0      	LDI  R27,HIGH(_ba5)
001783 940e 1a5e 	CALL __EEPROMWRB
001785 e1a8      	LDI  R26,LOW(_ba4)
001786 e0b0      	LDI  R27,HIGH(_ba4)
001787 940e 1a5e 	CALL __EEPROMWRB
001789 e1a9      	LDI  R26,LOW(_ba3)
00178a e0b0      	LDI  R27,HIGH(_ba3)
00178b 940e 1a5e 	CALL __EEPROMWRB
00178d e1aa      	LDI  R26,LOW(_ba2)
00178e e0b0      	LDI  R27,HIGH(_ba2)
00178f 940e 1a5e 	CALL __EEPROMWRB
001791 e1ab      	LDI  R26,LOW(_ba1)
001792 e0b0      	LDI  R27,HIGH(_ba1)
001793 940e 1a5e 	CALL __EEPROMWRB
001795 e1ac      	LDI  R26,LOW(_ba0)
001796 e0b0      	LDI  R27,HIGH(_ba0)
001797 940e 1a5e 	CALL __EEPROMWRB
001799 e1ad      	LDI  R26,LOW(_bb7)
00179a e0b0      	LDI  R27,HIGH(_bb7)
00179b ece8      	LDI  R30,LOW(200)
00179c 940e 1a5e 	CALL __EEPROMWRB
00179e e1ae      	LDI  R26,LOW(_bb6)
00179f e0b0      	LDI  R27,HIGH(_bb6)
0017a0 940e 1a5e 	CALL __EEPROMWRB
0017a2 e1af      	LDI  R26,LOW(_bb5)
0017a3 e0b0      	LDI  R27,HIGH(_bb5)
0017a4 940e 1a5e 	CALL __EEPROMWRB
0017a6 e2a0      	LDI  R26,LOW(_bb4)
0017a7 e0b0      	LDI  R27,HIGH(_bb4)
0017a8 940e 1a5e 	CALL __EEPROMWRB
0017aa e2a1      	LDI  R26,LOW(_bb3)
0017ab e0b0      	LDI  R27,HIGH(_bb3)
0017ac 940e 1a5e 	CALL __EEPROMWRB
0017ae e2a2      	LDI  R26,LOW(_bb2)
0017af e0b0      	LDI  R27,HIGH(_bb2)
0017b0 940e 1a5e 	CALL __EEPROMWRB
0017b2 e2a3      	LDI  R26,LOW(_bb1)
0017b3 e0b0      	LDI  R27,HIGH(_bb1)
0017b4 940e 1a5e 	CALL __EEPROMWRB
0017b6 e2a4      	LDI  R26,LOW(_bb0)
0017b7 e0b0      	LDI  R27,HIGH(_bb0)
0017b8 940e 1a5e 	CALL __EEPROMWRB
0017ba 9508      	RET
                 
                 ;OPTIMIZER ADDED SUBROUTINE, CALLED 2 TIMES, CODE SIZE REDUCTION:7 WORDS
                 SUBOPT_0x33:
0017bb 2f0e      	MOV  R16,R30
0017bc 2711      	CLR  R17
0017bd e2a4      	LDI  R26,LOW(_bb0)
0017be e0b0      	LDI  R27,HIGH(_bb0)
0017bf 940e 1a52 	CALL __EEPROMRDB
0017c1 01d8      	MOVW R26,R16
0017c2 e0f0      	LDI  R31,0
0017c3 17ae      	CP   R26,R30
0017c4 07bf      	CPC  R27,R31
0017c5 9508      	RET
                 
                 ;OPTIMIZER ADDED SUBROUTINE, CALLED 5 TIMES, CODE SIZE REDUCTION:5 WORDS
                 SUBOPT_0x34:
0017c6 e1ac      	LDI  R26,LOW(_ba0)
0017c7 e0b0      	LDI  R27,HIGH(_ba0)
0017c8 940e 1a52 	CALL __EEPROMRDB
0017ca 9508      	RET
                 
                 ;OPTIMIZER ADDED SUBROUTINE, CALLED 30 TIMES, CODE SIZE REDUCTION:55 WORDS
                 SUBOPT_0x35:
0017cb 01d8      	MOVW R26,R16
0017cc e0f0      	LDI  R31,0
0017cd 9508      	RET
                 
                 ;OPTIMIZER ADDED SUBROUTINE, CALLED 3 TIMES, CODE SIZE REDUCTION:1 WORDS
                 SUBOPT_0x36:
0017ce e2a4      	LDI  R26,LOW(_bb0)
0017cf e0b0      	LDI  R27,HIGH(_bb0)
0017d0 940e 1a52 	CALL __EEPROMRDB
0017d2 9508      	RET
                 
                 ;OPTIMIZER ADDED SUBROUTINE, CALLED 16 TIMES, CODE SIZE REDUCTION:117 WORDS
                 SUBOPT_0x37:
0017d3 e0f0      	LDI  R31,0
0017d4 01d0      	MOVW R26,R0
0017d5 0fae      	ADD  R26,R30
0017d6 1fbf      	ADC  R27,R31
0017d7 e0e2      	LDI  R30,LOW(2)
0017d8 e0f0      	LDI  R31,HIGH(2)
0017d9 940e 1a24 	CALL __DIVW21
0017db 9508      	RET
                 
                 ;OPTIMIZER ADDED SUBROUTINE, CALLED 9 TIMES, CODE SIZE REDUCTION:37 WORDS
                 SUBOPT_0x38:
0017dc 940e 1a5e 	CALL __EEPROMWRB
0017de 940e 15d5 	CALL _lcd_clear
0017e0 e0e1      	LDI  R30,LOW(1)
0017e1 cf00      	RJMP SUBOPT_0x18
                 
                 ;OPTIMIZER ADDED SUBROUTINE, CALLED 8 TIMES, CODE SIZE REDUCTION:11 WORDS
                 SUBOPT_0x39:
                +
0017e2 e8e0     +LDI R30 , LOW ( 2 * _0x0 + ( 528 ) )
0017e3 e0f2     +LDI R31 , HIGH ( 2 * _0x0 + ( 528 ) )
                 	__POINTW1FN _0x0,528
0017e4 93fa      	ST   -Y,R31
0017e5 93ea      	ST   -Y,R30
0017e6 9508      	RET
                 
                 ;OPTIMIZER ADDED SUBROUTINE, CALLED 8 TIMES, CODE SIZE REDUCTION:25 WORDS
                 SUBOPT_0x3A:
0017e7 e08c      	LDI  R24,12
0017e8 940e 1557 	CALL _sprintf
0017ea 9660      	ADIW R28,16
0017eb cefb      	RJMP SUBOPT_0x19
                 
                 ;OPTIMIZER ADDED SUBROUTINE, CALLED 2 TIMES, CODE SIZE REDUCTION:3 WORDS
                 SUBOPT_0x3B:
0017ec 940e 1602 	CALL _lcd_puts
0017ee e3e2      	LDI  R30,LOW(50)
0017ef e0f0      	LDI  R31,HIGH(50)
0017f0 93fa      	ST   -Y,R31
0017f1 93ea      	ST   -Y,R30
0017f2 940c 19eb 	JMP  _delay_ms
                 
                 ;OPTIMIZER ADDED SUBROUTINE, CALLED 2 TIMES, CODE SIZE REDUCTION:3 WORDS
                 SUBOPT_0x3C:
0017f4 2f0e      	MOV  R16,R30
0017f5 2711      	CLR  R17
0017f6 e2a3      	LDI  R26,LOW(_bb1)
0017f7 e0b0      	LDI  R27,HIGH(_bb1)
0017f8 940e 1a52 	CALL __EEPROMRDB
0017fa cfd0      	RJMP SUBOPT_0x35
                 
                 ;OPTIMIZER ADDED SUBROUTINE, CALLED 5 TIMES, CODE SIZE REDUCTION:5 WORDS
                 SUBOPT_0x3D:
0017fb e1ab      	LDI  R26,LOW(_ba1)
0017fc e0b0      	LDI  R27,HIGH(_ba1)
0017fd 940e 1a52 	CALL __EEPROMRDB
0017ff 9508      	RET
                 
                 ;OPTIMIZER ADDED SUBROUTINE, CALLED 3 TIMES, CODE SIZE REDUCTION:1 WORDS
                 SUBOPT_0x3E:
001800 e2a3      	LDI  R26,LOW(_bb1)
001801 e0b0      	LDI  R27,HIGH(_bb1)
001802 940e 1a52 	CALL __EEPROMRDB
001804 9508      	RET
                 
                 ;OPTIMIZER ADDED SUBROUTINE, CALLED 2 TIMES, CODE SIZE REDUCTION:3 WORDS
                 SUBOPT_0x3F:
001805 2f0e      	MOV  R16,R30
001806 2711      	CLR  R17
001807 e2a2      	LDI  R26,LOW(_bb2)
001808 e0b0      	LDI  R27,HIGH(_bb2)
001809 940e 1a52 	CALL __EEPROMRDB
00180b cfbf      	RJMP SUBOPT_0x35
                 
                 ;OPTIMIZER ADDED SUBROUTINE, CALLED 5 TIMES, CODE SIZE REDUCTION:5 WORDS
                 SUBOPT_0x40:
00180c e1aa      	LDI  R26,LOW(_ba2)
00180d e0b0      	LDI  R27,HIGH(_ba2)
00180e 940e 1a52 	CALL __EEPROMRDB
001810 9508      	RET
                 
                 ;OPTIMIZER ADDED SUBROUTINE, CALLED 3 TIMES, CODE SIZE REDUCTION:1 WORDS
                 SUBOPT_0x41:
001811 e2a2      	LDI  R26,LOW(_bb2)
001812 e0b0      	LDI  R27,HIGH(_bb2)
001813 940e 1a52 	CALL __EEPROMRDB
001815 9508      	RET
                 
                 ;OPTIMIZER ADDED SUBROUTINE, CALLED 6 TIMES, CODE SIZE REDUCTION:7 WORDS
                 SUBOPT_0x42:
001816 940e 1602 	CALL _lcd_puts
001818 cf34      	RJMP SUBOPT_0x2E
                 
                 ;OPTIMIZER ADDED SUBROUTINE, CALLED 2 TIMES, CODE SIZE REDUCTION:3 WORDS
                 SUBOPT_0x43:
001819 2f0e      	MOV  R16,R30
00181a 2711      	CLR  R17
00181b e2a1      	LDI  R26,LOW(_bb3)
00181c e0b0      	LDI  R27,HIGH(_bb3)
00181d 940e 1a52 	CALL __EEPROMRDB
00181f cfab      	RJMP SUBOPT_0x35
                 
                 ;OPTIMIZER ADDED SUBROUTINE, CALLED 5 TIMES, CODE SIZE REDUCTION:5 WORDS
                 SUBOPT_0x44:
001820 e1a9      	LDI  R26,LOW(_ba3)
001821 e0b0      	LDI  R27,HIGH(_ba3)
001822 940e 1a52 	CALL __EEPROMRDB
001824 9508      	RET
                 
                 ;OPTIMIZER ADDED SUBROUTINE, CALLED 3 TIMES, CODE SIZE REDUCTION:1 WORDS
                 SUBOPT_0x45:
001825 e2a1      	LDI  R26,LOW(_bb3)
001826 e0b0      	LDI  R27,HIGH(_bb3)
001827 940e 1a52 	CALL __EEPROMRDB
001829 9508      	RET
                 
                 ;OPTIMIZER ADDED SUBROUTINE, CALLED 2 TIMES, CODE SIZE REDUCTION:3 WORDS
                 SUBOPT_0x46:
00182a 2f0e      	MOV  R16,R30
00182b 2711      	CLR  R17
00182c e2a0      	LDI  R26,LOW(_bb4)
00182d e0b0      	LDI  R27,HIGH(_bb4)
00182e 940e 1a52 	CALL __EEPROMRDB
001830 cf9a      	RJMP SUBOPT_0x35
                 
                 ;OPTIMIZER ADDED SUBROUTINE, CALLED 5 TIMES, CODE SIZE REDUCTION:5 WORDS
                 SUBOPT_0x47:
001831 e1a8      	LDI  R26,LOW(_ba4)
001832 e0b0      	LDI  R27,HIGH(_ba4)
001833 940e 1a52 	CALL __EEPROMRDB
001835 9508      	RET
                 
                 ;OPTIMIZER ADDED SUBROUTINE, CALLED 3 TIMES, CODE SIZE REDUCTION:1 WORDS
                 SUBOPT_0x48:
001836 e2a0      	LDI  R26,LOW(_bb4)
001837 e0b0      	LDI  R27,HIGH(_bb4)
001838 940e 1a52 	CALL __EEPROMRDB
00183a 9508      	RET
                 
                 ;OPTIMIZER ADDED SUBROUTINE, CALLED 2 TIMES, CODE SIZE REDUCTION:3 WORDS
                 SUBOPT_0x49:
00183b 2f0e      	MOV  R16,R30
00183c 2711      	CLR  R17
00183d e1af      	LDI  R26,LOW(_bb5)
00183e e0b0      	LDI  R27,HIGH(_bb5)
00183f 940e 1a52 	CALL __EEPROMRDB
001841 cf89      	RJMP SUBOPT_0x35
                 
                 ;OPTIMIZER ADDED SUBROUTINE, CALLED 5 TIMES, CODE SIZE REDUCTION:5 WORDS
                 SUBOPT_0x4A:
001842 e1a7      	LDI  R26,LOW(_ba5)
001843 e0b0      	LDI  R27,HIGH(_ba5)
001844 940e 1a52 	CALL __EEPROMRDB
001846 9508      	RET
                 
                 ;OPTIMIZER ADDED SUBROUTINE, CALLED 3 TIMES, CODE SIZE REDUCTION:1 WORDS
                 SUBOPT_0x4B:
001847 e1af      	LDI  R26,LOW(_bb5)
001848 e0b0      	LDI  R27,HIGH(_bb5)
001849 940e 1a52 	CALL __EEPROMRDB
00184b 9508      	RET
                 
                 ;OPTIMIZER ADDED SUBROUTINE, CALLED 2 TIMES, CODE SIZE REDUCTION:3 WORDS
                 SUBOPT_0x4C:
00184c 2f0e      	MOV  R16,R30
00184d 2711      	CLR  R17
00184e e1ae      	LDI  R26,LOW(_bb6)
00184f e0b0      	LDI  R27,HIGH(_bb6)
001850 940e 1a52 	CALL __EEPROMRDB
001852 cf78      	RJMP SUBOPT_0x35
                 
                 ;OPTIMIZER ADDED SUBROUTINE, CALLED 5 TIMES, CODE SIZE REDUCTION:5 WORDS
                 SUBOPT_0x4D:
001853 e1a6      	LDI  R26,LOW(_ba6)
001854 e0b0      	LDI  R27,HIGH(_ba6)
001855 940e 1a52 	CALL __EEPROMRDB
001857 9508      	RET
                 
                 ;OPTIMIZER ADDED SUBROUTINE, CALLED 3 TIMES, CODE SIZE REDUCTION:1 WORDS
                 SUBOPT_0x4E:
001858 e1ae      	LDI  R26,LOW(_bb6)
001859 e0b0      	LDI  R27,HIGH(_bb6)
00185a 940e 1a52 	CALL __EEPROMRDB
00185c 9508      	RET
                 
                 ;OPTIMIZER ADDED SUBROUTINE, CALLED 2 TIMES, CODE SIZE REDUCTION:3 WORDS
                 SUBOPT_0x4F:
00185d 2f0e      	MOV  R16,R30
00185e 2711      	CLR  R17
00185f e1ad      	LDI  R26,LOW(_bb7)
001860 e0b0      	LDI  R27,HIGH(_bb7)
001861 940e 1a52 	CALL __EEPROMRDB
001863 cf67      	RJMP SUBOPT_0x35
                 
                 ;OPTIMIZER ADDED SUBROUTINE, CALLED 5 TIMES, CODE SIZE REDUCTION:5 WORDS
                 SUBOPT_0x50:
001864 e1a5      	LDI  R26,LOW(_ba7)
001865 e0b0      	LDI  R27,HIGH(_ba7)
001866 940e 1a52 	CALL __EEPROMRDB
001868 9508      	RET
                 
                 ;OPTIMIZER ADDED SUBROUTINE, CALLED 3 TIMES, CODE SIZE REDUCTION:1 WORDS
                 SUBOPT_0x51:
001869 e1ad      	LDI  R26,LOW(_bb7)
00186a e0b0      	LDI  R27,HIGH(_bb7)
00186b 940e 1a52 	CALL __EEPROMRDB
00186d 9508      	RET
                 
                 ;OPTIMIZER ADDED SUBROUTINE, CALLED 56 TIMES, CODE SIZE REDUCTION:107 WORDS
                 SUBOPT_0x52:
00186e 93fa      	ST   -Y,R31
00186f 93ea      	ST   -Y,R30
001870 940c 19eb 	JMP  _delay_ms
                 
                 ;OPTIMIZER ADDED SUBROUTINE, CALLED 14 TIMES, CODE SIZE REDUCTION:23 WORDS
                 SUBOPT_0x53:
001872 93e0 0298 	STS  _PV,R30
001874 93f0 0299 	STS  _PV+1,R31
001876 9508      	RET
                 
                 ;OPTIMIZER ADDED SUBROUTINE, CALLED 40 TIMES, CODE SIZE REDUCTION:75 WORDS
                 SUBOPT_0x54:
001877 91e0 028a 	LDS  R30,_MINPWM
001879 91f0 028b 	LDS  R31,_MINPWM+1
00187b 9508      	RET
                 
                 ;OPTIMIZER ADDED SUBROUTINE, CALLED 19 TIMES, CODE SIZE REDUCTION:141 WORDS
                 SUBOPT_0x55:
00187c 93e0 0284 	STS  _lpwm,R30
00187e 93f0 0285 	STS  _lpwm+1,R31
001880 dff6      	RCALL SUBOPT_0x54
001881 93e0 0286 	STS  _rpwm,R30
001883 93f0 0287 	STS  _rpwm+1,R31
001885 9508      	RET
                 
                 ;OPTIMIZER ADDED SUBROUTINE, CALLED 3 TIMES, CODE SIZE REDUCTION:1 WORDS
                 SUBOPT_0x56:
001886 91a0 0298 	LDS  R26,_PV
001888 91b0 0299 	LDS  R27,_PV+1
00188a 9508      	RET
                 
                 ;OPTIMIZER ADDED SUBROUTINE, CALLED 18 TIMES, CODE SIZE REDUCTION:31 WORDS
                 SUBOPT_0x57:
00188b dfeb      	RCALL SUBOPT_0x54
00188c cfef      	RJMP SUBOPT_0x55
                 
                 ;OPTIMIZER ADDED SUBROUTINE, CALLED 3 TIMES, CODE SIZE REDUCTION:1 WORDS
                 SUBOPT_0x58:
00188d 91e0 029a 	LDS  R30,_error
00188f 91f0 029b 	LDS  R31,_error+1
001891 9508      	RET
                 
                 ;OPTIMIZER ADDED SUBROUTINE, CALLED 2 TIMES, CODE SIZE REDUCTION:2 WORDS
                 SUBOPT_0x59:
001892 940e 1a0c 	CALL __MULW12
001894 01df      	MOVW R26,R30
001895 e0e2      	LDI  R30,LOW(2)
001896 e0f0      	LDI  R31,HIGH(2)
001897 940e 1a24 	CALL __DIVW21
001899 9508      	RET
                 
                 ;OPTIMIZER ADDED SUBROUTINE, CALLED 4 TIMES, CODE SIZE REDUCTION:3 WORDS
                 SUBOPT_0x5A:
00189a 91a0 028a 	LDS  R26,_MINPWM
00189c 91b0 028b 	LDS  R27,_MINPWM+1
00189e 9508      	RET
                 
                 ;OPTIMIZER ADDED SUBROUTINE, CALLED 2 TIMES, CODE SIZE REDUCTION:3 WORDS
                 SUBOPT_0x5B:
00189f e0e8      	LDI  R30,LOW(8)
0018a0 e0f0      	LDI  R31,HIGH(8)
0018a1 940e 1a24 	CALL __DIVW21
0018a3 93e0 028e 	STS  _intervalPWM,R30
0018a5 93f0 028f 	STS  _intervalPWM+1,R31
0018a7 9508      	RET
                 
                 ;OPTIMIZER ADDED SUBROUTINE, CALLED 22 TIMES, CODE SIZE REDUCTION:39 WORDS
                 SUBOPT_0x5C:
0018a8 93e0 0286 	STS  _rpwm,R30
0018aa 93f0 0287 	STS  _rpwm+1,R31
0018ac 9508      	RET
                 
                 ;OPTIMIZER ADDED SUBROUTINE, CALLED 22 TIMES, CODE SIZE REDUCTION:39 WORDS
                 SUBOPT_0x5D:
0018ad 93e0 0284 	STS  _lpwm,R30
0018af 93f0 0285 	STS  _lpwm+1,R31
0018b1 9508      	RET
                 
                 ;OPTIMIZER ADDED SUBROUTINE, CALLED 40 TIMES, CODE SIZE REDUCTION:231 WORDS
                 SUBOPT_0x5E:
0018b2 91a0 0288 	LDS  R26,_MAXPWM
0018b4 91b0 0289 	LDS  R27,_MAXPWM+1
0018b6 e0e2      	LDI  R30,LOW(2)
0018b7 e0f0      	LDI  R31,HIGH(2)
0018b8 940e 1a24 	CALL __DIVW21
0018ba 9508      	RET
                 
                 ;OPTIMIZER ADDED SUBROUTINE, CALLED 20 TIMES, CODE SIZE REDUCTION:35 WORDS
                 SUBOPT_0x5F:
0018bb dff1      	RCALL SUBOPT_0x5D
0018bc cff5      	RJMP SUBOPT_0x5E
                 
                 ;OPTIMIZER ADDED SUBROUTINE, CALLED 3 TIMES, CODE SIZE REDUCTION:1 WORDS
                 SUBOPT_0x60:
0018bd 940e 1326 	CALL _indikatorSudut
0018bf 940c 067c 	JMP  _baca_sensor
                 
                 ;OPTIMIZER ADDED SUBROUTINE, CALLED 4 TIMES, CODE SIZE REDUCTION:3 WORDS
                 SUBOPT_0x61:
0018c1 940e 067c 	CALL _baca_sensor
0018c3 cfc7      	RJMP SUBOPT_0x57
                 
                 ;OPTIMIZER ADDED SUBROUTINE, CALLED 30 TIMES, CODE SIZE REDUCTION:55 WORDS
                 SUBOPT_0x62:
0018c4 e0e5      	LDI  R30,LOW(5)
0018c5 93ea      	ST   -Y,R30
0018c6 940c 076a 	JMP  _stop
                 
                 ;OPTIMIZER ADDED SUBROUTINE, CALLED 37 TIMES, CODE SIZE REDUCTION:141 WORDS
                 SUBOPT_0x63:
0018c8 940e 075e 	CALL _maju
0018ca 940e 0719 	CALL _displaySensorBit
0018cc 940c 0b7f 	JMP  _scanBlackLine
                 
                 ;OPTIMIZER ADDED SUBROUTINE, CALLED 18 TIMES, CODE SIZE REDUCTION:31 WORDS
                 SUBOPT_0x64:
0018ce 940e 067c 	CALL _baca_sensor
0018d0 cfe1      	RJMP SUBOPT_0x5E
                 
                 ;OPTIMIZER ADDED SUBROUTINE, CALLED 9 TIMES, CODE SIZE REDUCTION:13 WORDS
                 SUBOPT_0x65:
0018d1 dfd6      	RCALL SUBOPT_0x5C
0018d2 940c 0785 	JMP  _rotkir
                 
                 ;OPTIMIZER ADDED SUBROUTINE, CALLED 4 TIMES, CODE SIZE REDUCTION:3 WORDS
                 SUBOPT_0x66:
0018d4 940e 1326 	CALL _indikatorSudut
0018d6 cfed      	RJMP SUBOPT_0x62
                 
                 ;OPTIMIZER ADDED SUBROUTINE, CALLED 9 TIMES, CODE SIZE REDUCTION:13 WORDS
                 SUBOPT_0x67:
0018d7 dfd0      	RCALL SUBOPT_0x5C
0018d8 940c 0780 	JMP  _rotkan
                 
                 ;OPTIMIZER ADDED SUBROUTINE, CALLED 4 TIMES, CODE SIZE REDUCTION:3 WORDS
                 SUBOPT_0x68:
0018da 940e 1327 	CALL _indikatorPerempatan
0018dc cfe7      	RJMP SUBOPT_0x62
                 
                 ;OPTIMIZER ADDED SUBROUTINE, CALLED 2 TIMES, CODE SIZE REDUCTION:4 WORDS
                 SUBOPT_0x69:
0018dd 91e0 028c 	LDS  R30,__MINPWM
0018df 91f0 028d 	LDS  R31,__MINPWM+1
0018e1 973a      	SBIW R30,10
0018e2 93e0 028a 	STS  _MINPWM,R30
0018e4 93f0 028b 	STS  _MINPWM+1,R31
0018e6 9508      	RET
                 
                 ;OPTIMIZER ADDED SUBROUTINE, CALLED 2 TIMES, CODE SIZE REDUCTION:12 WORDS
                 SUBOPT_0x6A:
0018e7 e1e1      	LDI  R30,LOW(17)
0018e8 e0f0      	LDI  R31,HIGH(17)
0018e9 93e0 02a0 	STS  _var_Kp,R30
0018eb 93f0 02a1 	STS  _var_Kp+1,R31
0018ed e0e0      	LDI  R30,LOW(0)
0018ee 93e0 02a2 	STS  _var_Ki,R30
0018f0 93e0 02a3 	STS  _var_Ki+1,R30
0018f2 e0eb      	LDI  R30,LOW(11)
0018f3 e0f0      	LDI  R31,HIGH(11)
0018f4 93e0 02a4 	STS  _var_Kd,R30
0018f6 93f0 02a5 	STS  _var_Kd+1,R31
0018f8 9508      	RET
                 
                 ;OPTIMIZER ADDED SUBROUTINE, CALLED 4 TIMES, CODE SIZE REDUCTION:15 WORDS
                 SUBOPT_0x6B:
0018f9 940e 1326 	CALL _indikatorSudut
0018fb e0ea      	LDI  R30,LOW(10)
0018fc 93ea      	ST   -Y,R30
0018fd 940e 076a 	CALL _stop
0018ff 940c 067c 	JMP  _baca_sensor
                 
                 ;OPTIMIZER ADDED SUBROUTINE, CALLED 5 TIMES, CODE SIZE REDUCTION:5 WORDS
                 SUBOPT_0x6C:
001901 940e 0762 	CALL _mundur
001903 cf87      	RJMP SUBOPT_0x57
                 
                 ;OPTIMIZER ADDED SUBROUTINE, CALLED 6 TIMES, CODE SIZE REDUCTION:17 WORDS
                 SUBOPT_0x6D:
001904 e0ea      	LDI  R30,LOW(10)
001905 93ea      	ST   -Y,R30
001906 940e 076a 	CALL _stop
001908 940c 067c 	JMP  _baca_sensor
                 
                 ;OPTIMIZER ADDED SUBROUTINE, CALLED 3 TIMES, CODE SIZE REDUCTION:1 WORDS
                 SUBOPT_0x6E:
00190a 940e 0780 	CALL _rotkan
00190c cf7e      	RJMP SUBOPT_0x57
                 
                 ;OPTIMIZER ADDED SUBROUTINE, CALLED 10 TIMES, CODE SIZE REDUCTION:15 WORDS
                 SUBOPT_0x6F:
00190d 940e 0719 	CALL _displaySensorBit
00190f 940c 0b7f 	JMP  _scanBlackLine
                 
                 ;OPTIMIZER ADDED SUBROUTINE, CALLED 2 TIMES, CODE SIZE REDUCTION:12 WORDS
                 SUBOPT_0x70:
001911 e0eb      	LDI  R30,LOW(11)
001912 e0f0      	LDI  R31,HIGH(11)
001913 93e0 02a0 	STS  _var_Kp,R30
001915 93f0 02a1 	STS  _var_Kp+1,R31
001917 e0e0      	LDI  R30,LOW(0)
001918 93e0 02a2 	STS  _var_Ki,R30
00191a 93e0 02a3 	STS  _var_Ki+1,R30
00191c e0e7      	LDI  R30,LOW(7)
00191d e0f0      	LDI  R31,HIGH(7)
00191e 93e0 02a4 	STS  _var_Kd,R30
001920 93f0 02a5 	STS  _var_Kd+1,R31
001922 9508      	RET
                 
                 ;OPTIMIZER ADDED SUBROUTINE, CALLED 4 TIMES, CODE SIZE REDUCTION:3 WORDS
                 SUBOPT_0x71:
001923 940e 0785 	CALL _rotkir
001925 cf65      	RJMP SUBOPT_0x57
                 
                 ;OPTIMIZER ADDED SUBROUTINE, CALLED 3 TIMES, CODE SIZE REDUCTION:1 WORDS
                 SUBOPT_0x72:
001926 91e0 028c 	LDS  R30,__MINPWM
001928 91f0 028d 	LDS  R31,__MINPWM+1
00192a 9508      	RET
                 
                 ;OPTIMIZER ADDED SUBROUTINE, CALLED 4 TIMES, CODE SIZE REDUCTION:3 WORDS
                 SUBOPT_0x73:
00192b 93e0 028a 	STS  _MINPWM,R30
00192d 93f0 028b 	STS  _MINPWM+1,R31
00192f 9508      	RET
                 
                 ;OPTIMIZER ADDED SUBROUTINE, CALLED 10 TIMES, CODE SIZE REDUCTION:15 WORDS
                 SUBOPT_0x74:
001930 e0ac      	LDI  R26,LOW(_NoStrategi)
001931 e0b0      	LDI  R27,HIGH(_NoStrategi)
001932 940e 1a52 	CALL __EEPROMRDB
001934 9508      	RET
                 
                 ;OPTIMIZER ADDED SUBROUTINE, CALLED 2 TIMES, CODE SIZE REDUCTION:5 WORDS
                 SUBOPT_0x75:
001935 9ac3      	SBI  0x18,3
001936 e0ac      	LDI  R26,LOW(_NoStrategi)
001937 e0b0      	LDI  R27,HIGH(_NoStrategi)
001938 e0e1      	LDI  R30,LOW(1)
001939 940e 1a5e 	CALL __EEPROMWRB
00193b e3e2      	LDI  R30,LOW(50)
00193c e0f0      	LDI  R31,HIGH(50)
00193d cf30      	RJMP SUBOPT_0x52
                 
                 ;OPTIMIZER ADDED SUBROUTINE, CALLED 12 TIMES, CODE SIZE REDUCTION:19 WORDS
                 SUBOPT_0x76:
                +
00193e e3e7     +LDI R30 , LOW ( 2 * _0x0 + ( 711 ) )
00193f e0f3     +LDI R31 , HIGH ( 2 * _0x0 + ( 711 ) )
                 	__POINTW1FN _0x0,711
001940 cd47      	RJMP SUBOPT_0x5
                 
                 ;OPTIMIZER ADDED SUBROUTINE, CALLED 36 TIMES, CODE SIZE REDUCTION:67 WORDS
                 SUBOPT_0x77:
001941 efea      	LDI  R30,LOW(250)
001942 e0f0      	LDI  R31,HIGH(250)
001943 cf2a      	RJMP SUBOPT_0x52
                 
                 ;OPTIMIZER ADDED SUBROUTINE, CALLED 2 TIMES, CODE SIZE REDUCTION:5 WORDS
                 SUBOPT_0x78:
001944 940e 0dac 	CALL _cekPoint1a
001946 940e 0e79 	CALL _cekPoint2a
001948 940e 0ece 	CALL _cekPoint3a
00194a 940e 0f89 	CALL _cekPoint4a
00194c 940c 0ff8 	JMP  _cekPoint5a
                 
                 ;OPTIMIZER ADDED SUBROUTINE, CALLED 2 TIMES, CODE SIZE REDUCTION:5 WORDS
                 SUBOPT_0x79:
00194e 9ac3      	SBI  0x18,3
00194f e0ac      	LDI  R26,LOW(_NoStrategi)
001950 e0b0      	LDI  R27,HIGH(_NoStrategi)
001951 e0e2      	LDI  R30,LOW(2)
001952 940e 1a5e 	CALL __EEPROMWRB
001954 e3e2      	LDI  R30,LOW(50)
001955 e0f0      	LDI  R31,HIGH(50)
001956 cf17      	RJMP SUBOPT_0x52
                 
                 ;OPTIMIZER ADDED SUBROUTINE, CALLED 2 TIMES, CODE SIZE REDUCTION:5 WORDS
                 SUBOPT_0x7A:
001957 9ac3      	SBI  0x18,3
001958 e0ac      	LDI  R26,LOW(_NoStrategi)
001959 e0b0      	LDI  R27,HIGH(_NoStrategi)
00195a e0e3      	LDI  R30,LOW(3)
00195b 940e 1a5e 	CALL __EEPROMWRB
00195d e3e2      	LDI  R30,LOW(50)
00195e e0f0      	LDI  R31,HIGH(50)
00195f cf0e      	RJMP SUBOPT_0x52
                 
                 ;OPTIMIZER ADDED SUBROUTINE, CALLED 2 TIMES, CODE SIZE REDUCTION:1 WORDS
                 SUBOPT_0x7B:
001960 940e 0ece 	CALL _cekPoint3a
001962 940e 0f89 	CALL _cekPoint4a
001964 940c 0ff8 	JMP  _cekPoint5a
                 
                 ;OPTIMIZER ADDED SUBROUTINE, CALLED 2 TIMES, CODE SIZE REDUCTION:5 WORDS
                 SUBOPT_0x7C:
001966 9ac3      	SBI  0x18,3
001967 e0ac      	LDI  R26,LOW(_NoStrategi)
001968 e0b0      	LDI  R27,HIGH(_NoStrategi)
001969 e0e4      	LDI  R30,LOW(4)
00196a 940e 1a5e 	CALL __EEPROMWRB
00196c e3e2      	LDI  R30,LOW(50)
00196d e0f0      	LDI  R31,HIGH(50)
00196e ceff      	RJMP SUBOPT_0x52
                 
                 ;OPTIMIZER ADDED SUBROUTINE, CALLED 2 TIMES, CODE SIZE REDUCTION:5 WORDS
                 SUBOPT_0x7D:
00196f 9ac3      	SBI  0x18,3
001970 e0ac      	LDI  R26,LOW(_NoStrategi)
001971 e0b0      	LDI  R27,HIGH(_NoStrategi)
001972 e0e5      	LDI  R30,LOW(5)
001973 940e 1a5e 	CALL __EEPROMWRB
001975 e3e2      	LDI  R30,LOW(50)
001976 e0f0      	LDI  R31,HIGH(50)
001977 cef6      	RJMP SUBOPT_0x52
                 
                 ;OPTIMIZER ADDED SUBROUTINE, CALLED 2 TIMES, CODE SIZE REDUCTION:5 WORDS
                 SUBOPT_0x7E:
001978 9ac3      	SBI  0x18,3
001979 e0ac      	LDI  R26,LOW(_NoStrategi)
00197a e0b0      	LDI  R27,HIGH(_NoStrategi)
00197b e0e6      	LDI  R30,LOW(6)
00197c 940e 1a5e 	CALL __EEPROMWRB
00197e e3e2      	LDI  R30,LOW(50)
00197f e0f0      	LDI  R31,HIGH(50)
001980 ceed      	RJMP SUBOPT_0x52
                 
                 ;OPTIMIZER ADDED SUBROUTINE, CALLED 2 TIMES, CODE SIZE REDUCTION:5 WORDS
                 SUBOPT_0x7F:
001981 940e 114b 	CALL _cekPoint1b
001983 940e 1212 	CALL _cekPoint2b
001985 940e 1214 	CALL _cekPoint3b
001987 940e 1216 	CALL _cekPoint4b
001989 940c 1218 	JMP  _cekPoint5b
                 
                 ;OPTIMIZER ADDED SUBROUTINE, CALLED 2 TIMES, CODE SIZE REDUCTION:1 WORDS
                 SUBOPT_0x80:
00198b 940e 1214 	CALL _cekPoint3b
00198d 940e 1216 	CALL _cekPoint4b
00198f 940c 1218 	JMP  _cekPoint5b
                 
                 ;OPTIMIZER ADDED SUBROUTINE, CALLED 3 TIMES, CODE SIZE REDUCTION:1 WORDS
                 SUBOPT_0x81:
001991 e0e1      	LDI  R30,LOW(1)
001992 93ea      	ST   -Y,R30
001993 940c 076a 	JMP  _stop
                 
                 ;OPTIMIZER ADDED SUBROUTINE, CALLED 2 TIMES, CODE SIZE REDUCTION:2 WORDS
                 SUBOPT_0x82:
001995 e0f0      	LDI  R31,0
001996 93e0 02a0 	STS  _var_Kp,R30
001998 93f0 02a1 	STS  _var_Kp+1,R31
00199a 9508      	RET
                 
                 ;OPTIMIZER ADDED SUBROUTINE, CALLED 2 TIMES, CODE SIZE REDUCTION:2 WORDS
                 SUBOPT_0x83:
00199b e0f0      	LDI  R31,0
00199c 93e0 02a2 	STS  _var_Ki,R30
00199e 93f0 02a3 	STS  _var_Ki+1,R31
0019a0 9508      	RET
                 
                 ;OPTIMIZER ADDED SUBROUTINE, CALLED 5 TIMES, CODE SIZE REDUCTION:9 WORDS
                 SUBOPT_0x84:
0019a1 940e 1a52 	CALL __EEPROMRDB
0019a3 e0f0      	LDI  R31,0
0019a4 9508      	RET
                 
                 ;OPTIMIZER ADDED SUBROUTINE, CALLED 5 TIMES, CODE SIZE REDUCTION:21 WORDS
                 SUBOPT_0x85:
0019a5 932a      	ST   -Y,R18
0019a6 85ed      	LDD  R30,Y+13
0019a7 85fe      	LDD  R31,Y+13+1
0019a8 93fa      	ST   -Y,R31
0019a9 93ea      	ST   -Y,R30
0019aa 89e9      	LDD  R30,Y+17
0019ab 89fa      	LDD  R31,Y+17+1
0019ac 9509      	ICALL
0019ad 9508      	RET
                 
                 ;OPTIMIZER ADDED SUBROUTINE, CALLED 5 TIMES, CODE SIZE REDUCTION:9 WORDS
                 SUBOPT_0x86:
0019ae 89e8      	LDD  R30,Y+16
0019af 89f9      	LDD  R31,Y+16+1
0019b0 9734      	SBIW R30,4
0019b1 8be8      	STD  Y+16,R30
0019b2 8bf9      	STD  Y+16+1,R31
0019b3 9508      	RET
                 
                 ;OPTIMIZER ADDED SUBROUTINE, CALLED 3 TIMES, CODE SIZE REDUCTION:7 WORDS
                 SUBOPT_0x87:
0019b4 85ed      	LDD  R30,Y+13
0019b5 85fe      	LDD  R31,Y+13+1
0019b6 93fa      	ST   -Y,R31
0019b7 93ea      	ST   -Y,R30
0019b8 89e9      	LDD  R30,Y+17
0019b9 89fa      	LDD  R31,Y+17+1
0019ba 9509      	ICALL
0019bb 9508      	RET
                 
                 ;OPTIMIZER ADDED SUBROUTINE, CALLED 2 TIMES, CODE SIZE REDUCTION:6 WORDS
                 SUBOPT_0x88:
0019bc 89a8      	LDD  R26,Y+16
0019bd 89b9      	LDD  R27,Y+16+1
0019be 9614      	ADIW R26,4
0019bf 940e 1a45 	CALL __GETW1P
0019c1 83ee      	STD  Y+6,R30
0019c2 83ff      	STD  Y+6+1,R31
0019c3 93fa      	ST   -Y,R31
0019c4 93ea      	ST   -Y,R30
0019c5 9508      	RET
                 
                 ;OPTIMIZER ADDED SUBROUTINE, CALLED 2 TIMES, CODE SIZE REDUCTION:2 WORDS
                 SUBOPT_0x89:
0019c6 89a8      	LDD  R26,Y+16
0019c7 89b9      	LDD  R27,Y+16+1
0019c8 9614      	ADIW R26,4
0019c9 940e 1a45 	CALL __GETW1P
0019cb 87ea      	STD  Y+10,R30
0019cc 87fb      	STD  Y+10+1,R31
0019cd 9508      	RET
                 
                 ;OPTIMIZER ADDED SUBROUTINE, CALLED 2 TIMES, CODE SIZE REDUCTION:1 WORDS
                 SUBOPT_0x8A:
0019ce 01de      	MOVW R26,R28
0019cf 961c      	ADIW R26,12
0019d0 940e 19f7 	CALL __ADDW2R15
0019d2 940e 1a45 	CALL __GETW1P
0019d4 9508      	RET
                 
                 ;OPTIMIZER ADDED SUBROUTINE, CALLED 2 TIMES, CODE SIZE REDUCTION:1 WORDS
                 SUBOPT_0x8B:
0019d5 9ac0      	SBI  0x18,0
0019d6 81e8      	LD   R30,Y
0019d7 93ea      	ST   -Y,R30
0019d8 940e 15b1 	CALL __lcd_write_data
0019da 98c0      	CBI  0x18,0
0019db 9508      	RET
                 
                 ;OPTIMIZER ADDED SUBROUTINE, CALLED 2 TIMES, CODE SIZE REDUCTION:2 WORDS
                 SUBOPT_0x8C:
0019dc 93ea      	ST   -Y,R30
0019dd 940e 15b1 	CALL __lcd_write_data
0019df e0e3      	LDI  R30,LOW(3)
0019e0 e0f0      	LDI  R31,HIGH(3)
0019e1 ce8c      	RJMP SUBOPT_0x52
                 
                 ;OPTIMIZER ADDED SUBROUTINE, CALLED 3 TIMES, CODE SIZE REDUCTION:9 WORDS
                 SUBOPT_0x8D:
0019e2 e3e0      	LDI  R30,LOW(48)
0019e3 93ea      	ST   -Y,R30
0019e4 940e 158d 	CALL __lcd_write_nibble_G101
                +
0019e6 e28c     +LDI R24 , LOW ( 300 )
0019e7 e091     +LDI R25 , HIGH ( 300 )
                +__DELAY_USW_LOOP :
0019e8 9701     +SBIW R24 , 1
0019e9 f7f1     +BRNE __DELAY_USW_LOOP
                 	__DELAY_USW 300
0019ea 9508      	RET
                 
                 
                 	.CSEG
                 _delay_ms:
0019eb 91e9      	ld   r30,y+
0019ec 91f9      	ld   r31,y+
0019ed 9630      	adiw r30,0
0019ee f039      	breq __delay_ms1
                 __delay_ms0:
                +
0019ef eb88     +LDI R24 , LOW ( 0xBB8 )
0019f0 e09b     +LDI R25 , HIGH ( 0xBB8 )
                +__DELAY_USW_LOOP :
0019f1 9701     +SBIW R24 , 1
0019f2 f7f1     +BRNE __DELAY_USW_LOOP
                 	__DELAY_USW 0xBB8
0019f3 95a8      	wdr
0019f4 9731      	sbiw r30,1
0019f5 f7c9      	brne __delay_ms0
                 __delay_ms1:
0019f6 9508      	ret
                 
                 __ADDW2R15:
0019f7 2400      	CLR  R0
0019f8 0daf      	ADD  R26,R15
0019f9 1db0      	ADC  R27,R0
0019fa 9508      	RET
                 
                 __ANEGW1:
0019fb 95f1      	NEG  R31
0019fc 95e1      	NEG  R30
0019fd 40f0      	SBCI R31,0
0019fe 9508      	RET
                 
                 __CWD1:
0019ff 2f6f      	MOV  R22,R31
001a00 0f66      	ADD  R22,R22
001a01 0b66      	SBC  R22,R22
001a02 2f76      	MOV  R23,R22
001a03 9508      	RET
                 
                 __MULW12U:
001a04 9ffa      	MUL  R31,R26
001a05 2df0      	MOV  R31,R0
001a06 9feb      	MUL  R30,R27
001a07 0df0      	ADD  R31,R0
001a08 9fea      	MUL  R30,R26
001a09 2de0      	MOV  R30,R0
001a0a 0df1      	ADD  R31,R1
001a0b 9508      	RET
                 
                 __MULW12:
001a0c d02a      	RCALL __CHKSIGNW
001a0d dff6      	RCALL __MULW12U
001a0e f40e      	BRTC __MULW121
001a0f dfeb      	RCALL __ANEGW1
                 __MULW121:
001a10 9508      	RET
                 
                 __DIVW21U:
001a11 2400      	CLR  R0
001a12 2411      	CLR  R1
001a13 e190      	LDI  R25,16
                 __DIVW21U1:
001a14 0faa      	LSL  R26
001a15 1fbb      	ROL  R27
001a16 1c00      	ROL  R0
001a17 1c11      	ROL  R1
001a18 1a0e      	SUB  R0,R30
001a19 0a1f      	SBC  R1,R31
001a1a f418      	BRCC __DIVW21U2
001a1b 0e0e      	ADD  R0,R30
001a1c 1e1f      	ADC  R1,R31
001a1d c001      	RJMP __DIVW21U3
                 __DIVW21U2:
001a1e 60a1      	SBR  R26,1
                 __DIVW21U3:
001a1f 959a      	DEC  R25
001a20 f799      	BRNE __DIVW21U1
001a21 01fd      	MOVW R30,R26
001a22 01d0      	MOVW R26,R0
001a23 9508      	RET
                 
                 __DIVW21:
001a24 d012      	RCALL __CHKSIGNW
001a25 dfeb      	RCALL __DIVW21U
001a26 f40e      	BRTC __DIVW211
001a27 dfd3      	RCALL __ANEGW1
                 __DIVW211:
001a28 9508      	RET
                 
                 __MODW21:
001a29 94e8      	CLT
001a2a ffb7      	SBRS R27,7
001a2b c004      	RJMP __MODW211
001a2c 95a0      	COM  R26
001a2d 95b0      	COM  R27
001a2e 9611      	ADIW R26,1
001a2f 9468      	SET
                 __MODW211:
001a30 fdf7      	SBRC R31,7
001a31 dfc9      	RCALL __ANEGW1
001a32 dfde      	RCALL __DIVW21U
001a33 01fd      	MOVW R30,R26
001a34 f40e      	BRTC __MODW212
001a35 dfc5      	RCALL __ANEGW1
                 __MODW212:
001a36 9508      	RET
                 
                 __CHKSIGNW:
001a37 94e8      	CLT
001a38 fff7      	SBRS R31,7
001a39 c002      	RJMP __CHKSW1
001a3a dfc0      	RCALL __ANEGW1
001a3b 9468      	SET
                 __CHKSW1:
001a3c ffb7      	SBRS R27,7
001a3d c006      	RJMP __CHKSW2
001a3e 95a0      	COM  R26
001a3f 95b0      	COM  R27
001a40 9611      	ADIW R26,1
001a41 f800      	BLD  R0,0
001a42 9403      	INC  R0
001a43 fa00      	BST  R0,0
                 __CHKSW2:
001a44 9508      	RET
                 
                 __GETW1P:
001a45 91ed      	LD   R30,X+
001a46 91fc      	LD   R31,X
001a47 9711      	SBIW R26,1
001a48 9508      	RET
                 
                 __GETW1PF:
001a49 9005      	LPM  R0,Z+
001a4a 91f4      	LPM  R31,Z
001a4b 2de0      	MOV  R30,R0
001a4c 9508      	RET
                 
                 __PUTPARD1:
001a4d 937a      	ST   -Y,R23
001a4e 936a      	ST   -Y,R22
001a4f 93fa      	ST   -Y,R31
001a50 93ea      	ST   -Y,R30
001a51 9508      	RET
                 
                 __EEPROMRDB:
001a52 99e1      	SBIC EECR,EEWE
001a53 cffe      	RJMP __EEPROMRDB
001a54 93ff      	PUSH R31
001a55 b7ff      	IN   R31,SREG
001a56 94f8      	CLI
001a57 bbae      	OUT  EEARL,R26
001a58 bbbf      	OUT  EEARH,R27
001a59 9ae0      	SBI  EECR,EERE
001a5a b3ed      	IN   R30,EEDR
001a5b bfff      	OUT  SREG,R31
001a5c 91ff      	POP  R31
001a5d 9508      	RET
                 
                 __EEPROMWRB:
001a5e 9be1      	SBIS EECR,EEWE
001a5f c002      	RJMP __EEPROMWRB1
001a60 95a8      	WDR
001a61 cffc      	RJMP __EEPROMWRB
                 __EEPROMWRB1:
001a62 b79f      	IN   R25,SREG
001a63 94f8      	CLI
001a64 bbae      	OUT  EEARL,R26
001a65 bbbf      	OUT  EEARH,R27
001a66 9ae0      	SBI  EECR,EERE
001a67 b38d      	IN   R24,EEDR
001a68 17e8      	CP   R30,R24
001a69 f019      	BREQ __EEPROMWRB0
001a6a bbed      	OUT  EEDR,R30
001a6b 9ae2      	SBI  EECR,EEMWE
001a6c 9ae1      	SBI  EECR,EEWE
                 __EEPROMWRB0:
001a6d bf9f      	OUT  SREG,R25
001a6e 9508      	RET
                 
                 __CPW02:
001a6f 2400      	CLR  R0
001a70 160a      	CP   R0,R26
001a71 060b      	CPC  R0,R27
001a72 9508      	RET
                 
                 __SAVELOCR6:
001a73 935a      	ST   -Y,R21
                 __SAVELOCR5:
001a74 934a      	ST   -Y,R20
                 __SAVELOCR4:
001a75 933a      	ST   -Y,R19
                 __SAVELOCR3:
001a76 932a      	ST   -Y,R18
                 __SAVELOCR2:
001a77 931a      	ST   -Y,R17
001a78 930a      	ST   -Y,R16
001a79 9508      	RET
                 
                 __LOADLOCR6:
001a7a 815d      	LDD  R21,Y+5
                 __LOADLOCR5:
001a7b 814c      	LDD  R20,Y+4
                 __LOADLOCR4:
001a7c 813b      	LDD  R19,Y+3
                 __LOADLOCR3:
001a7d 812a      	LDD  R18,Y+2
                 __LOADLOCR2:
001a7e 8119      	LDD  R17,Y+1
001a7f 8108      	LD   R16,Y
001a80 9508      	RET
                 
                 ;END OF CODE MARKER
                 __END_OF_CODE:


RESOURCE USE INFORMATION
------------------------

Notice:
The register and instruction counts are symbol table hit counts,
and hence implicitly used resources are not counted, eg, the
'lpm' instruction without operands implicitly uses r0 and z,
none of which are counted.

x,y,z are separate entities in the symbol table and are
counted separately from r26..r31 here.

.dseg memory usage only counts static data declared with .byte

ATmega32 register use summary:
r0 :  44 r1 :  23 r2 :  39 r3 :  65 r4 :   9 r5 :   9 r6 :  73 r7 :   9 
r8 :   2 r9 :   2 r10:   2 r11:   2 r12:   2 r13:   2 r14:   0 r15:   4 
r16: 102 r17:  96 r18:  29 r19:  16 r20:   9 r21:  17 r22:  14 r23:   3 
r24:  31 r25:   9 r26: 406 r27: 247 r28:  24 r29:   1 r30:1033 r31: 359 
x  :  27 y  : 336 z  :  17 
Registers used: 34 out of 35 (97.1%)

ATmega32 instruction use summary:
.lds  :   0 .lds.l:   0 .sts  :   0 .sts.l:   0 adc   :   6 add   :  11 
adiw  :  39 and   :   0 andi  :   8 asr   :   0 bclr  :   0 bld   :  19 
brbc  :   0 brbs  :   0 brcc  :   1 brcs  :   0 break :   0 breq  :  70 
brge  :  37 brhc  :   0 brhs  :   0 brid  :   0 brie  :   0 brlo  :  14 
brlt  :   4 brmi  :   1 brne  : 126 brpl  :   5 brsh  :  25 brtc  :   3 
brts  :   0 brvc  :   0 brvs  :   0 bset  :   0 bst   :   1 call  :1189 
cbi   :  40 cbr   :   0 clc   :   0 clh   :   0 cli   :   5 cln   :   0 
clr   :  40 cls   :   0 clt   :  12 clv   :   0 clz   :   0 com   :   5 
cp    : 116 cpc   :  90 cpi   : 118 cpse  :   0 dec   :  10 des   :   0 
eor   :   8 fmul  :   0 fmuls :   0 fmulsu:   0 icall :   2 ijmp  :   0 
in    :   6 inc   :   5 jmp   :  60 ld    :  52 ldd   :  97 ldi   : 893 
lds   :  63 lpm   :  18 lsl   :   4 lsr   :   0 mov   : 103 movw  :  25 
mul   :   4 muls  :   0 mulsu :   0 neg   :   2 nop   :   0 or    :   8 
ori   :   8 out   :  35 pop   :   2 push  :   2 rcall : 107 ret   : 122 
reti  :   1 rjmp  : 640 rol   :   3 ror   :   0 sbc   :  10 sbci  :   7 
sbi   :  46 sbic  :  97 sbis  :  12 sbiw  :  28 sbr   :   1 sbrc  :  46 
sbrs  :  48 sec   :   0 seh   :   0 sei   :   3 sen   :   0 ser   :   0 
ses   :   0 set   :  12 sev   :   0 sez   :   0 sleep :   0 spm   :   0 
st    : 180 std   :  37 sts   :  84 sub   :   9 subi  :  37 swap  :   1 
tst   :   8 wdr   :   2 
Instructions used: 70 out of 116 (60.3%)

ATmega32 memory use summary [bytes]:
Segment   Begin    End      Code   Data   Used    Size   Use%
---------------------------------------------------------------
[.cseg] 0x000000 0x003502  12650    920  13570   32768  41.4%
[.dseg] 0x000060 0x0002ad      0     77     77    2143   3.6%
[.eseg] 0x000000 0x000025      0     37     37    1024   3.6%

Assembly complete, 0 errors, 11 warnings
