
AVRASM ver. 2.1.30  D:\Punya Koko\LPKTA\line follower\tes lcd kedip\List\tes 3.asm Fri Dec 07 02:05:15 2012

D:\Punya Koko\LPKTA\line follower\tes lcd kedip\List\tes 3.asm(1059): warning: Register r5 already defined by the .DEF directive
D:\Punya Koko\LPKTA\line follower\tes lcd kedip\List\tes 3.asm(1060): warning: Register r4 already defined by the .DEF directive
D:\Punya Koko\LPKTA\line follower\tes lcd kedip\List\tes 3.asm(1061): warning: Register r7 already defined by the .DEF directive
D:\Punya Koko\LPKTA\line follower\tes lcd kedip\List\tes 3.asm(1062): warning: Register r6 already defined by the .DEF directive
D:\Punya Koko\LPKTA\line follower\tes lcd kedip\List\tes 3.asm(1063): warning: Register r9 already defined by the .DEF directive
D:\Punya Koko\LPKTA\line follower\tes lcd kedip\List\tes 3.asm(1064): warning: Register r8 already defined by the .DEF directive
D:\Punya Koko\LPKTA\line follower\tes lcd kedip\List\tes 3.asm(1065): warning: Register r11 already defined by the .DEF directive
D:\Punya Koko\LPKTA\line follower\tes lcd kedip\List\tes 3.asm(1066): warning: Register r10 already defined by the .DEF directive
D:\Punya Koko\LPKTA\line follower\tes lcd kedip\List\tes 3.asm(1067): warning: Register r13 already defined by the .DEF directive
D:\Punya Koko\LPKTA\line follower\tes lcd kedip\List\tes 3.asm(1068): warning: Register r12 already defined by the .DEF directive
                 
                 
                 ;CodeVisionAVR C Compiler V2.05.0 Professional
                 ;(C) Copyright 1998-2010 Pavel Haiduc, HP InfoTech s.r.l.
                 ;http://www.hpinfotech.com
                 
                 ;Chip type                : ATmega16
                 ;Program type             : Application
                 ;Clock frequency          : 12.000000 MHz
                 ;Memory model             : Small
                 ;Optimize for             : Size
                 ;(s)printf features       : int, width
                 ;(s)scanf features        : int, width
                 ;External RAM size        : 0
                 ;Data Stack size          : 256 byte(s)
                 ;Heap size                : 0 byte(s)
                 ;Promote 'char' to 'int'  : Yes
                 ;'char' is unsigned       : Yes
                 ;8 bit enums              : Yes
                 ;global 'const' stored in FLASH: No
                 ;Enhanced core instructions    : On
                 ;Smart register allocation     : On
                 ;Automatic register allocation : On
                 
                 	#pragma AVRPART ADMIN PART_NAME ATmega16
                 	#pragma AVRPART MEMORY PROG_FLASH 16384
                 	#pragma AVRPART MEMORY EEPROM 512
                 	#pragma AVRPART MEMORY INT_SRAM SIZE 1119
                 	#pragma AVRPART MEMORY INT_SRAM START_ADDR 0x60
                 
                 	#define CALL_SUPPORTED 1
                 
                 	.LISTMAC
                 	.EQU UDRE=0x5
                 	.EQU RXC=0x7
                 	.EQU USR=0xB
                 	.EQU UDR=0xC
                 	.EQU SPSR=0xE
                 	.EQU SPDR=0xF
                 	.EQU EERE=0x0
                 	.EQU EEWE=0x1
                 	.EQU EEMWE=0x2
                 	.EQU EECR=0x1C
                 	.EQU EEDR=0x1D
                 	.EQU EEARL=0x1E
                 	.EQU EEARH=0x1F
                 	.EQU WDTCR=0x21
                 	.EQU MCUCR=0x35
                 	.EQU GICR=0x3B
                 	.EQU SPL=0x3D
                 	.EQU SPH=0x3E
                 	.EQU SREG=0x3F
                 
                 	.DEF R0X0=R0
                 	.DEF R0X1=R1
                 	.DEF R0X2=R2
                 	.DEF R0X3=R3
                 	.DEF R0X4=R4
                 	.DEF R0X5=R5
                 	.DEF R0X6=R6
                 	.DEF R0X7=R7
                 	.DEF R0X8=R8
                 	.DEF R0X9=R9
                 	.DEF R0XA=R10
                 	.DEF R0XB=R11
                 	.DEF R0XC=R12
                 	.DEF R0XD=R13
                 	.DEF R0XE=R14
                 	.DEF R0XF=R15
                 	.DEF R0X10=R16
                 	.DEF R0X11=R17
                 	.DEF R0X12=R18
                 	.DEF R0X13=R19
                 	.DEF R0X14=R20
                 	.DEF R0X15=R21
                 	.DEF R0X16=R22
                 	.DEF R0X17=R23
                 	.DEF R0X18=R24
                 	.DEF R0X19=R25
                 	.DEF R0X1A=R26
                 	.DEF R0X1B=R27
                 	.DEF R0X1C=R28
                 	.DEF R0X1D=R29
                 	.DEF R0X1E=R30
                 	.DEF R0X1F=R31
                 
                 	.EQU __SRAM_START=0x0060
                 	.EQU __SRAM_END=0x045F
                 	.EQU __DSTACK_SIZE=0x0100
                 	.EQU __HEAP_SIZE=0x0000
                 	.EQU __CLEAR_SRAM_SIZE=__SRAM_END-__SRAM_START+1
                 
                 	.MACRO __CPD1N
                 	CPI  R30,LOW(@0)
                 	LDI  R26,HIGH(@0)
                 	CPC  R31,R26
                 	LDI  R26,BYTE3(@0)
                 	CPC  R22,R26
                 	LDI  R26,BYTE4(@0)
                 	CPC  R23,R26
                 	.ENDM
                 
                 	.MACRO __CPD2N
                 	CPI  R26,LOW(@0)
                 	LDI  R30,HIGH(@0)
                 	CPC  R27,R30
                 	LDI  R30,BYTE3(@0)
                 	CPC  R24,R30
                 	LDI  R30,BYTE4(@0)
                 	CPC  R25,R30
                 	.ENDM
                 
                 	.MACRO __CPWRR
                 	CP   R@0,R@2
                 	CPC  R@1,R@3
                 	.ENDM
                 
                 	.MACRO __CPWRN
                 	CPI  R@0,LOW(@2)
                 	LDI  R30,HIGH(@2)
                 	CPC  R@1,R30
                 	.ENDM
                 
                 	.MACRO __ADDB1MN
                 	SUBI R30,LOW(-@0-(@1))
                 	.ENDM
                 
                 	.MACRO __ADDB2MN
                 	SUBI R26,LOW(-@0-(@1))
                 	.ENDM
                 
                 	.MACRO __ADDW1MN
                 	SUBI R30,LOW(-@0-(@1))
                 	SBCI R31,HIGH(-@0-(@1))
                 	.ENDM
                 
                 	.MACRO __ADDW2MN
                 	SUBI R26,LOW(-@0-(@1))
                 	SBCI R27,HIGH(-@0-(@1))
                 	.ENDM
                 
                 	.MACRO __ADDW1FN
                 	SUBI R30,LOW(-2*@0-(@1))
                 	SBCI R31,HIGH(-2*@0-(@1))
                 	.ENDM
                 
                 	.MACRO __ADDD1FN
                 	SUBI R30,LOW(-2*@0-(@1))
                 	SBCI R31,HIGH(-2*@0-(@1))
                 	SBCI R22,BYTE3(-2*@0-(@1))
                 	.ENDM
                 
                 	.MACRO __ADDD1N
                 	SUBI R30,LOW(-@0)
                 	SBCI R31,HIGH(-@0)
                 	SBCI R22,BYTE3(-@0)
                 	SBCI R23,BYTE4(-@0)
                 	.ENDM
                 
                 	.MACRO __ADDD2N
                 	SUBI R26,LOW(-@0)
                 	SBCI R27,HIGH(-@0)
                 	SBCI R24,BYTE3(-@0)
                 	SBCI R25,BYTE4(-@0)
                 	.ENDM
                 
                 	.MACRO __SUBD1N
                 	SUBI R30,LOW(@0)
                 	SBCI R31,HIGH(@0)
                 	SBCI R22,BYTE3(@0)
                 	SBCI R23,BYTE4(@0)
                 	.ENDM
                 
                 	.MACRO __SUBD2N
                 	SUBI R26,LOW(@0)
                 	SBCI R27,HIGH(@0)
                 	SBCI R24,BYTE3(@0)
                 	SBCI R25,BYTE4(@0)
                 	.ENDM
                 
                 	.MACRO __ANDBMNN
                 	LDS  R30,@0+(@1)
                 	ANDI R30,LOW(@2)
                 	STS  @0+(@1),R30
                 	.ENDM
                 
                 	.MACRO __ANDWMNN
                 	LDS  R30,@0+(@1)
                 	ANDI R30,LOW(@2)
                 	STS  @0+(@1),R30
                 	LDS  R30,@0+(@1)+1
                 	ANDI R30,HIGH(@2)
                 	STS  @0+(@1)+1,R30
                 	.ENDM
                 
                 	.MACRO __ANDD1N
                 	ANDI R30,LOW(@0)
                 	ANDI R31,HIGH(@0)
                 	ANDI R22,BYTE3(@0)
                 	ANDI R23,BYTE4(@0)
                 	.ENDM
                 
                 	.MACRO __ANDD2N
                 	ANDI R26,LOW(@0)
                 	ANDI R27,HIGH(@0)
                 	ANDI R24,BYTE3(@0)
                 	ANDI R25,BYTE4(@0)
                 	.ENDM
                 
                 	.MACRO __ORBMNN
                 	LDS  R30,@0+(@1)
                 	ORI  R30,LOW(@2)
                 	STS  @0+(@1),R30
                 	.ENDM
                 
                 	.MACRO __ORWMNN
                 	LDS  R30,@0+(@1)
                 	ORI  R30,LOW(@2)
                 	STS  @0+(@1),R30
                 	LDS  R30,@0+(@1)+1
                 	ORI  R30,HIGH(@2)
                 	STS  @0+(@1)+1,R30
                 	.ENDM
                 
                 	.MACRO __ORD1N
                 	ORI  R30,LOW(@0)
                 	ORI  R31,HIGH(@0)
                 	ORI  R22,BYTE3(@0)
                 	ORI  R23,BYTE4(@0)
                 	.ENDM
                 
                 	.MACRO __ORD2N
                 	ORI  R26,LOW(@0)
                 	ORI  R27,HIGH(@0)
                 	ORI  R24,BYTE3(@0)
                 	ORI  R25,BYTE4(@0)
                 	.ENDM
                 
                 	.MACRO __DELAY_USB
                 	LDI  R24,LOW(@0)
                 __DELAY_USB_LOOP:
                 	DEC  R24
                 	BRNE __DELAY_USB_LOOP
                 	.ENDM
                 
                 	.MACRO __DELAY_USW
                 	LDI  R24,LOW(@0)
                 	LDI  R25,HIGH(@0)
                 __DELAY_USW_LOOP:
                 	SBIW R24,1
                 	BRNE __DELAY_USW_LOOP
                 	.ENDM
                 
                 	.MACRO __GETD1S
                 	LDD  R30,Y+@0
                 	LDD  R31,Y+@0+1
                 	LDD  R22,Y+@0+2
                 	LDD  R23,Y+@0+3
                 	.ENDM
                 
                 	.MACRO __GETD2S
                 	LDD  R26,Y+@0
                 	LDD  R27,Y+@0+1
                 	LDD  R24,Y+@0+2
                 	LDD  R25,Y+@0+3
                 	.ENDM
                 
                 	.MACRO __PUTD1S
                 	STD  Y+@0,R30
                 	STD  Y+@0+1,R31
                 	STD  Y+@0+2,R22
                 	STD  Y+@0+3,R23
                 	.ENDM
                 
                 	.MACRO __PUTD2S
                 	STD  Y+@0,R26
                 	STD  Y+@0+1,R27
                 	STD  Y+@0+2,R24
                 	STD  Y+@0+3,R25
                 	.ENDM
                 
                 	.MACRO __PUTDZ2
                 	STD  Z+@0,R26
                 	STD  Z+@0+1,R27
                 	STD  Z+@0+2,R24
                 	STD  Z+@0+3,R25
                 	.ENDM
                 
                 	.MACRO __CLRD1S
                 	STD  Y+@0,R30
                 	STD  Y+@0+1,R30
                 	STD  Y+@0+2,R30
                 	STD  Y+@0+3,R30
                 	.ENDM
                 
                 	.MACRO __POINTB1MN
                 	LDI  R30,LOW(@0+(@1))
                 	.ENDM
                 
                 	.MACRO __POINTW1MN
                 	LDI  R30,LOW(@0+(@1))
                 	LDI  R31,HIGH(@0+(@1))
                 	.ENDM
                 
                 	.MACRO __POINTD1M
                 	LDI  R30,LOW(@0)
                 	LDI  R31,HIGH(@0)
                 	LDI  R22,BYTE3(@0)
                 	LDI  R23,BYTE4(@0)
                 	.ENDM
                 
                 	.MACRO __POINTW1FN
                 	LDI  R30,LOW(2*@0+(@1))
                 	LDI  R31,HIGH(2*@0+(@1))
                 	.ENDM
                 
                 	.MACRO __POINTD1FN
                 	LDI  R30,LOW(2*@0+(@1))
                 	LDI  R31,HIGH(2*@0+(@1))
                 	LDI  R22,BYTE3(2*@0+(@1))
                 	LDI  R23,BYTE4(2*@0+(@1))
                 	.ENDM
                 
                 	.MACRO __POINTB2MN
                 	LDI  R26,LOW(@0+(@1))
                 	.ENDM
                 
                 	.MACRO __POINTW2MN
                 	LDI  R26,LOW(@0+(@1))
                 	LDI  R27,HIGH(@0+(@1))
                 	.ENDM
                 
                 	.MACRO __POINTBRM
                 	LDI  R@0,LOW(@1)
                 	.ENDM
                 
                 	.MACRO __POINTWRM
                 	LDI  R@0,LOW(@2)
                 	LDI  R@1,HIGH(@2)
                 	.ENDM
                 
                 	.MACRO __POINTBRMN
                 	LDI  R@0,LOW(@1+(@2))
                 	.ENDM
                 
                 	.MACRO __POINTWRMN
                 	LDI  R@0,LOW(@2+(@3))
                 	LDI  R@1,HIGH(@2+(@3))
                 	.ENDM
                 
                 	.MACRO __POINTWRFN
                 	LDI  R@0,LOW(@2*2+(@3))
                 	LDI  R@1,HIGH(@2*2+(@3))
                 	.ENDM
                 
                 	.MACRO __GETD1N
                 	LDI  R30,LOW(@0)
                 	LDI  R31,HIGH(@0)
                 	LDI  R22,BYTE3(@0)
                 	LDI  R23,BYTE4(@0)
                 	.ENDM
                 
                 	.MACRO __GETD2N
                 	LDI  R26,LOW(@0)
                 	LDI  R27,HIGH(@0)
                 	LDI  R24,BYTE3(@0)
                 	LDI  R25,BYTE4(@0)
                 	.ENDM
                 
                 	.MACRO __GETB1MN
                 	LDS  R30,@0+(@1)
                 	.ENDM
                 
                 	.MACRO __GETB1HMN
                 	LDS  R31,@0+(@1)
                 	.ENDM
                 
                 	.MACRO __GETW1MN
                 	LDS  R30,@0+(@1)
                 	LDS  R31,@0+(@1)+1
                 	.ENDM
                 
                 	.MACRO __GETD1MN
                 	LDS  R30,@0+(@1)
                 	LDS  R31,@0+(@1)+1
                 	LDS  R22,@0+(@1)+2
                 	LDS  R23,@0+(@1)+3
                 	.ENDM
                 
                 	.MACRO __GETBRMN
                 	LDS  R@0,@1+(@2)
                 	.ENDM
                 
                 	.MACRO __GETWRMN
                 	LDS  R@0,@2+(@3)
                 	LDS  R@1,@2+(@3)+1
                 	.ENDM
                 
                 	.MACRO __GETWRZ
                 	LDD  R@0,Z+@2
                 	LDD  R@1,Z+@2+1
                 	.ENDM
                 
                 	.MACRO __GETD2Z
                 	LDD  R26,Z+@0
                 	LDD  R27,Z+@0+1
                 	LDD  R24,Z+@0+2
                 	LDD  R25,Z+@0+3
                 	.ENDM
                 
                 	.MACRO __GETB2MN
                 	LDS  R26,@0+(@1)
                 	.ENDM
                 
                 	.MACRO __GETW2MN
                 	LDS  R26,@0+(@1)
                 	LDS  R27,@0+(@1)+1
                 	.ENDM
                 
                 	.MACRO __GETD2MN
                 	LDS  R26,@0+(@1)
                 	LDS  R27,@0+(@1)+1
                 	LDS  R24,@0+(@1)+2
                 	LDS  R25,@0+(@1)+3
                 	.ENDM
                 
                 	.MACRO __PUTB1MN
                 	STS  @0+(@1),R30
                 	.ENDM
                 
                 	.MACRO __PUTW1MN
                 	STS  @0+(@1),R30
                 	STS  @0+(@1)+1,R31
                 	.ENDM
                 
                 	.MACRO __PUTD1MN
                 	STS  @0+(@1),R30
                 	STS  @0+(@1)+1,R31
                 	STS  @0+(@1)+2,R22
                 	STS  @0+(@1)+3,R23
                 	.ENDM
                 
                 	.MACRO __PUTB1EN
                 	LDI  R26,LOW(@0+(@1))
                 	LDI  R27,HIGH(@0+(@1))
                 	CALL __EEPROMWRB
                 	.ENDM
                 
                 	.MACRO __PUTW1EN
                 	LDI  R26,LOW(@0+(@1))
                 	LDI  R27,HIGH(@0+(@1))
                 	CALL __EEPROMWRW
                 	.ENDM
                 
                 	.MACRO __PUTD1EN
                 	LDI  R26,LOW(@0+(@1))
                 	LDI  R27,HIGH(@0+(@1))
                 	CALL __EEPROMWRD
                 	.ENDM
                 
                 	.MACRO __PUTBR0MN
                 	STS  @0+(@1),R0
                 	.ENDM
                 
                 	.MACRO __PUTBMRN
                 	STS  @0+(@1),R@2
                 	.ENDM
                 
                 	.MACRO __PUTWMRN
                 	STS  @0+(@1),R@2
                 	STS  @0+(@1)+1,R@3
                 	.ENDM
                 
                 	.MACRO __PUTBZR
                 	STD  Z+@1,R@0
                 	.ENDM
                 
                 	.MACRO __PUTWZR
                 	STD  Z+@2,R@0
                 	STD  Z+@2+1,R@1
                 	.ENDM
                 
                 	.MACRO __GETW1R
                 	MOV  R30,R@0
                 	MOV  R31,R@1
                 	.ENDM
                 
                 	.MACRO __GETW2R
                 	MOV  R26,R@0
                 	MOV  R27,R@1
                 	.ENDM
                 
                 	.MACRO __GETWRN
                 	LDI  R@0,LOW(@2)
                 	LDI  R@1,HIGH(@2)
                 	.ENDM
                 
                 	.MACRO __PUTW1R
                 	MOV  R@0,R30
                 	MOV  R@1,R31
                 	.ENDM
                 
                 	.MACRO __PUTW2R
                 	MOV  R@0,R26
                 	MOV  R@1,R27
                 	.ENDM
                 
                 	.MACRO __ADDWRN
                 	SUBI R@0,LOW(-@2)
                 	SBCI R@1,HIGH(-@2)
                 	.ENDM
                 
                 	.MACRO __ADDWRR
                 	ADD  R@0,R@2
                 	ADC  R@1,R@3
                 	.ENDM
                 
                 	.MACRO __SUBWRN
                 	SUBI R@0,LOW(@2)
                 	SBCI R@1,HIGH(@2)
                 	.ENDM
                 
                 	.MACRO __SUBWRR
                 	SUB  R@0,R@2
                 	SBC  R@1,R@3
                 	.ENDM
                 
                 	.MACRO __ANDWRN
                 	ANDI R@0,LOW(@2)
                 	ANDI R@1,HIGH(@2)
                 	.ENDM
                 
                 	.MACRO __ANDWRR
                 	AND  R@0,R@2
                 	AND  R@1,R@3
                 	.ENDM
                 
                 	.MACRO __ORWRN
                 	ORI  R@0,LOW(@2)
                 	ORI  R@1,HIGH(@2)
                 	.ENDM
                 
                 	.MACRO __ORWRR
                 	OR   R@0,R@2
                 	OR   R@1,R@3
                 	.ENDM
                 
                 	.MACRO __EORWRR
                 	EOR  R@0,R@2
                 	EOR  R@1,R@3
                 	.ENDM
                 
                 	.MACRO __GETWRS
                 	LDD  R@0,Y+@2
                 	LDD  R@1,Y+@2+1
                 	.ENDM
                 
                 	.MACRO __PUTBSR
                 	STD  Y+@1,R@0
                 	.ENDM
                 
                 	.MACRO __PUTWSR
                 	STD  Y+@2,R@0
                 	STD  Y+@2+1,R@1
                 	.ENDM
                 
                 	.MACRO __MOVEWRR
                 	MOV  R@0,R@2
                 	MOV  R@1,R@3
                 	.ENDM
                 
                 	.MACRO __INWR
                 	IN   R@0,@2
                 	IN   R@1,@2+1
                 	.ENDM
                 
                 	.MACRO __OUTWR
                 	OUT  @2+1,R@1
                 	OUT  @2,R@0
                 	.ENDM
                 
                 	.MACRO __CALL1MN
                 	LDS  R30,@0+(@1)
                 	LDS  R31,@0+(@1)+1
                 	ICALL
                 	.ENDM
                 
                 	.MACRO __CALL1FN
                 	LDI  R30,LOW(2*@0+(@1))
                 	LDI  R31,HIGH(2*@0+(@1))
                 	CALL __GETW1PF
                 	ICALL
                 	.ENDM
                 
                 	.MACRO __CALL2EN
                 	LDI  R26,LOW(@0+(@1))
                 	LDI  R27,HIGH(@0+(@1))
                 	CALL __EEPROMRDW
                 	ICALL
                 	.ENDM
                 
                 	.MACRO __GETW1STACK
                 	IN   R26,SPL
                 	IN   R27,SPH
                 	ADIW R26,@0+1
                 	LD   R30,X+
                 	LD   R31,X
                 	.ENDM
                 
                 	.MACRO __GETD1STACK
                 	IN   R26,SPL
                 	IN   R27,SPH
                 	ADIW R26,@0+1
                 	LD   R30,X+
                 	LD   R31,X+
                 	LD   R22,X
                 	.ENDM
                 
                 	.MACRO __NBST
                 	BST  R@0,@1
                 	IN   R30,SREG
                 	LDI  R31,0x40
                 	EOR  R30,R31
                 	OUT  SREG,R30
                 	.ENDM
                 
                 
                 	.MACRO __PUTB1SN
                 	LDD  R26,Y+@0
                 	LDD  R27,Y+@0+1
                 	SUBI R26,LOW(-@1)
                 	SBCI R27,HIGH(-@1)
                 	ST   X,R30
                 	.ENDM
                 
                 	.MACRO __PUTW1SN
                 	LDD  R26,Y+@0
                 	LDD  R27,Y+@0+1
                 	SUBI R26,LOW(-@1)
                 	SBCI R27,HIGH(-@1)
                 	ST   X+,R30
                 	ST   X,R31
                 	.ENDM
                 
                 	.MACRO __PUTD1SN
                 	LDD  R26,Y+@0
                 	LDD  R27,Y+@0+1
                 	SUBI R26,LOW(-@1)
                 	SBCI R27,HIGH(-@1)
                 	CALL __PUTDP1
                 	.ENDM
                 
                 	.MACRO __PUTB1SNS
                 	LDD  R26,Y+@0
                 	LDD  R27,Y+@0+1
                 	ADIW R26,@1
                 	ST   X,R30
                 	.ENDM
                 
                 	.MACRO __PUTW1SNS
                 	LDD  R26,Y+@0
                 	LDD  R27,Y+@0+1
                 	ADIW R26,@1
                 	ST   X+,R30
                 	ST   X,R31
                 	.ENDM
                 
                 	.MACRO __PUTD1SNS
                 	LDD  R26,Y+@0
                 	LDD  R27,Y+@0+1
                 	ADIW R26,@1
                 	CALL __PUTDP1
                 	.ENDM
                 
                 	.MACRO __PUTB1PMN
                 	LDS  R26,@0
                 	LDS  R27,@0+1
                 	SUBI R26,LOW(-@1)
                 	SBCI R27,HIGH(-@1)
                 	ST   X,R30
                 	.ENDM
                 
                 	.MACRO __PUTW1PMN
                 	LDS  R26,@0
                 	LDS  R27,@0+1
                 	SUBI R26,LOW(-@1)
                 	SBCI R27,HIGH(-@1)
                 	ST   X+,R30
                 	ST   X,R31
                 	.ENDM
                 
                 	.MACRO __PUTD1PMN
                 	LDS  R26,@0
                 	LDS  R27,@0+1
                 	SUBI R26,LOW(-@1)
                 	SBCI R27,HIGH(-@1)
                 	CALL __PUTDP1
                 	.ENDM
                 
                 	.MACRO __PUTB1PMNS
                 	LDS  R26,@0
                 	LDS  R27,@0+1
                 	ADIW R26,@1
                 	ST   X,R30
                 	.ENDM
                 
                 	.MACRO __PUTW1PMNS
                 	LDS  R26,@0
                 	LDS  R27,@0+1
                 	ADIW R26,@1
                 	ST   X+,R30
                 	ST   X,R31
                 	.ENDM
                 
                 	.MACRO __PUTD1PMNS
                 	LDS  R26,@0
                 	LDS  R27,@0+1
                 	ADIW R26,@1
                 	CALL __PUTDP1
                 	.ENDM
                 
                 	.MACRO __PUTB1RN
                 	MOVW R26,R@0
                 	SUBI R26,LOW(-@1)
                 	SBCI R27,HIGH(-@1)
                 	ST   X,R30
                 	.ENDM
                 
                 	.MACRO __PUTW1RN
                 	MOVW R26,R@0
                 	SUBI R26,LOW(-@1)
                 	SBCI R27,HIGH(-@1)
                 	ST   X+,R30
                 	ST   X,R31
                 	.ENDM
                 
                 	.MACRO __PUTD1RN
                 	MOVW R26,R@0
                 	SUBI R26,LOW(-@1)
                 	SBCI R27,HIGH(-@1)
                 	CALL __PUTDP1
                 	.ENDM
                 
                 	.MACRO __PUTB1RNS
                 	MOVW R26,R@0
                 	ADIW R26,@1
                 	ST   X,R30
                 	.ENDM
                 
                 	.MACRO __PUTW1RNS
                 	MOVW R26,R@0
                 	ADIW R26,@1
                 	ST   X+,R30
                 	ST   X,R31
                 	.ENDM
                 
                 	.MACRO __PUTD1RNS
                 	MOVW R26,R@0
                 	ADIW R26,@1
                 	CALL __PUTDP1
                 	.ENDM
                 
                 	.MACRO __PUTB1RON
                 	MOV  R26,R@0
                 	MOV  R27,R@1
                 	SUBI R26,LOW(-@2)
                 	SBCI R27,HIGH(-@2)
                 	ST   X,R30
                 	.ENDM
                 
                 	.MACRO __PUTW1RON
                 	MOV  R26,R@0
                 	MOV  R27,R@1
                 	SUBI R26,LOW(-@2)
                 	SBCI R27,HIGH(-@2)
                 	ST   X+,R30
                 	ST   X,R31
                 	.ENDM
                 
                 	.MACRO __PUTD1RON
                 	MOV  R26,R@0
                 	MOV  R27,R@1
                 	SUBI R26,LOW(-@2)
                 	SBCI R27,HIGH(-@2)
                 	CALL __PUTDP1
                 	.ENDM
                 
                 	.MACRO __PUTB1RONS
                 	MOV  R26,R@0
                 	MOV  R27,R@1
                 	ADIW R26,@2
                 	ST   X,R30
                 	.ENDM
                 
                 	.MACRO __PUTW1RONS
                 	MOV  R26,R@0
                 	MOV  R27,R@1
                 	ADIW R26,@2
                 	ST   X+,R30
                 	ST   X,R31
                 	.ENDM
                 
                 	.MACRO __PUTD1RONS
                 	MOV  R26,R@0
                 	MOV  R27,R@1
                 	ADIW R26,@2
                 	CALL __PUTDP1
                 	.ENDM
                 
                 
                 	.MACRO __GETB1SX
                 	MOVW R30,R28
                 	SUBI R30,LOW(-@0)
                 	SBCI R31,HIGH(-@0)
                 	LD   R30,Z
                 	.ENDM
                 
                 	.MACRO __GETB1HSX
                 	MOVW R30,R28
                 	SUBI R30,LOW(-@0)
                 	SBCI R31,HIGH(-@0)
                 	LD   R31,Z
                 	.ENDM
                 
                 	.MACRO __GETW1SX
                 	MOVW R30,R28
                 	SUBI R30,LOW(-@0)
                 	SBCI R31,HIGH(-@0)
                 	LD   R0,Z+
                 	LD   R31,Z
                 	MOV  R30,R0
                 	.ENDM
                 
                 	.MACRO __GETD1SX
                 	MOVW R30,R28
                 	SUBI R30,LOW(-@0)
                 	SBCI R31,HIGH(-@0)
                 	LD   R0,Z+
                 	LD   R1,Z+
                 	LD   R22,Z+
                 	LD   R23,Z
                 	MOVW R30,R0
                 	.ENDM
                 
                 	.MACRO __GETB2SX
                 	MOVW R26,R28
                 	SUBI R26,LOW(-@0)
                 	SBCI R27,HIGH(-@0)
                 	LD   R26,X
                 	.ENDM
                 
                 	.MACRO __GETW2SX
                 	MOVW R26,R28
                 	SUBI R26,LOW(-@0)
                 	SBCI R27,HIGH(-@0)
                 	LD   R0,X+
                 	LD   R27,X
                 	MOV  R26,R0
                 	.ENDM
                 
                 	.MACRO __GETD2SX
                 	MOVW R26,R28
                 	SUBI R26,LOW(-@0)
                 	SBCI R27,HIGH(-@0)
                 	LD   R0,X+
                 	LD   R1,X+
                 	LD   R24,X+
                 	LD   R25,X
                 	MOVW R26,R0
                 	.ENDM
                 
                 	.MACRO __GETBRSX
                 	MOVW R30,R28
                 	SUBI R30,LOW(-@1)
                 	SBCI R31,HIGH(-@1)
                 	LD   R@0,Z
                 	.ENDM
                 
                 	.MACRO __GETWRSX
                 	MOVW R30,R28
                 	SUBI R30,LOW(-@2)
                 	SBCI R31,HIGH(-@2)
                 	LD   R@0,Z+
                 	LD   R@1,Z
                 	.ENDM
                 
                 	.MACRO __GETBRSX2
                 	MOVW R26,R28
                 	SUBI R26,LOW(-@1)
                 	SBCI R27,HIGH(-@1)
                 	LD   R@0,X
                 	.ENDM
                 
                 	.MACRO __GETWRSX2
                 	MOVW R26,R28
                 	SUBI R26,LOW(-@2)
                 	SBCI R27,HIGH(-@2)
                 	LD   R@0,X+
                 	LD   R@1,X
                 	.ENDM
                 
                 	.MACRO __LSLW8SX
                 	MOVW R30,R28
                 	SUBI R30,LOW(-@0)
                 	SBCI R31,HIGH(-@0)
                 	LD   R31,Z
                 	CLR  R30
                 	.ENDM
                 
                 	.MACRO __PUTB1SX
                 	MOVW R26,R28
                 	SUBI R26,LOW(-@0)
                 	SBCI R27,HIGH(-@0)
                 	ST   X,R30
                 	.ENDM
                 
                 	.MACRO __PUTW1SX
                 	MOVW R26,R28
                 	SUBI R26,LOW(-@0)
                 	SBCI R27,HIGH(-@0)
                 	ST   X+,R30
                 	ST   X,R31
                 	.ENDM
                 
                 	.MACRO __PUTD1SX
                 	MOVW R26,R28
                 	SUBI R26,LOW(-@0)
                 	SBCI R27,HIGH(-@0)
                 	ST   X+,R30
                 	ST   X+,R31
                 	ST   X+,R22
                 	ST   X,R23
                 	.ENDM
                 
                 	.MACRO __CLRW1SX
                 	MOVW R26,R28
                 	SUBI R26,LOW(-@0)
                 	SBCI R27,HIGH(-@0)
                 	ST   X+,R30
                 	ST   X,R30
                 	.ENDM
                 
                 	.MACRO __CLRD1SX
                 	MOVW R26,R28
                 	SUBI R26,LOW(-@0)
                 	SBCI R27,HIGH(-@0)
                 	ST   X+,R30
                 	ST   X+,R30
                 	ST   X+,R30
                 	ST   X,R30
                 	.ENDM
                 
                 	.MACRO __PUTB2SX
                 	MOVW R30,R28
                 	SUBI R30,LOW(-@0)
                 	SBCI R31,HIGH(-@0)
                 	ST   Z,R26
                 	.ENDM
                 
                 	.MACRO __PUTW2SX
                 	MOVW R30,R28
                 	SUBI R30,LOW(-@0)
                 	SBCI R31,HIGH(-@0)
                 	ST   Z+,R26
                 	ST   Z,R27
                 	.ENDM
                 
                 	.MACRO __PUTD2SX
                 	MOVW R30,R28
                 	SUBI R30,LOW(-@0)
                 	SBCI R31,HIGH(-@0)
                 	ST   Z+,R26
                 	ST   Z+,R27
                 	ST   Z+,R24
                 	ST   Z,R25
                 	.ENDM
                 
                 	.MACRO __PUTBSRX
                 	MOVW R30,R28
                 	SUBI R30,LOW(-@1)
                 	SBCI R31,HIGH(-@1)
                 	ST   Z,R@0
                 	.ENDM
                 
                 	.MACRO __PUTWSRX
                 	MOVW R30,R28
                 	SUBI R30,LOW(-@2)
                 	SBCI R31,HIGH(-@2)
                 	ST   Z+,R@0
                 	ST   Z,R@1
                 	.ENDM
                 
                 	.MACRO __PUTB1SNX
                 	MOVW R26,R28
                 	SUBI R26,LOW(-@0)
                 	SBCI R27,HIGH(-@0)
                 	LD   R0,X+
                 	LD   R27,X
                 	MOV  R26,R0
                 	SUBI R26,LOW(-@1)
                 	SBCI R27,HIGH(-@1)
                 	ST   X,R30
                 	.ENDM
                 
                 	.MACRO __PUTW1SNX
                 	MOVW R26,R28
                 	SUBI R26,LOW(-@0)
                 	SBCI R27,HIGH(-@0)
                 	LD   R0,X+
                 	LD   R27,X
                 	MOV  R26,R0
                 	SUBI R26,LOW(-@1)
                 	SBCI R27,HIGH(-@1)
                 	ST   X+,R30
                 	ST   X,R31
                 	.ENDM
                 
                 	.MACRO __PUTD1SNX
                 	MOVW R26,R28
                 	SUBI R26,LOW(-@0)
                 	SBCI R27,HIGH(-@0)
                 	LD   R0,X+
                 	LD   R27,X
                 	MOV  R26,R0
                 	SUBI R26,LOW(-@1)
                 	SBCI R27,HIGH(-@1)
                 	ST   X+,R30
                 	ST   X+,R31
                 	ST   X+,R22
                 	ST   X,R23
                 	.ENDM
                 
                 	.MACRO __MULBRR
                 	MULS R@0,R@1
                 	MOVW R30,R0
                 	.ENDM
                 
                 	.MACRO __MULBRRU
                 	MUL  R@0,R@1
                 	MOVW R30,R0
                 	.ENDM
                 
                 	.MACRO __MULBRR0
                 	MULS R@0,R@1
                 	.ENDM
                 
                 	.MACRO __MULBRRU0
                 	MUL  R@0,R@1
                 	.ENDM
                 
                 	.MACRO __MULBNWRU
                 	LDI  R26,@2
                 	MUL  R26,R@0
                 	MOVW R30,R0
                 	MUL  R26,R@1
                 	ADD  R31,R0
                 	.ENDM
                 
                 ;NAME DEFINITIONS FOR GLOBAL VARIABLES ALLOCATED TO REGISTERS
                 	.DEF _diffPWM=R5
                 	.DEF _kursorPID=R4
                 	.DEF _kursorSpeed=R7
                 	.DEF _kursorGaris=R6
                 	.DEF _sensor=R9
                 	.DEF _adc0=R8
                 	.DEF _adc1=R11
                 	.DEF _adc2=R10
                 	.DEF _adc3=R13
                 	.DEF _adc4=R12
                 
                 	.CSEG
                 	.ORG 0x00
                 
                 ;START OF CODE MARKER
                 __START_OF_CODE:
                 
                 ;INTERRUPT VECTORS
000000 940c 01d7 	JMP  __RESET
000002 940c 0000 	JMP  0x00
000004 940c 0000 	JMP  0x00
000006 940c 0000 	JMP  0x00
000008 940c 0000 	JMP  0x00
00000a 940c 0000 	JMP  0x00
00000c 940c 0000 	JMP  0x00
00000e 940c 0000 	JMP  0x00
000010 940c 0000 	JMP  0x00
000012 940c 0207 	JMP  _timer0_ovf_isr
000014 940c 0000 	JMP  0x00
000016 940c 0000 	JMP  0x00
000018 940c 0000 	JMP  0x00
00001a 940c 0000 	JMP  0x00
00001c 940c 0000 	JMP  0x00
00001e 940c 0000 	JMP  0x00
000020 940c 0000 	JMP  0x00
000022 940c 0000 	JMP  0x00
000024 940c 0000 	JMP  0x00
000026 940c 0000 	JMP  0x00
000028 940c 0000 	JMP  0x00
                 
                 _char0:
00002a 1860
00002b 7f06
00002c 067f
00002d 6018      	.DB  0x60,0x18,0x6,0x7F,0x7F,0x6,0x18,0x60
                 _tbl10_G100:
00002e 2710
00002f 03e8
000030 0064
000031 000a      	.DB  0x10,0x27,0xE8,0x3,0x64,0x0,0xA,0x0
000032 0001      	.DB  0x1,0x0
                 _tbl16_G100:
000033 1000
000034 0100
000035 0010
000036 0001      	.DB  0x0,0x10,0x0,0x1,0x10,0x0,0x1,0x0
                 
                 ;REGISTER BIT VARIABLES INITIALIZATION
                 __REG_BIT_VARS:
000037 0000      	.DW  0x0000
                 
                 _0x261:
D:\Punya Koko\LPKTA\line follower\tes lcd kedip\List\tes 3.asm(1112): warning: .cseg .db misalignment - padding zero byte
000038 000a      	.DB  0xA
                 _0x0:
000039 7554
00003a 696c
00003b 2073
00003c 656b      	.DB  0x54,0x75,0x6C,0x69,0x73,0x20,0x6B,0x65
00003d 4520
00003e 5045
00003f 4f52
000040 204d      	.DB  0x20,0x45,0x45,0x50,0x52,0x4F,0x4D,0x20
000041 2e00
000042 2e2e
000043 2020
000044 2020      	.DB  0x0,0x2E,0x2E,0x2E,0x20,0x20,0x20,0x20
000045 2020
000046 2020
000047 2020
000048 2020      	.DB  0x20,0x20,0x20,0x20,0x20,0x20,0x20,0x20
000049 0020
00004a 6553
00004b 2074
00004c 704b      	.DB  0x20,0x0,0x53,0x65,0x74,0x20,0x4B,0x70
00004d 3a20
00004e 2020
00004f 2020
000050 2020      	.DB  0x20,0x3A,0x20,0x20,0x20,0x20,0x20,0x20
000051 2020
000052 5300
000053 7465
000054 4b20      	.DB  0x20,0x20,0x0,0x53,0x65,0x74,0x20,0x4B
000055 2069
000056 203a
000057 2020
000058 2020      	.DB  0x69,0x20,0x3A,0x20,0x20,0x20,0x20,0x20
000059 2020
00005a 0020
00005b 6553
00005c 2074      	.DB  0x20,0x20,0x20,0x0,0x53,0x65,0x74,0x20
00005d 644b
00005e 3a20
00005f 2020
000060 2020      	.DB  0x4B,0x64,0x20,0x3A,0x20,0x20,0x20,0x20
000061 2020
000062 2020
000063 5300
000064 7465      	.DB  0x20,0x20,0x20,0x20,0x0,0x53,0x65,0x74
000065 4d20
000066 5841
000067 5320
000068 6570      	.DB  0x20,0x4D,0x41,0x58,0x20,0x53,0x70,0x65
000069 6465
00006a 3a20
00006b 0020
00006c 6553      	.DB  0x65,0x64,0x20,0x3A,0x20,0x0,0x53,0x65
00006d 2074
00006e 494d
00006f 204e
000070 7053      	.DB  0x74,0x20,0x4D,0x49,0x4E,0x20,0x53,0x70
000071 6565
000072 2064
000073 203a
000074 5700      	.DB  0x65,0x65,0x64,0x20,0x3A,0x20,0x0,0x57
000075 7261
000076 616e
000077 4720
000078 7261      	.DB  0x61,0x72,0x6E,0x61,0x20,0x47,0x61,0x72
000079 7369
00007a 2020
00007b 3a20
00007c 0020      	.DB  0x69,0x73,0x20,0x20,0x20,0x3A,0x20,0x0
00007d 6553
00007e 736e
00007f 694c
000080 656e      	.DB  0x53,0x65,0x6E,0x73,0x4C,0x69,0x6E,0x65
000081 3a20
000082 2020
000083 2020
000084 2020      	.DB  0x20,0x3A,0x20,0x20,0x20,0x20,0x20,0x20
000085 5300
000086 656b
000087 616e
000088 6972      	.DB  0x0,0x53,0x6B,0x65,0x6E,0x61,0x72,0x69
000089 206f
00008a 203a
00008b 2020
00008c 2020      	.DB  0x6F,0x20,0x3A,0x20,0x20,0x20,0x20,0x20
00008d 0020
00008e 2020
00008f 6553
000090 2074      	.DB  0x20,0x0,0x20,0x20,0x53,0x65,0x74,0x20
000091 4950
000092 2044
000093 2020
000094 2020      	.DB  0x50,0x49,0x44,0x20,0x20,0x20,0x20,0x20
000095 2020
000096 2000
000097 5320
000098 7465      	.DB  0x20,0x20,0x0,0x20,0x20,0x53,0x65,0x74
000099 5320
00009a 6570
00009b 6465
00009c 2020      	.DB  0x20,0x53,0x70,0x65,0x65,0x64,0x20,0x20
00009d 2020
00009e 0020
00009f 2020
0000a0 6553      	.DB  0x20,0x20,0x20,0x0,0x20,0x20,0x53,0x65
0000a1 2074
0000a2 6147
0000a3 6972
0000a4 2073      	.DB  0x74,0x20,0x47,0x61,0x72,0x69,0x73,0x20
0000a5 2020
0000a6 2020
0000a7 2000
0000a8 4e20      	.DB  0x20,0x20,0x20,0x20,0x0,0x20,0x20,0x4E
0000a9 746f
0000aa 5520
0000ab 6573
0000ac 2064      	.DB  0x6F,0x74,0x20,0x55,0x73,0x65,0x64,0x20
0000ad 2021
0000ae 2020
0000af 0020
0000b0 2020      	.DB  0x21,0x20,0x20,0x20,0x20,0x0,0x20,0x20
0000b1 6553
0000b2 2074
0000b3 6f4d
0000b4 6564      	.DB  0x53,0x65,0x74,0x20,0x4D,0x6F,0x64,0x65
0000b5 2020
0000b6 2020
0000b7 2020
0000b8 2020      	.DB  0x20,0x20,0x20,0x20,0x20,0x20,0x20,0x20
0000b9 0020
0000ba 2020
0000bb 7453
0000bc 7261      	.DB  0x20,0x0,0x20,0x20,0x53,0x74,0x61,0x72
0000bd 2174
0000be 2021
0000bf 2020
0000c0 2020      	.DB  0x74,0x21,0x21,0x20,0x20,0x20,0x20,0x20
0000c1 0020
0000c2 2020
0000c3 704b
0000c4 2020      	.DB  0x20,0x0,0x20,0x20,0x4B,0x70,0x20,0x20
0000c5 4b20
0000c6 2069
0000c7 2020
0000c8 644b      	.DB  0x20,0x4B,0x69,0x20,0x20,0x20,0x4B,0x64
0000c9 2020
0000ca 2000
0000cb 2020
0000cc 414d      	.DB  0x20,0x20,0x0,0x20,0x20,0x20,0x4D,0x41
0000cd 2058
0000ce 2020
0000cf 4d20
0000d0 4e49      	.DB  0x58,0x20,0x20,0x20,0x20,0x4D,0x49,0x4E
0000d1 2020
0000d2 0020
0000d3 2020
0000d4 4157      	.DB  0x20,0x20,0x20,0x0,0x20,0x20,0x57,0x41
0000d5 4e52
0000d6 2041
0000d7 203a
0000d8 7550      	.DB  0x52,0x4E,0x41,0x20,0x3A,0x20,0x50,0x75
0000d9 6974
0000da 2068
0000db 2000
0000dc 5720      	.DB  0x74,0x69,0x68,0x20,0x0,0x20,0x20,0x57
0000dd 5241
0000de 414e
0000df 3a20
0000e0 4820      	.DB  0x41,0x52,0x4E,0x41,0x20,0x3A,0x20,0x48
0000e1 7469
0000e2 6d61
0000e3 0020
0000e4 2020      	.DB  0x69,0x74,0x61,0x6D,0x20,0x0,0x20,0x20
0000e5 6553
0000e6 736e
0000e7 204c
0000e8 203a      	.DB  0x53,0x65,0x6E,0x73,0x4C,0x20,0x3A,0x20
0000e9 2020
0000ea 2020
0000eb 2020
0000ec 0020      	.DB  0x20,0x20,0x20,0x20,0x20,0x20,0x20,0x0
0000ed 6b53
0000ee 6e65
0000ef 202e
0000f0 6779      	.DB  0x53,0x6B,0x65,0x6E,0x2E,0x20,0x79,0x67
0000f1 2020
0000f2 7064
0000f3 6b61
0000f4 3a65      	.DB  0x20,0x20,0x64,0x70,0x61,0x6B,0x65,0x3A
0000f5 2000
0000f6 6f4d
0000f7 6564
0000f8 3a20      	.DB  0x0,0x20,0x4D,0x6F,0x64,0x65,0x20,0x3A
0000f9 2020
0000fa 2020
0000fb 2020
0000fc 2020      	.DB  0x20,0x20,0x20,0x20,0x20,0x20,0x20,0x20
0000fd 0020
0000fe 3120
0000ff 4c2e
000100 6869      	.DB  0x20,0x0,0x20,0x31,0x2E,0x4C,0x69,0x68
000101 7461
000102 4120
000103 4344
000104 2000      	.DB  0x61,0x74,0x20,0x41,0x44,0x43,0x0,0x20
000105 2e32
000106 6554
000107 7473
000108 4d20      	.DB  0x32,0x2E,0x54,0x65,0x73,0x74,0x20,0x4D
000109 646f
00010a 0065
00010b 3320
00010c 432e      	.DB  0x6F,0x64,0x65,0x0,0x20,0x33,0x2E,0x43
00010d 6b65
00010e 5320
00010f 6e65
000110 6f73      	.DB  0x65,0x6B,0x20,0x53,0x65,0x6E,0x73,0x6F
000111 2072
000112 2000
000113 2e34
000114 7541      	.DB  0x72,0x20,0x0,0x20,0x34,0x2E,0x41,0x75
000115 6f74
000116 5420
000117 6e75
000118 2065      	.DB  0x74,0x6F,0x20,0x54,0x75,0x6E,0x65,0x20
000119 2d31
00011a 0031
00011b 3520
00011c 412e      	.DB  0x31,0x2D,0x31,0x0,0x20,0x35,0x2E,0x41
00011d 7475
00011e 206f
00011f 7554
000120 656e      	.DB  0x75,0x74,0x6F,0x20,0x54,0x75,0x6E,0x65
000121 0020
000122 3620
000123 432e
000124 6b65      	.DB  0x20,0x0,0x20,0x36,0x2E,0x43,0x65,0x6B
000125 5020
000126 4d57
000127 4120
000128 746b      	.DB  0x20,0x50,0x57,0x4D,0x20,0x41,0x6B,0x74
000129 6669
00012a 2000
00012b 6425
00012c 2520      	.DB  0x69,0x66,0x0,0x20,0x25,0x64,0x20,0x25
00012d 2064
00012e 6425
00012f 2520
000130 0064      	.DB  0x64,0x20,0x25,0x64,0x20,0x25,0x64,0x0
000131 5420
000132 7365
000133 3a74
000134 6553      	.DB  0x20,0x54,0x65,0x73,0x74,0x3A,0x53,0x65
000135 736e
000136 726f
000137 2020
000138 2020      	.DB  0x6E,0x73,0x6F,0x72,0x20,0x20,0x20,0x20
000139 2000
00013a 6262
00013b 2030
00013c 6220      	.DB  0x0,0x20,0x62,0x62,0x30,0x20,0x20,0x62
00013d 3061
00013e 2020
00013f 7462
000140 0030      	.DB  0x61,0x30,0x20,0x20,0x62,0x74,0x30,0x0
000141 2520
000142 2064
000143 2520
000144 2064      	.DB  0x20,0x25,0x64,0x20,0x20,0x25,0x64,0x20
000145 2520
000146 0064
000147 6220
000148 3162      	.DB  0x20,0x25,0x64,0x0,0x20,0x62,0x62,0x31
000149 2020
00014a 6162
00014b 2031
00014c 6220      	.DB  0x20,0x20,0x62,0x61,0x31,0x20,0x20,0x62
00014d 3174
00014e 2000
00014f 6262
000150 2032      	.DB  0x74,0x31,0x0,0x20,0x62,0x62,0x32,0x20
000151 6220
000152 3261
000153 2020
000154 7462      	.DB  0x20,0x62,0x61,0x32,0x20,0x20,0x62,0x74
000155 0032
000156 6220
000157 3362
000158 2020      	.DB  0x32,0x0,0x20,0x62,0x62,0x33,0x20,0x20
000159 6162
00015a 2033
00015b 6220
00015c 3374      	.DB  0x62,0x61,0x33,0x20,0x20,0x62,0x74,0x33
00015d 2000
00015e 6262
00015f 2034
000160 6220      	.DB  0x0,0x20,0x62,0x62,0x34,0x20,0x20,0x62
000161 3461
000162 2020
000163 7462
000164 0034      	.DB  0x61,0x34,0x20,0x20,0x62,0x74,0x34,0x0
000165 6220
000166 3562
000167 2020
000168 6162      	.DB  0x20,0x62,0x62,0x35,0x20,0x20,0x62,0x61
000169 2035
00016a 6220
00016b 3574
00016c 2000      	.DB  0x35,0x20,0x20,0x62,0x74,0x35,0x0,0x20
00016d 6262
00016e 2036
00016f 6220
000170 3661      	.DB  0x62,0x62,0x36,0x20,0x20,0x62,0x61,0x36
000171 2020
000172 7462
000173 0036
000174 6220      	.DB  0x20,0x20,0x62,0x74,0x36,0x0,0x20,0x62
000175 3762
000176 2020
000177 6162
000178 2037      	.DB  0x62,0x37,0x20,0x20,0x62,0x61,0x37,0x20
000179 6220
00017a 3774
00017b 2500
00017c 2064      	.DB  0x20,0x62,0x74,0x37,0x0,0x25,0x64,0x20
00017d 6425
00017e 2520
00017f 2064
000180 6425      	.DB  0x25,0x64,0x20,0x25,0x64,0x20,0x25,0x64
000181 2520
000182 2064
000183 6425
000184 2520      	.DB  0x20,0x25,0x64,0x20,0x25,0x64,0x20,0x25
000185 2064
000186 6425
000187 2500
000188 2064      	.DB  0x64,0x20,0x25,0x64,0x0,0x25,0x64,0x20
000189 2020
00018a 6425
00018b 2000
00018c 2020      	.DB  0x20,0x20,0x25,0x64,0x0,0x20,0x20,0x20
00018d 2020
00018e 2020
00018f 2020
000190 2020      	.DB  0x20,0x20,0x20,0x20,0x20,0x20,0x20,0x20
000191 2020
000192 2020
000193 0020
000194 2020      	.DB  0x20,0x20,0x20,0x20,0x20,0x0,0x20,0x20
000195 6b53
000196 6e65
000197 7261
000198 6f69      	.DB  0x53,0x6B,0x65,0x6E,0x61,0x72,0x69,0x6F
000199 312d
00019a 2000
00019b 4f20
00019c 204b      	.DB  0x2D,0x31,0x0,0x20,0x20,0x4F,0x4B,0x20
00019d 003f
00019e 2020
00019f 6b53
0001a0 6e65      	.DB  0x3F,0x0,0x20,0x20,0x53,0x6B,0x65,0x6E
0001a1 7261
0001a2 6f69
0001a3 322d
0001a4 2000      	.DB  0x61,0x72,0x69,0x6F,0x2D,0x32,0x0,0x20
0001a5 5320
0001a6 656b
0001a7 616e
0001a8 6972      	.DB  0x20,0x53,0x6B,0x65,0x6E,0x61,0x72,0x69
0001a9 2d6f
0001aa 0033
0001ab 2020
0001ac 6b53      	.DB  0x6F,0x2D,0x33,0x0,0x20,0x20,0x53,0x6B
0001ad 6e65
0001ae 7261
0001af 6f69
0001b0 342d      	.DB  0x65,0x6E,0x61,0x72,0x69,0x6F,0x2D,0x34
0001b1 2000
0001b2 5320
0001b3 656b
0001b4 616e      	.DB  0x0,0x20,0x20,0x53,0x6B,0x65,0x6E,0x61
0001b5 6972
0001b6 2d6f
0001b7 0035
0001b8 2020      	.DB  0x72,0x69,0x6F,0x2D,0x35,0x0,0x20,0x20
0001b9 6b53
0001ba 6e65
0001bb 7261
0001bc 6f69      	.DB  0x53,0x6B,0x65,0x6E,0x61,0x72,0x69,0x6F
0001bd 362d
0001be 2000
0001bf 5320
0001c0 656b      	.DB  0x2D,0x36,0x0,0x20,0x20,0x53,0x6B,0x65
0001c1 616e
0001c2 6972
0001c3 2d6f
0001c4 0037      	.DB  0x6E,0x61,0x72,0x69,0x6F,0x2D,0x37,0x0
0001c5 2020
0001c6 6b53
0001c7 6e65
0001c8 7261      	.DB  0x20,0x20,0x53,0x6B,0x65,0x6E,0x61,0x72
0001c9 6f69
0001ca 382d
D:\Punya Koko\LPKTA\line follower\tes lcd kedip\List\tes 3.asm(1214): warning: .cseg .db misalignment - padding zero byte
0001cb 0000      	.DB  0x69,0x6F,0x2D,0x38,0x0
                 _0x2020003:
0001cc c080      	.DB  0x80,0xC0
                 
                 __GLOBAL_INI_TBL:
0001cd 0001      	.DW  0x01
0001ce 0002      	.DW  0x02
0001cf 006e      	.DW  __REG_BIT_VARS*2
                 
0001d0 0001      	.DW  0x01
0001d1 0005      	.DW  0x05
0001d2 0070      	.DW  _0x261*2
                 
0001d3 0002      	.DW  0x02
0001d4 01a5      	.DW  __base_y_G101
0001d5 0398      	.DW  _0x2020003*2
                 
                 _0xFFFFFFFF:
0001d6 0000      	.DW  0
                 
                 __RESET:
0001d7 94f8      	CLI
0001d8 27ee      	CLR  R30
0001d9 bbec      	OUT  EECR,R30
                 
                 ;INTERRUPT VECTORS ARE PLACED
                 ;AT THE START OF FLASH
0001da e0f1      	LDI  R31,1
0001db bffb      	OUT  GICR,R31
0001dc bfeb      	OUT  GICR,R30
0001dd bfe5      	OUT  MCUCR,R30
                 
                 ;DISABLE WATCHDOG
0001de e1f8      	LDI  R31,0x18
0001df bdf1      	OUT  WDTCR,R31
0001e0 bde1      	OUT  WDTCR,R30
                 
                 ;CLEAR R2-R14
0001e1 e08d      	LDI  R24,(14-2)+1
0001e2 e0a2      	LDI  R26,2
0001e3 27bb      	CLR  R27
                 __CLEAR_REG:
0001e4 93ed      	ST   X+,R30
0001e5 958a      	DEC  R24
0001e6 f7e9      	BRNE __CLEAR_REG
                 
                 ;CLEAR SRAM
0001e7 e080      	LDI  R24,LOW(__CLEAR_SRAM_SIZE)
0001e8 e094      	LDI  R25,HIGH(__CLEAR_SRAM_SIZE)
0001e9 e6a0      	LDI  R26,__SRAM_START
                 __CLEAR_SRAM:
0001ea 93ed      	ST   X+,R30
0001eb 9701      	SBIW R24,1
0001ec f7e9      	BRNE __CLEAR_SRAM
                 
                 ;GLOBAL VARIABLES INITIALIZATION
0001ed e9ea      	LDI  R30,LOW(__GLOBAL_INI_TBL*2)
0001ee e0f3      	LDI  R31,HIGH(__GLOBAL_INI_TBL*2)
                 __GLOBAL_INI_NEXT:
0001ef 9185      	LPM  R24,Z+
0001f0 9195      	LPM  R25,Z+
0001f1 9700      	SBIW R24,0
0001f2 f061      	BREQ __GLOBAL_INI_END
0001f3 91a5      	LPM  R26,Z+
0001f4 91b5      	LPM  R27,Z+
0001f5 9005      	LPM  R0,Z+
0001f6 9015      	LPM  R1,Z+
0001f7 01bf      	MOVW R22,R30
0001f8 01f0      	MOVW R30,R0
                 __GLOBAL_INI_LOOP:
0001f9 9005      	LPM  R0,Z+
0001fa 920d      	ST   X+,R0
0001fb 9701      	SBIW R24,1
0001fc f7e1      	BRNE __GLOBAL_INI_LOOP
0001fd 01fb      	MOVW R30,R22
0001fe cff0      	RJMP __GLOBAL_INI_NEXT
                 __GLOBAL_INI_END:
                 
                 ;HARDWARE STACK POINTER INITIALIZATION
0001ff e5ef      	LDI  R30,LOW(__SRAM_END-__HEAP_SIZE)
000200 bfed      	OUT  SPL,R30
000201 e0e4      	LDI  R30,HIGH(__SRAM_END-__HEAP_SIZE)
000202 bfee      	OUT  SPH,R30
                 
                 ;DATA STACK POINTER INITIALIZATION
000203 e6c0      	LDI  R28,LOW(__SRAM_START+__DSTACK_SIZE)
000204 e0d1      	LDI  R29,HIGH(__SRAM_START+__DSTACK_SIZE)
                 
000205 940c 0f59 	JMP  _main
                 
                 	.ESEG
                 	.ORG 0
                 
                 	.DSEG
                 	.ORG 0x160
                 
                 	.CSEG
                 ;/*****************************************************
                 ;This program was produced by the
                 ;CodeWizardAVR V2.05.0 Professional
                 ;Automatic Program Generator
                 ; Copyright 1998-2010 Pavel Haiduc, HP InfoTech s.r.l.
                 ;http://www.hpinfotech.com
                 ;
                 ;Project :
                 ;Version :
                 ;Date    : 12/6/2012
                 ;Author  :
                 ;Company :
                 ;Comments:
                 ;
                 ;
                 ;Chip type               : ATmega16
                 ;Program type            : Application
                 ;AVR Core Clock frequency: 12.000000 MHz
                 ;Memory model            : Small
                 ;External RAM size       : 0
                 ;Data Stack size         : 256
                 ;*****************************************************/
                 ;
                 ;#include <mega16.h>
                 	#ifndef __SLEEP_DEFINED__
                 	#define __SLEEP_DEFINED__
                 	.EQU __se_bit=0x40
                 	.EQU __sm_mask=0xB0
                 	.EQU __sm_powerdown=0x20
                 	.EQU __sm_powersave=0x30
                 	.EQU __sm_standby=0xA0
                 	.EQU __sm_ext_standby=0xB0
                 	.EQU __sm_adc_noise_red=0x10
                 	.SET power_ctrl_reg=mcucr
                 	#endif
                 ;#include <stdio.h>
                 ;#include <delay.h>
                 ;
                 ;// Alphanumeric LCD Module functions
                 ;#include <alcd.h>
                 ;
                 ;#define ADC_VREF_TYPE 0x20
                 ;
                 ;#define sw_up           PIND.4
                 ;#define sw_down         PIND.6
                 ;#define sw_ok           PIND.5
                 ;#define sw_cancel       PIND.3
                 ;
                 ;#define backlight       PORTB.3
                 ;
                 ;#define sKa     PINC.0
                 ;#define sKi     PINC.1
                 ;
                 ;#define Enki    PORTC.2
                 ;#define kirplus PORTC.3
                 ;#define kirmin  PORTC.4
                 ;#define Enka    PORTC.5
                 ;#define kaplus  PORTC.7
                 ;#define kamin   PORTC.6
                 ;
                 ;bit s0,s1,s2,s3,s4,s5,s6,s7;
                 ;char lcd[32];
                 ;char diffPWM = 10;
                 ;unsigned char kursorPID, kursorSpeed, kursorGaris;
                 ;unsigned char sensor, adc0, adc1, adc2, adc3, adc4, adc5, adc6, adc7;
                 ;unsigned char xcount;
                 ;unsigned char SP = 0;
                 ;int lpwm, rpwm, MAXPWM, MINPWM, intervalPWM;
                 ;int MV, P, I, D, PV, error, last_error, rate;
                 ;int var_Kp, var_Ki, var_Kd;
                 ;
                 ;eeprom unsigned char Kp = 10;
                 ;eeprom unsigned char Ki = 0;
                 ;eeprom unsigned char Kd = 5;
                 ;eeprom unsigned char MAXSpeed = 255;
                 ;eeprom unsigned char MINSpeed = 0;
                 ;eeprom unsigned char WarnaGaris = 1; // 1 : putih; 0 : hitam
                 ;eeprom unsigned char SensLine = 2; // banyaknya sensor dlm 1 garis
                 ;eeprom unsigned char Skenario = 2;
                 ;eeprom unsigned char Mode = 1;
                 ;eeprom unsigned char NoStrategi = 1;
                 ;eeprom unsigned char bt7=7,bt6=7,bt5=7,bt4=7,bt3=7,bt2=7,bt1=7,bt0=7;
                 ;eeprom unsigned char ba7=7,ba6=7,ba5=7,ba4=7,ba3=7,ba2=7,ba1=7,ba0=7;
                 ;eeprom unsigned char bb7=200,bb6=200,bb5=200,bb4=200,bb3=200,bb2=200,bb1=200,bb0=200;
                 ;
                 ;interrupt [TIM0_OVF] void timer0_ovf_isr(void)
                 ; 0000 004C {
                 
                 	.CSEG
                 _timer0_ovf_isr:
000207 93aa      	ST   -Y,R26
000208 93ba      	ST   -Y,R27
000209 93ea      	ST   -Y,R30
00020a 93fa      	ST   -Y,R31
00020b b7ef      	IN   R30,SREG
00020c 93ea      	ST   -Y,R30
                 ; 0000 004D         // Place your code here
                 ; 0000 004E 	xcount++;
00020d 91e0 0183 	LDS  R30,_xcount
00020f 5fef      	SUBI R30,-LOW(1)
000210 93e0 0183 	STS  _xcount,R30
                 ; 0000 004F 	if(xcount<=lpwm)Enki=1;
000212 940e 126c 	CALL SUBOPT_0x0
000214 940e 1271 	CALL SUBOPT_0x1
000216 f014      	BRLT _0x3
000217 9aaa      	SBI  0x15,2
                 ; 0000 0050 	else Enki=0;
000218 c001      	RJMP _0x6
                 _0x3:
000219 98aa      	CBI  0x15,2
                 ; 0000 0051 	if(xcount<=rpwm)Enka=1;
                 _0x6:
00021a 940e 1277 	CALL SUBOPT_0x2
00021c 940e 1271 	CALL SUBOPT_0x1
00021e f014      	BRLT _0x9
00021f 9aad      	SBI  0x15,5
                 ; 0000 0052 	else Enka=0;
000220 c001      	RJMP _0xC
                 _0x9:
000221 98ad      	CBI  0x15,5
                 ; 0000 0053 	TCNT0=0xFF;
                 _0xC:
000222 efef      	LDI  R30,LOW(255)
000223 bfe2      	OUT  0x32,R30
                 ; 0000 0054 }
000224 91e9      	LD   R30,Y+
000225 bfef      	OUT  SREG,R30
000226 91f9      	LD   R31,Y+
000227 91e9      	LD   R30,Y+
000228 91b9      	LD   R27,Y+
000229 91a9      	LD   R26,Y+
00022a 9518      	RETI
                 ;
                 ;typedef unsigned char byte;
                 ;flash byte char0[8]={
                 ;0b1100000,
                 ;0b0011000,
                 ;0b0000110,
                 ;0b1111111,
                 ;0b1111111,
                 ;0b0000110,
                 ;0b0011000,
                 ;0b1100000};
                 ;
                 ;unsigned char read_adc(unsigned char adc_input);
                 ;void define_char(byte flash *pc,byte char_code);
                 ;void tampil(unsigned char dat);
                 ;void tulisKeEEPROM ( byte NoMenu, byte NoSubMenu, byte var_in_eeprom );
                 ;void setByte( byte NoMenu, byte NoSubMenu );
                 ;void showMenu(void);
                 ;void baca_sensor(void);
                 ;void displaySensorBit(void);
                 ;void maju(void);
                 ;void mundur(void);
                 ;void bkan(void);
                 ;void bkir(void);
                 ;void stop(void);
                 ;void pemercepat(void);
                 ;void pelambat(void);
                 ;void rotkan(void);
                 ;void rotkir(void);
                 ;void cek_sensor(void);
                 ;void tune_batas(void);
                 ;void auto_scan(void);
                 ;void scanBlackLine(void);
                 ;void scanSudut(void);
                 ;void strategi(void);
                 ;void indikatorSudut(void);
                 ;void indikatorPerempatan(void);
                 ;//void cariLancipKiri(void);
                 ;//void cariSikuKiri(void);
                 ;//void cariLancipKanan(void);
                 ;//void cariSikuKanan(void);
                 ;void cariPerempatanKanan(void);
                 ;void cariPerempatanKiri(void);
                 ;void cariPerempatanLurus(void);
                 ;void cariPertigaanKanan(void);
                 ;void cariPertigaanKiri(void);
                 ;void cariPer3anKanan(void);
                 ;void cariPer3anKiri(void);
                 ;void cariPer3anLurus(void);
                 ;void cariYKanan(void);
                 ;void cariYKiri(void);
                 ;
                 ;unsigned char read_adc(unsigned char adc_input)
                 ; 0000 008A {
                 _read_adc:
                 ; 0000 008B         ADMUX=adc_input | (ADC_VREF_TYPE & 0xff);
                 ;	adc_input -> Y+0
00022b 81e8      	LD   R30,Y
00022c 62e0      	ORI  R30,0x20
00022d b9e7      	OUT  0x7,R30
                 ; 0000 008C 
                 ; 0000 008D         // Delay needed for the stabilization of the ADC input voltage
                 ; 0000 008E         delay_us(10);
                +
00022e e288     +LDI R24 , LOW ( 40 )
                +__DELAY_USB_LOOP :
00022f 958a     +DEC R24
000230 f7f1     +BRNE __DELAY_USB_LOOP
                 	__DELAY_USB 40
                 ; 0000 008F 
                 ; 0000 0090         // Start the AD conversion
                 ; 0000 0091         ADCSRA|=0x40;
000231 9a36      	SBI  0x6,6
                 ; 0000 0092 
                 ; 0000 0093         // Wait for the AD conversion to complete
                 ; 0000 0094         while ((ADCSRA & 0x10)==0);
                 _0xF:
000232 9b34      	SBIS 0x6,4
000233 cffe      	RJMP _0xF
                 ; 0000 0095         ADCSRA|=0x10;
000234 9a34      	SBI  0x6,4
                 ; 0000 0096         return ADCH;
000235 b1e5      	IN   R30,0x5
000236 9621      	ADIW R28,1
000237 9508      	RET
                 ; 0000 0097 }
                 ;
                 ;void define_char(byte flash *pc,byte char_code)
                 ; 0000 009A {
                 _define_char:
                 ; 0000 009B         byte i,a;
                 ; 0000 009C         a=(char_code<<3) | 0x40;
000238 931a      	ST   -Y,R17
000239 930a      	ST   -Y,R16
                 ;	*pc -> Y+3
                 ;	char_code -> Y+2
                 ;	i -> R17
                 ;	a -> R16
00023a 81ea      	LDD  R30,Y+2
00023b 0fee      	LSL  R30
00023c 0fee      	LSL  R30
00023d 0fee      	LSL  R30
00023e 64e0      	ORI  R30,0x40
00023f 2f0e      	MOV  R16,R30
                 ; 0000 009D         for (i=0; i<8; i++) lcd_write_byte(a++,*pc++);
000240 e010      	LDI  R17,LOW(0)
                 _0x13:
000241 3018      	CPI  R17,8
000242 f470      	BRSH _0x14
000243 930a      	ST   -Y,R16
000244 9503      	INC  R16
000245 81ec      	LDD  R30,Y+4
000246 81fd      	LDD  R31,Y+4+1
000247 9631      	ADIW R30,1
000248 83ec      	STD  Y+4,R30
000249 83fd      	STD  Y+4+1,R31
00024a 9731      	SBIW R30,1
00024b 91e4      	LPM  R30,Z
00024c 93ea      	ST   -Y,R30
00024d 940e 11c1 	CALL _lcd_write_byte
00024f 5f1f      	SUBI R17,-1
000250 cff0      	RJMP _0x13
                 _0x14:
                 ; 0000 009E }
000251 8119      	LDD  R17,Y+1
000252 8108      	LDD  R16,Y+0
000253 9625      	ADIW R28,5
000254 9508      	RET
                 ;
                 ;void tampil(unsigned char dat)
                 ; 0000 00A1 {
                 _tampil:
                 ; 0000 00A2         unsigned char data;
                 ; 0000 00A3 
                 ; 0000 00A4         data = dat / 100;
000255 931a      	ST   -Y,R17
                 ;	dat -> Y+1
                 ;	data -> R17
000256 81a9      	LDD  R26,Y+1
000257 e0b0      	LDI  R27,0
000258 e6e4      	LDI  R30,LOW(100)
000259 e0f0      	LDI  R31,HIGH(100)
00025a 940e 127c 	CALL SUBOPT_0x3
                 ; 0000 00A5         data+=0x30;
                 ; 0000 00A6         lcd_putchar(data);
                 ; 0000 00A7 
                 ; 0000 00A8         dat%=100;
00025c e6e4      	LDI  R30,LOW(100)
00025d e0f0      	LDI  R31,HIGH(100)
00025e 940e 1561 	CALL __MODW21
000260 83e9      	STD  Y+1,R30
                 ; 0000 00A9         data = dat / 10;
000261 81a9      	LDD  R26,Y+1
000262 e0b0      	LDI  R27,0
000263 e0ea      	LDI  R30,LOW(10)
000264 e0f0      	LDI  R31,HIGH(10)
000265 940e 127c 	CALL SUBOPT_0x3
                 ; 0000 00AA         data+=0x30;
                 ; 0000 00AB         lcd_putchar(data);
                 ; 0000 00AC 
                 ; 0000 00AD         dat%=10;
000267 e0ea      	LDI  R30,LOW(10)
000268 e0f0      	LDI  R31,HIGH(10)
000269 940e 1561 	CALL __MODW21
00026b 83e9      	STD  Y+1,R30
                 ; 0000 00AE         data = dat + 0x30;
00026c 5de0      	SUBI R30,-LOW(48)
00026d 2f1e      	MOV  R17,R30
                 ; 0000 00AF         lcd_putchar(data);
00026e 931a      	ST   -Y,R17
00026f 940e 11e7 	CALL _lcd_putchar
                 ; 0000 00B0 }
000271 8118      	LDD  R17,Y+0
000272 9622      	ADIW R28,2
000273 9508      	RET
                 ;
                 ;void tulisKeEEPROM ( byte NoMenu, byte NoSubMenu, byte var_in_eeprom )
                 ; 0000 00B3 {
                 _tulisKeEEPROM:
                 ; 0000 00B4         lcd_gotoxy(0, 0);
                 ;	NoMenu -> Y+2
                 ;	NoSubMenu -> Y+1
                 ;	var_in_eeprom -> Y+0
000274 940e 1286 	CALL SUBOPT_0x4
                 ; 0000 00B5         lcd_putsf("Tulis ke EEPROM ");
                +
000276 e7e2     +LDI R30 , LOW ( 2 * _0x0 + ( 0 ) )
000277 e0f0     +LDI R31 , HIGH ( 2 * _0x0 + ( 0 ) )
                 	__POINTW1FN _0x0,0
000278 940e 128b 	CALL SUBOPT_0x5
                 ; 0000 00B6         lcd_putsf("...             ");
                +
00027a e8e3     +LDI R30 , LOW ( 2 * _0x0 + ( 17 ) )
00027b e0f0     +LDI R31 , HIGH ( 2 * _0x0 + ( 17 ) )
                 	__POINTW1FN _0x0,17
00027c 940e 128b 	CALL SUBOPT_0x5
                 ; 0000 00B7         switch (NoMenu)
00027e 81ea      	LDD  R30,Y+2
00027f 940e 128f 	CALL SUBOPT_0x6
                 ; 0000 00B8         {
                 ; 0000 00B9                 case 1: // PID
000281 f4d1      	BRNE _0x18
                 ; 0000 00BA                 switch (NoSubMenu)
000282 81e9      	LDD  R30,Y+1
000283 940e 128f 	CALL SUBOPT_0x6
                 ; 0000 00BB                 {
                 ; 0000 00BC                         case 1: // Kp
000285 f421      	BRNE _0x1C
                 ; 0000 00BD                         Kp = var_in_eeprom;
000286 81e8      	LD   R30,Y
000287 e0a0      	LDI  R26,LOW(_Kp)
000288 e0b0      	LDI  R27,HIGH(_Kp)
000289 c00f      	RJMP _0x245
                 ; 0000 00BE                         break;
                 ; 0000 00BF 
                 ; 0000 00C0                         case 2: // Ki
                 _0x1C:
00028a 30e2      	CPI  R30,LOW(0x2)
00028b e0a0      	LDI  R26,HIGH(0x2)
00028c 07fa      	CPC  R31,R26
00028d f421      	BRNE _0x1D
                 ; 0000 00C1                         Ki = var_in_eeprom;
00028e 81e8      	LD   R30,Y
00028f e0a1      	LDI  R26,LOW(_Ki)
000290 e0b0      	LDI  R27,HIGH(_Ki)
000291 c007      	RJMP _0x245
                 ; 0000 00C2                         break;
                 ; 0000 00C3 
                 ; 0000 00C4                         case 3: // Kd
                 _0x1D:
000292 30e3      	CPI  R30,LOW(0x3)
000293 e0a0      	LDI  R26,HIGH(0x3)
000294 07fa      	CPC  R31,R26
000295 f429      	BRNE _0x1B
                 ; 0000 00C5                         Kd = var_in_eeprom;
000296 81e8      	LD   R30,Y
000297 e0a2      	LDI  R26,LOW(_Kd)
000298 e0b0      	LDI  R27,HIGH(_Kd)
                 _0x245:
000299 940e 1596 	CALL __EEPROMWRB
                 ; 0000 00C6                         break;
                 ; 0000 00C7                 }
                 _0x1B:
                 ; 0000 00C8                 break;
00029b c035      	RJMP _0x17
                 ; 0000 00C9 
                 ; 0000 00CA                 case 2: // Speed
                 _0x18:
00029c 30e2      	CPI  R30,LOW(0x2)
00029d e0a0      	LDI  R26,HIGH(0x2)
00029e 07fa      	CPC  R31,R26
00029f f491      	BRNE _0x1F
                 ; 0000 00CB                 switch (NoSubMenu)
0002a0 81e9      	LDD  R30,Y+1
0002a1 940e 128f 	CALL SUBOPT_0x6
                 ; 0000 00CC                 {
                 ; 0000 00CD                         case 1: // MAX
0002a3 f421      	BRNE _0x23
                 ; 0000 00CE                         MAXSpeed = var_in_eeprom;
0002a4 81e8      	LD   R30,Y
0002a5 e0a3      	LDI  R26,LOW(_MAXSpeed)
0002a6 e0b0      	LDI  R27,HIGH(_MAXSpeed)
0002a7 c007      	RJMP _0x246
                 ; 0000 00CF                         break;
                 ; 0000 00D0 
                 ; 0000 00D1                         case 2: // MIN
                 _0x23:
0002a8 30e2      	CPI  R30,LOW(0x2)
0002a9 e0a0      	LDI  R26,HIGH(0x2)
0002aa 07fa      	CPC  R31,R26
0002ab f429      	BRNE _0x22
                 ; 0000 00D2                         MINSpeed = var_in_eeprom;
0002ac 81e8      	LD   R30,Y
0002ad e0a4      	LDI  R26,LOW(_MINSpeed)
0002ae e0b0      	LDI  R27,HIGH(_MINSpeed)
                 _0x246:
0002af 940e 1596 	CALL __EEPROMWRB
                 ; 0000 00D3                         break;
                 ; 0000 00D4                 }
                 _0x22:
                 ; 0000 00D5                 break;
0002b1 c01f      	RJMP _0x17
                 ; 0000 00D6 
                 ; 0000 00D7                 case 3: // Warna Garis
                 _0x1F:
0002b2 30e3      	CPI  R30,LOW(0x3)
0002b3 e0a0      	LDI  R26,HIGH(0x3)
0002b4 07fa      	CPC  R31,R26
0002b5 f491      	BRNE _0x25
                 ; 0000 00D8                 switch (NoSubMenu)
0002b6 81e9      	LDD  R30,Y+1
0002b7 940e 128f 	CALL SUBOPT_0x6
                 ; 0000 00D9                 {
                 ; 0000 00DA                         case 1: // Warna
0002b9 f421      	BRNE _0x29
                 ; 0000 00DB                         WarnaGaris = var_in_eeprom;
0002ba 81e8      	LD   R30,Y
0002bb e0a5      	LDI  R26,LOW(_WarnaGaris)
0002bc e0b0      	LDI  R27,HIGH(_WarnaGaris)
0002bd c007      	RJMP _0x247
                 ; 0000 00DC                         break;
                 ; 0000 00DD 
                 ; 0000 00DE                         case 2: // SensL
                 _0x29:
0002be 30e2      	CPI  R30,LOW(0x2)
0002bf e0a0      	LDI  R26,HIGH(0x2)
0002c0 07fa      	CPC  R31,R26
0002c1 f429      	BRNE _0x28
                 ; 0000 00DF                         SensLine = var_in_eeprom;
0002c2 81e8      	LD   R30,Y
0002c3 e0a6      	LDI  R26,LOW(_SensLine)
0002c4 e0b0      	LDI  R27,HIGH(_SensLine)
                 _0x247:
0002c5 940e 1596 	CALL __EEPROMWRB
                 ; 0000 00E0                         break;
                 ; 0000 00E1                 }
                 _0x28:
                 ; 0000 00E2                 break;
0002c7 c009      	RJMP _0x17
                 ; 0000 00E3 
                 ; 0000 00E4                 case 4: // Skenario
                 _0x25:
0002c8 30e4      	CPI  R30,LOW(0x4)
0002c9 e0a0      	LDI  R26,HIGH(0x4)
0002ca 07fa      	CPC  R31,R26
0002cb f429      	BRNE _0x17
                 ; 0000 00E5                 Skenario = var_in_eeprom;
0002cc 81e8      	LD   R30,Y
0002cd e0a7      	LDI  R26,LOW(_Skenario)
0002ce e0b0      	LDI  R27,HIGH(_Skenario)
0002cf 940e 1596 	CALL __EEPROMWRB
                 ; 0000 00E6                 break;
                 ; 0000 00E7         }
                 _0x17:
                 ; 0000 00E8         delay_ms(200);
0002d1 940e 1294 	CALL SUBOPT_0x7
                 ; 0000 00E9 }
0002d3 9623      	ADIW R28,3
0002d4 9508      	RET
                 ;
                 ;void setByte( byte NoMenu, byte NoSubMenu )
                 ; 0000 00EC {
                 _setByte:
                 ; 0000 00ED         byte var_in_eeprom;
                 ; 0000 00EE         byte plus5 = 0;
                 ; 0000 00EF         char limitPilih = -1;
                 ; 0000 00F0 
                 ; 0000 00F1         lcd_clear();
0002d5 940e 15ad 	CALL __SAVELOCR4
                 ;	NoMenu -> Y+5
                 ;	NoSubMenu -> Y+4
                 ;	var_in_eeprom -> R17
                 ;	plus5 -> R16
                 ;	limitPilih -> R19
0002d7 e000      	LDI  R16,0
0002d8 ef3f      	LDI  R19,255
0002d9 940e 129a 	CALL SUBOPT_0x8
                 ; 0000 00F2         lcd_gotoxy(0, 0);
                 ; 0000 00F3         switch (NoMenu)
0002db 81ed      	LDD  R30,Y+5
0002dc 940e 128f 	CALL SUBOPT_0x6
                 ; 0000 00F4         {
                 ; 0000 00F5                 case 1: // PID
0002de f521      	BRNE _0x2F
                 ; 0000 00F6                 switch (NoSubMenu)
0002df 81ec      	LDD  R30,Y+4
0002e0 940e 128f 	CALL SUBOPT_0x6
                 ; 0000 00F7                 {
                 ; 0000 00F8                         case 1: // Kp
0002e2 f439      	BRNE _0x33
                 ; 0000 00F9                         lcd_putsf("Set Kp :        ");
                +
0002e3 e9e4     +LDI R30 , LOW ( 2 * _0x0 + ( 34 ) )
0002e4 e0f0     +LDI R31 , HIGH ( 2 * _0x0 + ( 34 ) )
                 	__POINTW1FN _0x0,34
0002e5 940e 128b 	CALL SUBOPT_0x5
                 ; 0000 00FA                         var_in_eeprom = Kp;
0002e7 e0a0      	LDI  R26,LOW(_Kp)
0002e8 e0b0      	LDI  R27,HIGH(_Kp)
0002e9 c015      	RJMP _0x248
                 ; 0000 00FB                         break;
                 ; 0000 00FC 
                 ; 0000 00FD                         case 2: // Ki
                 _0x33:
0002ea 30e2      	CPI  R30,LOW(0x2)
0002eb e0a0      	LDI  R26,HIGH(0x2)
0002ec 07fa      	CPC  R31,R26
0002ed f439      	BRNE _0x34
                 ; 0000 00FE                         lcd_putsf("Set Ki :        ");
                +
0002ee eae5     +LDI R30 , LOW ( 2 * _0x0 + ( 51 ) )
0002ef e0f0     +LDI R31 , HIGH ( 2 * _0x0 + ( 51 ) )
                 	__POINTW1FN _0x0,51
0002f0 940e 128b 	CALL SUBOPT_0x5
                 ; 0000 00FF                         var_in_eeprom = Ki;
0002f2 e0a1      	LDI  R26,LOW(_Ki)
0002f3 e0b0      	LDI  R27,HIGH(_Ki)
0002f4 c00a      	RJMP _0x248
                 ; 0000 0100                         break;
                 ; 0000 0101 
                 ; 0000 0102                         case 3: // Kd
                 _0x34:
0002f5 30e3      	CPI  R30,LOW(0x3)
0002f6 e0a0      	LDI  R26,HIGH(0x3)
0002f7 07fa      	CPC  R31,R26
0002f8 f449      	BRNE _0x32
                 ; 0000 0103                         lcd_putsf("Set Kd :        ");
                +
0002f9 ebe6     +LDI R30 , LOW ( 2 * _0x0 + ( 68 ) )
0002fa e0f0     +LDI R31 , HIGH ( 2 * _0x0 + ( 68 ) )
                 	__POINTW1FN _0x0,68
0002fb 940e 128b 	CALL SUBOPT_0x5
                 ; 0000 0104                         var_in_eeprom = Kd;
0002fd e0a2      	LDI  R26,LOW(_Kd)
0002fe e0b0      	LDI  R27,HIGH(_Kd)
                 _0x248:
0002ff 940e 158a 	CALL __EEPROMRDB
000301 2f1e      	MOV  R17,R30
                 ; 0000 0105                         break;
                 ; 0000 0106                 }
                 _0x32:
                 ; 0000 0107                 break;
000302 c04b      	RJMP _0x2E
                 ; 0000 0108 
                 ; 0000 0109                 case 2: // Speed
                 _0x2F:
000303 30e2      	CPI  R30,LOW(0x2)
000304 e0a0      	LDI  R26,HIGH(0x2)
000305 07fa      	CPC  R31,R26
000306 f4d1      	BRNE _0x36
                 ; 0000 010A                 plus5 = 1;
000307 e001      	LDI  R16,LOW(1)
                 ; 0000 010B                 switch (NoSubMenu)
000308 81ec      	LDD  R30,Y+4
000309 940e 128f 	CALL SUBOPT_0x6
                 ; 0000 010C                 {
                 ; 0000 010D                         case 1: // MAX
00030b f439      	BRNE _0x3A
                 ; 0000 010E                         lcd_putsf("Set MAX Speed : ");
                +
00030c ece7     +LDI R30 , LOW ( 2 * _0x0 + ( 85 ) )
00030d e0f0     +LDI R31 , HIGH ( 2 * _0x0 + ( 85 ) )
                 	__POINTW1FN _0x0,85
00030e 940e 128b 	CALL SUBOPT_0x5
                 ; 0000 010F                         var_in_eeprom = MAXSpeed;
000310 e0a3      	LDI  R26,LOW(_MAXSpeed)
000311 e0b0      	LDI  R27,HIGH(_MAXSpeed)
000312 c00a      	RJMP _0x249
                 ; 0000 0110                         break;
                 ; 0000 0111 
                 ; 0000 0112                         case 2: // MIN
                 _0x3A:
000313 30e2      	CPI  R30,LOW(0x2)
000314 e0a0      	LDI  R26,HIGH(0x2)
000315 07fa      	CPC  R31,R26
000316 f449      	BRNE _0x39
                 ; 0000 0113                         lcd_putsf("Set MIN Speed : ");
                +
000317 ede8     +LDI R30 , LOW ( 2 * _0x0 + ( 102 ) )
000318 e0f0     +LDI R31 , HIGH ( 2 * _0x0 + ( 102 ) )
                 	__POINTW1FN _0x0,102
000319 940e 128b 	CALL SUBOPT_0x5
                 ; 0000 0114                         var_in_eeprom = MINSpeed;
00031b e0a4      	LDI  R26,LOW(_MINSpeed)
00031c e0b0      	LDI  R27,HIGH(_MINSpeed)
                 _0x249:
00031d 940e 158a 	CALL __EEPROMRDB
00031f 2f1e      	MOV  R17,R30
                 ; 0000 0115                         break;
                 ; 0000 0116                 }
                 _0x39:
                 ; 0000 0117                 break;
000320 c02d      	RJMP _0x2E
                 ; 0000 0118 
                 ; 0000 0119                 case 3: // Warna Garis
                 _0x36:
000321 30e3      	CPI  R30,LOW(0x3)
000322 e0a0      	LDI  R26,HIGH(0x3)
000323 07fa      	CPC  R31,R26
000324 f4d9      	BRNE _0x3C
                 ; 0000 011A                 switch (NoSubMenu)
000325 81ec      	LDD  R30,Y+4
000326 940e 128f 	CALL SUBOPT_0x6
                 ; 0000 011B                 {
                 ; 0000 011C                         case 1: // Warna
000328 f441      	BRNE _0x40
                 ; 0000 011D                         limitPilih = 1;
000329 e031      	LDI  R19,LOW(1)
                 ; 0000 011E                         lcd_putsf("Warna Garis   : ");
                +
00032a eee9     +LDI R30 , LOW ( 2 * _0x0 + ( 119 ) )
00032b e0f0     +LDI R31 , HIGH ( 2 * _0x0 + ( 119 ) )
                 	__POINTW1FN _0x0,119
00032c 940e 128b 	CALL SUBOPT_0x5
                 ; 0000 011F                         var_in_eeprom = WarnaGaris;
00032e e0a5      	LDI  R26,LOW(_WarnaGaris)
00032f e0b0      	LDI  R27,HIGH(_WarnaGaris)
000330 c00b      	RJMP _0x24A
                 ; 0000 0120                         break;
                 ; 0000 0121 
                 ; 0000 0122                         case 2: // SensL
                 _0x40:
000331 30e2      	CPI  R30,LOW(0x2)
000332 e0a0      	LDI  R26,HIGH(0x2)
000333 07fa      	CPC  R31,R26
000334 f451      	BRNE _0x3F
                 ; 0000 0123                         limitPilih = 3;
000335 e033      	LDI  R19,LOW(3)
                 ; 0000 0124                         lcd_putsf("SensLine :      ");
                +
000336 efea     +LDI R30 , LOW ( 2 * _0x0 + ( 136 ) )
000337 e0f0     +LDI R31 , HIGH ( 2 * _0x0 + ( 136 ) )
                 	__POINTW1FN _0x0,136
000338 940e 128b 	CALL SUBOPT_0x5
                 ; 0000 0125                         var_in_eeprom = SensLine;
00033a e0a6      	LDI  R26,LOW(_SensLine)
00033b e0b0      	LDI  R27,HIGH(_SensLine)
                 _0x24A:
00033c 940e 158a 	CALL __EEPROMRDB
00033e 2f1e      	MOV  R17,R30
                 ; 0000 0126                         break;
                 ; 0000 0127                 }
                 _0x3F:
                 ; 0000 0128                 break;
00033f c00e      	RJMP _0x2E
                 ; 0000 0129 
                 ; 0000 012A                 case 4: // Skenario
                 _0x3C:
000340 30e4      	CPI  R30,LOW(0x4)
000341 e0a0      	LDI  R26,HIGH(0x4)
000342 07fa      	CPC  R31,R26
000343 f451      	BRNE _0x2E
                 ; 0000 012B                 lcd_putsf("Skenario :      ");
                +
000344 e0eb     +LDI R30 , LOW ( 2 * _0x0 + ( 153 ) )
000345 e0f1     +LDI R31 , HIGH ( 2 * _0x0 + ( 153 ) )
                 	__POINTW1FN _0x0,153
000346 940e 128b 	CALL SUBOPT_0x5
                 ; 0000 012C                 var_in_eeprom = Skenario;
000348 e0a7      	LDI  R26,LOW(_Skenario)
000349 e0b0      	LDI  R27,HIGH(_Skenario)
00034a 940e 158a 	CALL __EEPROMRDB
00034c 2f1e      	MOV  R17,R30
                 ; 0000 012D                 limitPilih = 8;
00034d e038      	LDI  R19,LOW(8)
                 ; 0000 012E                 break;
                 ; 0000 012F         }
                 _0x2E:
                 ; 0000 0130 
                 ; 0000 0131         while (sw_cancel)
                 _0x43:
00034e 9b83      	SBIS 0x10,3
00034f c037      	RJMP _0x45
                 ; 0000 0132         {
                 ; 0000 0133                 delay_ms(150);
000350 940e 129d 	CALL SUBOPT_0x9
                 ; 0000 0134                 lcd_gotoxy(0, 1);
000352 940e 12a3 	CALL SUBOPT_0xA
                 ; 0000 0135                 tampil(var_in_eeprom);
000354 931a      	ST   -Y,R17
000355 deff      	RCALL _tampil
                 ; 0000 0136 
                 ; 0000 0137                 if (!sw_ok)
000356 9985      	SBIC 0x10,5
000357 c009      	RJMP _0x46
                 ; 0000 0138                 {
                 ; 0000 0139                         lcd_clear();
000358 940e 11d8 	CALL _lcd_clear
                 ; 0000 013A                         tulisKeEEPROM( NoMenu, NoSubMenu, var_in_eeprom );
00035a 81ed      	LDD  R30,Y+5
00035b 93ea      	ST   -Y,R30
00035c 81ed      	LDD  R30,Y+5
00035d 93ea      	ST   -Y,R30
00035e 931a      	ST   -Y,R17
00035f df14      	RCALL _tulisKeEEPROM
                 ; 0000 013B                         goto exitSetByte;
000360 c026      	RJMP _0x47
                 ; 0000 013C                 }
                 ; 0000 013D 
                 ; 0000 013E                 if (!sw_down)
                 _0x46:
000361 9986      	SBIC 0x10,6
000362 c012      	RJMP _0x48
                 ; 0000 013F                 {
                 ; 0000 0140                         if ( plus5 )
000363 3000      	CPI  R16,0
000364 f049      	BREQ _0x49
                 ; 0000 0141                                 if ( var_in_eeprom == 0 )
000365 3010      	CPI  R17,0
000366 f411      	BRNE _0x4A
                 ; 0000 0142                                         var_in_eeprom = 255;
000367 ef1f      	LDI  R17,LOW(255)
                 ; 0000 0143                                 else
000368 c004      	RJMP _0x4B
                 _0x4A:
                 ; 0000 0144                                         var_in_eeprom -= 5;
000369 2fe1      	MOV  R30,R17
00036a e0f0      	LDI  R31,0
00036b 9735      	SBIW R30,5
00036c 2f1e      	MOV  R17,R30
                 ; 0000 0145                         else
                 _0x4B:
00036d c007      	RJMP _0x4C
                 _0x49:
                 ; 0000 0146                                 if ( !limitPilih )
00036e 3030      	CPI  R19,0
00036f f021      	BREQ _0x24B
                 ; 0000 0147                                         var_in_eeprom--;
                 ; 0000 0148                                 else
                 ; 0000 0149                                 {
                 ; 0000 014A                                         if ( var_in_eeprom == 0 )
000370 3010      	CPI  R17,0
000371 f411      	BRNE _0x4F
                 ; 0000 014B                                                 var_in_eeprom = limitPilih;
000372 2f13      	MOV  R17,R19
                 ; 0000 014C                                         else
000373 c001      	RJMP _0x50
                 _0x4F:
                 ; 0000 014D                                                 var_in_eeprom--;
                 _0x24B:
000374 5011      	SUBI R17,1
                 ; 0000 014E                                 }
                 _0x50:
                 _0x4C:
                 ; 0000 014F                 }
                 ; 0000 0150 
                 ; 0000 0151                 if (!sw_up)
                 _0x48:
000375 9984      	SBIC 0x10,4
000376 c00f      	RJMP _0x51
                 ; 0000 0152                 {
                 ; 0000 0153                         if ( plus5 )
000377 3000      	CPI  R16,0
000378 f031      	BREQ _0x52
                 ; 0000 0154                                 if ( var_in_eeprom == 255 )
000379 3f1f      	CPI  R17,255
00037a f411      	BRNE _0x53
                 ; 0000 0155                                         var_in_eeprom = 0;
00037b e010      	LDI  R17,LOW(0)
                 ; 0000 0156                                 else
00037c c001      	RJMP _0x54
                 _0x53:
                 ; 0000 0157                                         var_in_eeprom += 5;
00037d 5f1b      	SUBI R17,-LOW(5)
                 ; 0000 0158                         else
                 _0x54:
00037e c007      	RJMP _0x55
                 _0x52:
                 ; 0000 0159                                 if ( !limitPilih )
00037f 3030      	CPI  R19,0
000380 f021      	BREQ _0x24C
                 ; 0000 015A                                         var_in_eeprom++;
                 ; 0000 015B                                 else
                 ; 0000 015C                                 {
                 ; 0000 015D                                         if ( var_in_eeprom == limitPilih )
000381 1731      	CP   R19,R17
000382 f411      	BRNE _0x58
                 ; 0000 015E                                                 var_in_eeprom = 0;
000383 e010      	LDI  R17,LOW(0)
                 ; 0000 015F                                         else
000384 c001      	RJMP _0x59
                 _0x58:
                 ; 0000 0160                                                 var_in_eeprom++;
                 _0x24C:
000385 5f1f      	SUBI R17,-1
                 ; 0000 0161                                 }
                 _0x59:
                 _0x55:
                 ; 0000 0162                 }
                 ; 0000 0163         }
                 _0x51:
000386 cfc7      	RJMP _0x43
                 _0x45:
                 ; 0000 0164 
                 ; 0000 0165         exitSetByte:
                 _0x47:
                 ; 0000 0166         delay_ms(100);
000387 940e 12a9 	CALL SUBOPT_0xB
                 ; 0000 0167         lcd_clear();
                 ; 0000 0168 }
000389 940e 15b4 	CALL __LOADLOCR4
00038b 9626      	ADIW R28,6
00038c 9508      	RET
                 ;
                 ;void showMenu(void)
                 ; 0000 016B {
                 _showMenu:
                 ; 0000 016C         lcd_clear();
00038d 940e 11d8 	CALL _lcd_clear
                 ; 0000 016D     menu01:
                 _0x5A:
                 ; 0000 016E         delay_ms(125);   // bouncing sw
00038f 940e 12b1 	CALL SUBOPT_0xC
                 ; 0000 016F         lcd_gotoxy(0,0);
000391 940e 1286 	CALL SUBOPT_0x4
                 ; 0000 0170                 // 0123456789abcdef
                 ; 0000 0171         lcd_putsf("  Set PID       ");
                +
000393 e1ec     +LDI R30 , LOW ( 2 * _0x0 + ( 170 ) )
000394 e0f1     +LDI R31 , HIGH ( 2 * _0x0 + ( 170 ) )
                 	__POINTW1FN _0x0,170
000395 940e 128b 	CALL SUBOPT_0x5
                 ; 0000 0172         lcd_gotoxy(0,1);
000397 940e 12a3 	CALL SUBOPT_0xA
                 ; 0000 0173         lcd_putsf("  Set Speed     ");
                +
000399 e2ed     +LDI R30 , LOW ( 2 * _0x0 + ( 187 ) )
00039a e0f1     +LDI R31 , HIGH ( 2 * _0x0 + ( 187 ) )
                 	__POINTW1FN _0x0,187
00039b 940e 128b 	CALL SUBOPT_0x5
                 ; 0000 0174 
                 ; 0000 0175         // kursor awal
                 ; 0000 0176         lcd_gotoxy(0,0);
00039d 940e 1286 	CALL SUBOPT_0x4
                 ; 0000 0177         lcd_putchar(0);
00039f 940e 12b7 	CALL SUBOPT_0xD
                 ; 0000 0178 
                 ; 0000 0179         if (!sw_ok)
0003a1 9985      	SBIC 0x10,5
0003a2 c005      	RJMP _0x5B
                 ; 0000 017A         {
                 ; 0000 017B                 lcd_clear();
0003a3 940e 11d8 	CALL _lcd_clear
                 ; 0000 017C                 kursorPID = 1;
0003a5 e0e1      	LDI  R30,LOW(1)
0003a6 2e4e      	MOV  R4,R30
                 ; 0000 017D                 goto setPID;
0003a7 c0c0      	RJMP _0x5C
                 ; 0000 017E         }
                 ; 0000 017F         if (!sw_down)
                 _0x5B:
0003a8 9b86      	SBIS 0x10,6
                 ; 0000 0180         {
                 ; 0000 0181                 goto menu02;
0003a9 c00b      	RJMP _0x5E
                 ; 0000 0182         }
                 ; 0000 0183         if (!sw_up)
0003aa 9984      	SBIC 0x10,4
0003ab c003      	RJMP _0x5F
                 ; 0000 0184         {
                 ; 0000 0185                 lcd_clear();
0003ac 940e 11d8 	CALL _lcd_clear
                 ; 0000 0186                 goto menu06;
0003ae c09a      	RJMP _0x60
                 ; 0000 0187         }
                 ; 0000 0188         if (!sw_cancel)
                 _0x5F:
0003af 9983      	SBIC 0x10,3
0003b0 c003      	RJMP _0x61
                 ; 0000 0189         {
                 ; 0000 018A                 delay_ms(125);
0003b1 940e 12b1 	CALL SUBOPT_0xC
                 ; 0000 018B                 backlight = 0;
0003b3 98c3      	CBI  0x18,3
                 ; 0000 018C         }
                 ; 0000 018D 
                 ; 0000 018E         goto menu01;
                 _0x61:
0003b4 cfda      	RJMP _0x5A
                 ; 0000 018F     menu02:
                 _0x5E:
                 ; 0000 0190         delay_ms(125);
0003b5 940e 12b1 	CALL SUBOPT_0xC
                 ; 0000 0191         lcd_gotoxy(0,0);
0003b7 940e 1286 	CALL SUBOPT_0x4
                 ; 0000 0192                  // 0123456789abcdef
                 ; 0000 0193         lcd_putsf("  Set PID       ");
                +
0003b9 e1ec     +LDI R30 , LOW ( 2 * _0x0 + ( 170 ) )
0003ba e0f1     +LDI R31 , HIGH ( 2 * _0x0 + ( 170 ) )
                 	__POINTW1FN _0x0,170
0003bb 940e 128b 	CALL SUBOPT_0x5
                 ; 0000 0194         lcd_gotoxy(0,1);
0003bd 940e 12a3 	CALL SUBOPT_0xA
                 ; 0000 0195         lcd_putsf("  Set Speed     ");
                +
0003bf e2ed     +LDI R30 , LOW ( 2 * _0x0 + ( 187 ) )
0003c0 e0f1     +LDI R31 , HIGH ( 2 * _0x0 + ( 187 ) )
                 	__POINTW1FN _0x0,187
0003c1 940e 128b 	CALL SUBOPT_0x5
                 ; 0000 0196 
                 ; 0000 0197         lcd_gotoxy(0,1);
0003c3 940e 12a3 	CALL SUBOPT_0xA
                 ; 0000 0198         lcd_putchar(0);
0003c5 940e 12b7 	CALL SUBOPT_0xD
                 ; 0000 0199 
                 ; 0000 019A         if (!sw_ok)
0003c7 9985      	SBIC 0x10,5
0003c8 c005      	RJMP _0x64
                 ; 0000 019B         {
                 ; 0000 019C                 lcd_clear();
0003c9 940e 11d8 	CALL _lcd_clear
                 ; 0000 019D                 kursorSpeed = 1;
0003cb e0e1      	LDI  R30,LOW(1)
0003cc 2e7e      	MOV  R7,R30
                 ; 0000 019E                 goto setSpeed;
0003cd c0e9      	RJMP _0x65
                 ; 0000 019F         }
                 ; 0000 01A0         if (!sw_up)
                 _0x64:
0003ce 9b84      	SBIS 0x10,4
                 ; 0000 01A1         {
                 ; 0000 01A2                 goto menu01;
0003cf cfbf      	RJMP _0x5A
                 ; 0000 01A3         }
                 ; 0000 01A4         if (!sw_down)
0003d0 9986      	SBIC 0x10,6
0003d1 c003      	RJMP _0x67
                 ; 0000 01A5         {
                 ; 0000 01A6                 lcd_clear();
0003d2 940e 11d8 	CALL _lcd_clear
                 ; 0000 01A7                 goto menu03;
0003d4 c006      	RJMP _0x68
                 ; 0000 01A8         }
                 ; 0000 01A9         if (!sw_cancel)
                 _0x67:
0003d5 9983      	SBIC 0x10,3
0003d6 c003      	RJMP _0x69
                 ; 0000 01AA         {
                 ; 0000 01AB                 delay_ms(125);
0003d7 940e 12b1 	CALL SUBOPT_0xC
                 ; 0000 01AC                 backlight = 0;
0003d9 98c3      	CBI  0x18,3
                 ; 0000 01AD         }
                 ; 0000 01AE         goto menu02;
                 _0x69:
0003da cfda      	RJMP _0x5E
                 ; 0000 01AF     menu03:
                 _0x68:
                 ; 0000 01B0         delay_ms(125);
0003db 940e 12b1 	CALL SUBOPT_0xC
                 ; 0000 01B1         lcd_gotoxy(0,0);
0003dd 940e 1286 	CALL SUBOPT_0x4
                 ; 0000 01B2                 // 0123456789abcdef
                 ; 0000 01B3         lcd_putsf("  Set Garis     ");
                +
0003df e3ee     +LDI R30 , LOW ( 2 * _0x0 + ( 204 ) )
0003e0 e0f1     +LDI R31 , HIGH ( 2 * _0x0 + ( 204 ) )
                 	__POINTW1FN _0x0,204
0003e1 940e 128b 	CALL SUBOPT_0x5
                 ; 0000 01B4         lcd_gotoxy(0,1);
0003e3 940e 12a3 	CALL SUBOPT_0xA
                 ; 0000 01B5         lcd_putsf("  Not Used !    ");
                +
0003e5 e4ef     +LDI R30 , LOW ( 2 * _0x0 + ( 221 ) )
0003e6 e0f1     +LDI R31 , HIGH ( 2 * _0x0 + ( 221 ) )
                 	__POINTW1FN _0x0,221
0003e7 940e 128b 	CALL SUBOPT_0x5
                 ; 0000 01B6 
                 ; 0000 01B7         lcd_gotoxy(0,0);
0003e9 940e 1286 	CALL SUBOPT_0x4
                 ; 0000 01B8         lcd_putchar(0);
0003eb 940e 12b7 	CALL SUBOPT_0xD
                 ; 0000 01B9 
                 ; 0000 01BA         if (!sw_ok)
0003ed 9985      	SBIC 0x10,5
0003ee c005      	RJMP _0x6C
                 ; 0000 01BB         {
                 ; 0000 01BC                 lcd_clear();
0003ef 940e 11d8 	CALL _lcd_clear
                 ; 0000 01BD                 kursorGaris = 1;
0003f1 e0e1      	LDI  R30,LOW(1)
0003f2 2e6e      	MOV  R6,R30
                 ; 0000 01BE                 goto setGaris;
0003f3 c110      	RJMP _0x6D
                 ; 0000 01BF         }
                 ; 0000 01C0         if (!sw_up)
                 _0x6C:
0003f4 9984      	SBIC 0x10,4
0003f5 c003      	RJMP _0x6E
                 ; 0000 01C1         {
                 ; 0000 01C2                 lcd_clear();
0003f6 940e 11d8 	CALL _lcd_clear
                 ; 0000 01C3                 goto menu02;
0003f8 cfbc      	RJMP _0x5E
                 ; 0000 01C4         }
                 ; 0000 01C5         if (!sw_down)
                 _0x6E:
0003f9 9b86      	SBIS 0x10,6
                 ; 0000 01C6         {
                 ; 0000 01C7                 goto menu04;
0003fa c006      	RJMP _0x70
                 ; 0000 01C8         }
                 ; 0000 01C9         if (!sw_cancel)
0003fb 9983      	SBIC 0x10,3
0003fc c003      	RJMP _0x71
                 ; 0000 01CA         {
                 ; 0000 01CB                 delay_ms(125);
0003fd 940e 12b1 	CALL SUBOPT_0xC
                 ; 0000 01CC                 backlight = 0;
0003ff 98c3      	CBI  0x18,3
                 ; 0000 01CD         }
                 ; 0000 01CE         goto menu03;
                 _0x71:
000400 cfda      	RJMP _0x68
                 ; 0000 01CF     menu04:
                 _0x70:
                 ; 0000 01D0         delay_ms(125);
000401 940e 12b1 	CALL SUBOPT_0xC
                 ; 0000 01D1         lcd_gotoxy(0,0);
000403 940e 1286 	CALL SUBOPT_0x4
                 ; 0000 01D2                 // 0123456789abcdef
                 ; 0000 01D3         lcd_putsf("  Set Garis     ");
                +
000405 e3ee     +LDI R30 , LOW ( 2 * _0x0 + ( 204 ) )
000406 e0f1     +LDI R31 , HIGH ( 2 * _0x0 + ( 204 ) )
                 	__POINTW1FN _0x0,204
000407 940e 128b 	CALL SUBOPT_0x5
                 ; 0000 01D4         lcd_gotoxy(0,1);
000409 940e 12a3 	CALL SUBOPT_0xA
                 ; 0000 01D5         lcd_putsf("  Not Used !    ");
                +
00040b e4ef     +LDI R30 , LOW ( 2 * _0x0 + ( 221 ) )
00040c e0f1     +LDI R31 , HIGH ( 2 * _0x0 + ( 221 ) )
                 	__POINTW1FN _0x0,221
00040d 940e 128b 	CALL SUBOPT_0x5
                 ; 0000 01D6 
                 ; 0000 01D7         lcd_gotoxy(0,1);
00040f 940e 12a3 	CALL SUBOPT_0xA
                 ; 0000 01D8         lcd_putchar(0);
000411 940e 12b7 	CALL SUBOPT_0xD
                 ; 0000 01D9 
                 ; 0000 01DA         if (!sw_ok)
000413 9985      	SBIC 0x10,5
000414 c003      	RJMP _0x74
                 ; 0000 01DB         {
                 ; 0000 01DC                 lcd_clear();
000415 940e 11d8 	CALL _lcd_clear
                 ; 0000 01DD                 goto setSkenario;
000417 c140      	RJMP _0x75
                 ; 0000 01DE         }
                 ; 0000 01DF         if (!sw_up)
                 _0x74:
000418 9b84      	SBIS 0x10,4
                 ; 0000 01E0         {
                 ; 0000 01E1                 goto menu03;
000419 cfc1      	RJMP _0x68
                 ; 0000 01E2         }
                 ; 0000 01E3         if (!sw_down)
00041a 9986      	SBIC 0x10,6
00041b c003      	RJMP _0x77
                 ; 0000 01E4         {
                 ; 0000 01E5                 lcd_clear();
00041c 940e 11d8 	CALL _lcd_clear
                 ; 0000 01E6                 goto menu05;
00041e c006      	RJMP _0x78
                 ; 0000 01E7         }
                 ; 0000 01E8         if (!sw_cancel)
                 _0x77:
00041f 9983      	SBIC 0x10,3
000420 c003      	RJMP _0x79
                 ; 0000 01E9         {
                 ; 0000 01EA                 delay_ms(125);
000421 940e 12b1 	CALL SUBOPT_0xC
                 ; 0000 01EB                 backlight = 0;
000423 98c3      	CBI  0x18,3
                 ; 0000 01EC         }
                 ; 0000 01ED         goto menu04;
                 _0x79:
000424 cfdc      	RJMP _0x70
                 ; 0000 01EE     menu05:            // Bikin sendiri lhoo ^^d
                 _0x78:
                 ; 0000 01EF         delay_ms(125);
000425 940e 12b1 	CALL SUBOPT_0xC
                 ; 0000 01F0         lcd_gotoxy(0,0);
000427 940e 1286 	CALL SUBOPT_0x4
                 ; 0000 01F1         lcd_putsf("  Set Mode         ");
                +
000429 e6e0     +LDI R30 , LOW ( 2 * _0x0 + ( 238 ) )
00042a e0f1     +LDI R31 , HIGH ( 2 * _0x0 + ( 238 ) )
                 	__POINTW1FN _0x0,238
00042b 940e 128b 	CALL SUBOPT_0x5
                 ; 0000 01F2         lcd_gotoxy(0,1);
00042d 940e 12a3 	CALL SUBOPT_0xA
                 ; 0000 01F3         lcd_putsf("  Start!!      ");
                +
00042f e7e4     +LDI R30 , LOW ( 2 * _0x0 + ( 258 ) )
000430 e0f1     +LDI R31 , HIGH ( 2 * _0x0 + ( 258 ) )
                 	__POINTW1FN _0x0,258
000431 940e 128b 	CALL SUBOPT_0x5
                 ; 0000 01F4 
                 ; 0000 01F5         lcd_gotoxy(0,0);
000433 940e 1286 	CALL SUBOPT_0x4
                 ; 0000 01F6         lcd_putchar(0);
000435 940e 12b7 	CALL SUBOPT_0xD
                 ; 0000 01F7 
                 ; 0000 01F8         if  (!sw_ok)
000437 9985      	SBIC 0x10,5
000438 c003      	RJMP _0x7C
                 ; 0000 01F9         {
                 ; 0000 01FA             lcd_clear();
000439 940e 11d8 	CALL _lcd_clear
                 ; 0000 01FB             goto mode;
00043b c13a      	RJMP _0x7D
                 ; 0000 01FC         }
                 ; 0000 01FD 
                 ; 0000 01FE         if  (!sw_up)
                 _0x7C:
00043c 9984      	SBIC 0x10,4
00043d c003      	RJMP _0x7E
                 ; 0000 01FF         {
                 ; 0000 0200             lcd_clear();
00043e 940e 11d8 	CALL _lcd_clear
                 ; 0000 0201             goto menu04;
000440 cfc0      	RJMP _0x70
                 ; 0000 0202         }
                 ; 0000 0203 
                 ; 0000 0204         if  (!sw_down)
                 _0x7E:
000441 9b86      	SBIS 0x10,6
                 ; 0000 0205         {
                 ; 0000 0206             goto menu06;
000442 c006      	RJMP _0x60
                 ; 0000 0207         }
                 ; 0000 0208         if (!sw_cancel)
000443 9983      	SBIC 0x10,3
000444 c003      	RJMP _0x80
                 ; 0000 0209         {
                 ; 0000 020A                 delay_ms(125);
000445 940e 12b1 	CALL SUBOPT_0xC
                 ; 0000 020B                 backlight = 0;
000447 98c3      	CBI  0x18,3
                 ; 0000 020C         }
                 ; 0000 020D 
                 ; 0000 020E         goto menu05;
                 _0x80:
000448 cfdc      	RJMP _0x78
                 ; 0000 020F     menu06:
                 _0x60:
                 ; 0000 0210         delay_ms(125);
000449 940e 12b1 	CALL SUBOPT_0xC
                 ; 0000 0211         lcd_gotoxy(0,0);
00044b 940e 1286 	CALL SUBOPT_0x4
                 ; 0000 0212         lcd_putsf("  Set Mode         ");
                +
00044d e6e0     +LDI R30 , LOW ( 2 * _0x0 + ( 238 ) )
00044e e0f1     +LDI R31 , HIGH ( 2 * _0x0 + ( 238 ) )
                 	__POINTW1FN _0x0,238
00044f 940e 128b 	CALL SUBOPT_0x5
                 ; 0000 0213         lcd_gotoxy(0,1);
000451 940e 12a3 	CALL SUBOPT_0xA
                 ; 0000 0214         lcd_putsf("  Start!!      ");
                +
000453 e7e4     +LDI R30 , LOW ( 2 * _0x0 + ( 258 ) )
000454 e0f1     +LDI R31 , HIGH ( 2 * _0x0 + ( 258 ) )
                 	__POINTW1FN _0x0,258
000455 940e 128b 	CALL SUBOPT_0x5
                 ; 0000 0215 
                 ; 0000 0216         lcd_gotoxy(0,1);
000457 940e 12a3 	CALL SUBOPT_0xA
                 ; 0000 0217         lcd_putchar(0);
000459 940e 12b7 	CALL SUBOPT_0xD
                 ; 0000 0218 
                 ; 0000 0219         if (!sw_ok)
00045b 9985      	SBIC 0x10,5
00045c c003      	RJMP _0x83
                 ; 0000 021A         {
                 ; 0000 021B                 lcd_clear();
00045d 940e 11d8 	CALL _lcd_clear
                 ; 0000 021C                 goto startRobot;
00045f c1fa      	RJMP _0x84
                 ; 0000 021D         }
                 ; 0000 021E 
                 ; 0000 021F         if (!sw_up)
                 _0x83:
000460 9b84      	SBIS 0x10,4
                 ; 0000 0220         {
                 ; 0000 0221                 goto menu05;
000461 cfc3      	RJMP _0x78
                 ; 0000 0222         }
                 ; 0000 0223 
                 ; 0000 0224         if (!sw_down)
000462 9986      	SBIC 0x10,6
000463 c003      	RJMP _0x86
                 ; 0000 0225         {
                 ; 0000 0226                 lcd_clear();
000464 940e 11d8 	CALL _lcd_clear
                 ; 0000 0227                 goto menu01;
000466 cf28      	RJMP _0x5A
                 ; 0000 0228         }
                 ; 0000 0229 
                 ; 0000 022A         goto menu06;
                 _0x86:
000467 cfe1      	RJMP _0x60
                 ; 0000 022B 
                 ; 0000 022C 
                 ; 0000 022D     setPID:
                 _0x5C:
                 ; 0000 022E         delay_ms(150);
000468 940e 129d 	CALL SUBOPT_0x9
                 ; 0000 022F         lcd_gotoxy(0,0);
00046a 940e 1286 	CALL SUBOPT_0x4
                 ; 0000 0230                 // 0123456789ABCDEF
                 ; 0000 0231         lcd_putsf("  Kp   Ki   Kd  ");
                +
00046c e8e4     +LDI R30 , LOW ( 2 * _0x0 + ( 274 ) )
00046d e0f1     +LDI R31 , HIGH ( 2 * _0x0 + ( 274 ) )
                 	__POINTW1FN _0x0,274
00046e 940e 128b 	CALL SUBOPT_0x5
                 ; 0000 0232         // lcd_putsf(" 250  200  300  ");
                 ; 0000 0233         lcd_putchar(' ');
000470 940e 12bb 	CALL SUBOPT_0xE
                 ; 0000 0234         tampil(Kp); lcd_putchar(' '); lcd_putchar(' ');
000472 e0a0      	LDI  R26,LOW(_Kp)
000473 e0b0      	LDI  R27,HIGH(_Kp)
000474 940e 12bf 	CALL SUBOPT_0xF
000476 940e 12bb 	CALL SUBOPT_0xE
                 ; 0000 0235         tampil(Ki); lcd_putchar(' '); lcd_putchar(' ');
000478 e0a1      	LDI  R26,LOW(_Ki)
000479 e0b0      	LDI  R27,HIGH(_Ki)
00047a 940e 12bf 	CALL SUBOPT_0xF
00047c 940e 12bb 	CALL SUBOPT_0xE
                 ; 0000 0236         tampil(Kd); lcd_putchar(' '); lcd_putchar(' ');
00047e e0a2      	LDI  R26,LOW(_Kd)
00047f e0b0      	LDI  R27,HIGH(_Kd)
000480 940e 12bf 	CALL SUBOPT_0xF
000482 940e 12bb 	CALL SUBOPT_0xE
                 ; 0000 0237 
                 ; 0000 0238         switch (kursorPID)
000484 2de4      	MOV  R30,R4
000485 940e 128f 	CALL SUBOPT_0x6
                 ; 0000 0239         {
                 ; 0000 023A           case 1:
000487 f411      	BRNE _0x8A
                 ; 0000 023B                 lcd_gotoxy(1,0); // kursor Kp
000488 e0e1      	LDI  R30,LOW(1)
000489 c00b      	RJMP _0x24D
                 ; 0000 023C                 lcd_putchar(0);
                 ; 0000 023D                 break;
                 ; 0000 023E           case 2:
                 _0x8A:
00048a 30e2      	CPI  R30,LOW(0x2)
00048b e0a0      	LDI  R26,HIGH(0x2)
00048c 07fa      	CPC  R31,R26
00048d f411      	BRNE _0x8B
                 ; 0000 023F                 lcd_gotoxy(6,0); // kursor Ki
00048e e0e6      	LDI  R30,LOW(6)
00048f c005      	RJMP _0x24D
                 ; 0000 0240                 lcd_putchar(0);
                 ; 0000 0241                 break;
                 ; 0000 0242           case 3:
                 _0x8B:
000490 30e3      	CPI  R30,LOW(0x3)
000491 e0a0      	LDI  R26,HIGH(0x3)
000492 07fa      	CPC  R31,R26
000493 f421      	BRNE _0x89
                 ; 0000 0243                 lcd_gotoxy(11,0); // kursor Kd
000494 e0eb      	LDI  R30,LOW(11)
                 _0x24D:
000495 93ea      	ST   -Y,R30
000496 940e 12c5 	CALL SUBOPT_0x10
                 ; 0000 0244                 lcd_putchar(0);
                 ; 0000 0245                 break;
                 ; 0000 0246         }
                 _0x89:
                 ; 0000 0247 
                 ; 0000 0248         if (!sw_ok)
000498 9985      	SBIC 0x10,5
000499 c005      	RJMP _0x8D
                 ; 0000 0249         {
                 ; 0000 024A                 setByte( 1, kursorPID);
00049a e0e1      	LDI  R30,LOW(1)
00049b 93ea      	ST   -Y,R30
00049c 924a      	ST   -Y,R4
00049d 940e 12ca 	CALL SUBOPT_0x11
                 ; 0000 024B                 delay_ms(200);
                 ; 0000 024C         }
                 ; 0000 024D         if (!sw_up)
                 _0x8D:
00049f 9984      	SBIC 0x10,4
0004a0 c007      	RJMP _0x8E
                 ; 0000 024E         {
                 ; 0000 024F                 if (kursorPID == 3) {
0004a1 e0e3      	LDI  R30,LOW(3)
0004a2 15e4      	CP   R30,R4
0004a3 f419      	BRNE _0x8F
                 ; 0000 0250                         kursorPID = 1;
0004a4 e0e1      	LDI  R30,LOW(1)
0004a5 2e4e      	MOV  R4,R30
                 ; 0000 0251                 } else kursorPID++;
0004a6 c001      	RJMP _0x90
                 _0x8F:
0004a7 9443      	INC  R4
                 ; 0000 0252         }
                 _0x90:
                 ; 0000 0253         if (!sw_down)
                 _0x8E:
0004a8 9986      	SBIC 0x10,6
0004a9 c007      	RJMP _0x91
                 ; 0000 0254         {
                 ; 0000 0255                 if (kursorPID == 1) {
0004aa e0e1      	LDI  R30,LOW(1)
0004ab 15e4      	CP   R30,R4
0004ac f419      	BRNE _0x92
                 ; 0000 0256                         kursorPID = 3;
0004ad e0e3      	LDI  R30,LOW(3)
0004ae 2e4e      	MOV  R4,R30
                 ; 0000 0257                 } else kursorPID--;
0004af c001      	RJMP _0x93
                 _0x92:
0004b0 944a      	DEC  R4
                 ; 0000 0258         }
                 _0x93:
                 ; 0000 0259 
                 ; 0000 025A         if (!sw_cancel)
                 _0x91:
0004b1 9983      	SBIC 0x10,3
0004b2 c003      	RJMP _0x94
                 ; 0000 025B         {
                 ; 0000 025C                 lcd_clear();
0004b3 940e 11d8 	CALL _lcd_clear
                 ; 0000 025D                 goto menu01;
0004b5 ced9      	RJMP _0x5A
                 ; 0000 025E         }
                 ; 0000 025F 
                 ; 0000 0260         goto setPID;
                 _0x94:
0004b6 cfb1      	RJMP _0x5C
                 ; 0000 0261 
                 ; 0000 0262     setSpeed:
                 _0x65:
                 ; 0000 0263         delay_ms(150);
0004b7 940e 129d 	CALL SUBOPT_0x9
                 ; 0000 0264         lcd_gotoxy(0,0);
0004b9 940e 1286 	CALL SUBOPT_0x4
                 ; 0000 0265                 // 0123456789ABCDEF
                 ; 0000 0266         lcd_putsf("   MAX    MIN   ");
                +
0004bb e9e5     +LDI R30 , LOW ( 2 * _0x0 + ( 291 ) )
0004bc e0f1     +LDI R31 , HIGH ( 2 * _0x0 + ( 291 ) )
                 	__POINTW1FN _0x0,291
0004bd 940e 128b 	CALL SUBOPT_0x5
                 ; 0000 0267         lcd_putchar(' ');lcd_putchar(' ');lcd_putchar(' ');
0004bf 940e 12bb 	CALL SUBOPT_0xE
0004c1 940e 12bb 	CALL SUBOPT_0xE
0004c3 940e 12bb 	CALL SUBOPT_0xE
                 ; 0000 0268 
                 ; 0000 0269         //lcd_putsf("   250    200   ");
                 ; 0000 026A         tampil(MAXSpeed);
0004c5 e0a3      	LDI  R26,LOW(_MAXSpeed)
0004c6 e0b0      	LDI  R27,HIGH(_MAXSpeed)
0004c7 940e 12bf 	CALL SUBOPT_0xF
                 ; 0000 026B         lcd_putchar(' '); lcd_putchar(' ');lcd_putchar(' '); lcd_putchar(' ');
0004c9 940e 12bb 	CALL SUBOPT_0xE
0004cb 940e 12bb 	CALL SUBOPT_0xE
0004cd 940e 12bb 	CALL SUBOPT_0xE
                 ; 0000 026C         tampil(MINSpeed);
0004cf e0a4      	LDI  R26,LOW(_MINSpeed)
0004d0 e0b0      	LDI  R27,HIGH(_MINSpeed)
0004d1 940e 12bf 	CALL SUBOPT_0xF
                 ; 0000 026D         lcd_putchar(' ');lcd_putchar(' ');lcd_putchar(' ');
0004d3 940e 12bb 	CALL SUBOPT_0xE
0004d5 940e 12bb 	CALL SUBOPT_0xE
                 ; 0000 026E 
                 ; 0000 026F         switch (kursorSpeed)
0004d7 2de7      	MOV  R30,R7
0004d8 940e 128f 	CALL SUBOPT_0x6
                 ; 0000 0270         {
                 ; 0000 0271           case 1:
0004da f411      	BRNE _0x98
                 ; 0000 0272                 lcd_gotoxy(2,0); // kursor MAX
0004db e0e2      	LDI  R30,LOW(2)
0004dc c005      	RJMP _0x24E
                 ; 0000 0273                 lcd_putchar(0);
                 ; 0000 0274                 break;
                 ; 0000 0275           case 2:
                 _0x98:
0004dd 30e2      	CPI  R30,LOW(0x2)
0004de e0a0      	LDI  R26,HIGH(0x2)
0004df 07fa      	CPC  R31,R26
0004e0 f421      	BRNE _0x97
                 ; 0000 0276                 lcd_gotoxy(9,0); // kursor MIN
0004e1 e0e9      	LDI  R30,LOW(9)
                 _0x24E:
0004e2 93ea      	ST   -Y,R30
0004e3 940e 12c5 	CALL SUBOPT_0x10
                 ; 0000 0277                 lcd_putchar(0);
                 ; 0000 0278                 break;
                 ; 0000 0279         }
                 _0x97:
                 ; 0000 027A 
                 ; 0000 027B         if (!sw_ok)
0004e5 9985      	SBIC 0x10,5
0004e6 c005      	RJMP _0x9A
                 ; 0000 027C         {
                 ; 0000 027D                 setByte( 2, kursorSpeed);
0004e7 e0e2      	LDI  R30,LOW(2)
0004e8 93ea      	ST   -Y,R30
0004e9 927a      	ST   -Y,R7
0004ea 940e 12ca 	CALL SUBOPT_0x11
                 ; 0000 027E                 delay_ms(200);
                 ; 0000 027F         }
                 ; 0000 0280         if (!sw_up)
                 _0x9A:
0004ec 9984      	SBIC 0x10,4
0004ed c007      	RJMP _0x9B
                 ; 0000 0281         {
                 ; 0000 0282                 if (kursorSpeed == 2)
0004ee e0e2      	LDI  R30,LOW(2)
0004ef 15e7      	CP   R30,R7
0004f0 f419      	BRNE _0x9C
                 ; 0000 0283                 {
                 ; 0000 0284                         kursorSpeed = 1;
0004f1 e0e1      	LDI  R30,LOW(1)
0004f2 2e7e      	MOV  R7,R30
                 ; 0000 0285                 } else kursorSpeed++;
0004f3 c001      	RJMP _0x9D
                 _0x9C:
0004f4 9473      	INC  R7
                 ; 0000 0286         }
                 _0x9D:
                 ; 0000 0287         if (!sw_down)
                 _0x9B:
0004f5 9986      	SBIC 0x10,6
0004f6 c007      	RJMP _0x9E
                 ; 0000 0288         {
                 ; 0000 0289                 if (kursorSpeed == 1)
0004f7 e0e1      	LDI  R30,LOW(1)
0004f8 15e7      	CP   R30,R7
0004f9 f419      	BRNE _0x9F
                 ; 0000 028A                 {
                 ; 0000 028B                         kursorSpeed = 2;
0004fa e0e2      	LDI  R30,LOW(2)
0004fb 2e7e      	MOV  R7,R30
                 ; 0000 028C                 } else kursorSpeed--;
0004fc c001      	RJMP _0xA0
                 _0x9F:
0004fd 947a      	DEC  R7
                 ; 0000 028D         }
                 _0xA0:
                 ; 0000 028E 
                 ; 0000 028F         if (!sw_cancel)
                 _0x9E:
0004fe 9983      	SBIC 0x10,3
0004ff c003      	RJMP _0xA1
                 ; 0000 0290         {
                 ; 0000 0291                 lcd_clear();
000500 940e 11d8 	CALL _lcd_clear
                 ; 0000 0292                 goto menu02;
000502 ceb2      	RJMP _0x5E
                 ; 0000 0293         }
                 ; 0000 0294 
                 ; 0000 0295         goto setSpeed;
                 _0xA1:
000503 cfb3      	RJMP _0x65
                 ; 0000 0296 
                 ; 0000 0297      setGaris: // not yet
                 _0x6D:
                 ; 0000 0298         delay_ms(150);
000504 940e 129d 	CALL SUBOPT_0x9
                 ; 0000 0299         lcd_gotoxy(0,0);
000506 940e 1286 	CALL SUBOPT_0x4
                 ; 0000 029A                 // 0123456789ABCDEF
                 ; 0000 029B         if ( WarnaGaris == 1 )
000508 e0a5      	LDI  R26,LOW(_WarnaGaris)
000509 e0b0      	LDI  R27,HIGH(_WarnaGaris)
00050a 940e 158a 	CALL __EEPROMRDB
00050c 30e1      	CPI  R30,LOW(0x1)
00050d f419      	BRNE _0xA2
                 ; 0000 029C                 lcd_putsf("  WARNA : Putih ");
                +
00050e eae6     +LDI R30 , LOW ( 2 * _0x0 + ( 308 ) )
00050f e0f1     +LDI R31 , HIGH ( 2 * _0x0 + ( 308 ) )
                 	__POINTW1FN _0x0,308
000510 c002      	RJMP _0x24F
                 ; 0000 029D         else
                 _0xA2:
                 ; 0000 029E                 lcd_putsf("  WARNA : Hitam ");
                +
000511 ebe7     +LDI R30 , LOW ( 2 * _0x0 + ( 325 ) )
000512 e0f1     +LDI R31 , HIGH ( 2 * _0x0 + ( 325 ) )
                 	__POINTW1FN _0x0,325
                 _0x24F:
000513 93fa      	ST   -Y,R31
000514 93ea      	ST   -Y,R30
000515 940e 1212 	CALL _lcd_putsf
                 ; 0000 029F 
                 ; 0000 02A0         //lcd_putsf("  LEBAR: 1.5 cm ");
                 ; 0000 02A1         lcd_gotoxy(0,1);
000517 940e 12a3 	CALL SUBOPT_0xA
                 ; 0000 02A2         lcd_putsf("  SensL :        ");
                +
000519 ece8     +LDI R30 , LOW ( 2 * _0x0 + ( 342 ) )
00051a e0f1     +LDI R31 , HIGH ( 2 * _0x0 + ( 342 ) )
                 	__POINTW1FN _0x0,342
00051b 940e 128b 	CALL SUBOPT_0x5
                 ; 0000 02A3         lcd_gotoxy(10,1);
00051d e0ea      	LDI  R30,LOW(10)
00051e 940e 12cd 	CALL SUBOPT_0x12
                 ; 0000 02A4         tampil( SensLine );
000520 e0a6      	LDI  R26,LOW(_SensLine)
000521 e0b0      	LDI  R27,HIGH(_SensLine)
000522 940e 158a 	CALL __EEPROMRDB
000524 93ea      	ST   -Y,R30
000525 dd2f      	RCALL _tampil
                 ; 0000 02A5 
                 ; 0000 02A6         switch (kursorGaris)
000526 2de6      	MOV  R30,R6
000527 940e 128f 	CALL SUBOPT_0x6
                 ; 0000 02A7         {
                 ; 0000 02A8           case 1:
000529 f419      	BRNE _0xA7
                 ; 0000 02A9                 lcd_gotoxy(0,0); // kursor Warna
00052a e0e0      	LDI  R30,LOW(0)
00052b 93ea      	ST   -Y,R30
00052c c007      	RJMP _0x250
                 ; 0000 02AA                 lcd_putchar(0);
                 ; 0000 02AB                 break;
                 ; 0000 02AC           case 2:
                 _0xA7:
00052d 30e2      	CPI  R30,LOW(0x2)
00052e e0a0      	LDI  R26,HIGH(0x2)
00052f 07fa      	CPC  R31,R26
000530 f441      	BRNE _0xA6
                 ; 0000 02AD                 lcd_gotoxy(0,1); // kursor SensL
000531 e0e0      	LDI  R30,LOW(0)
000532 93ea      	ST   -Y,R30
000533 e0e1      	LDI  R30,LOW(1)
                 _0x250:
000534 93ea      	ST   -Y,R30
000535 940e 11c7 	CALL _lcd_gotoxy
                 ; 0000 02AE                 lcd_putchar(0);
000537 940e 12b7 	CALL SUBOPT_0xD
                 ; 0000 02AF                 break;
                 ; 0000 02B0         }
                 _0xA6:
                 ; 0000 02B1 
                 ; 0000 02B2         if (!sw_ok)
000539 9985      	SBIC 0x10,5
00053a c005      	RJMP _0xA9
                 ; 0000 02B3         {
                 ; 0000 02B4                 setByte( 3, kursorGaris);
00053b e0e3      	LDI  R30,LOW(3)
00053c 93ea      	ST   -Y,R30
00053d 926a      	ST   -Y,R6
00053e 940e 12ca 	CALL SUBOPT_0x11
                 ; 0000 02B5                 delay_ms(200);
                 ; 0000 02B6         }
                 ; 0000 02B7         if (!sw_up)
                 _0xA9:
000540 9984      	SBIC 0x10,4
000541 c007      	RJMP _0xAA
                 ; 0000 02B8         {
                 ; 0000 02B9                 if (kursorGaris == 2)
000542 e0e2      	LDI  R30,LOW(2)
000543 15e6      	CP   R30,R6
000544 f419      	BRNE _0xAB
                 ; 0000 02BA                 {
                 ; 0000 02BB                         kursorGaris = 1;
000545 e0e1      	LDI  R30,LOW(1)
000546 2e6e      	MOV  R6,R30
                 ; 0000 02BC                 } else kursorGaris++;
000547 c001      	RJMP _0xAC
                 _0xAB:
000548 9463      	INC  R6
                 ; 0000 02BD         }
                 _0xAC:
                 ; 0000 02BE         if (!sw_down)
                 _0xAA:
000549 9986      	SBIC 0x10,6
00054a c007      	RJMP _0xAD
                 ; 0000 02BF         {
                 ; 0000 02C0                 if (kursorGaris == 1)
00054b e0e1      	LDI  R30,LOW(1)
00054c 15e6      	CP   R30,R6
00054d f419      	BRNE _0xAE
                 ; 0000 02C1                 {
                 ; 0000 02C2                         kursorGaris = 2;
00054e e0e2      	LDI  R30,LOW(2)
00054f 2e6e      	MOV  R6,R30
                 ; 0000 02C3                 } else kursorGaris--;
000550 c001      	RJMP _0xAF
                 _0xAE:
000551 946a      	DEC  R6
                 ; 0000 02C4         }
                 _0xAF:
                 ; 0000 02C5 
                 ; 0000 02C6         if (!sw_cancel)
                 _0xAD:
000552 9983      	SBIC 0x10,3
000553 c003      	RJMP _0xB0
                 ; 0000 02C7         {
                 ; 0000 02C8                 lcd_clear();
000554 940e 11d8 	CALL _lcd_clear
                 ; 0000 02C9                 goto menu03;
000556 ce84      	RJMP _0x68
                 ; 0000 02CA         }
                 ; 0000 02CB 
                 ; 0000 02CC         goto setGaris;
                 _0xB0:
000557 cfac      	RJMP _0x6D
                 ; 0000 02CD 
                 ; 0000 02CE      setSkenario:
                 _0x75:
                 ; 0000 02CF         delay_ms(150);
000558 940e 129d 	CALL SUBOPT_0x9
                 ; 0000 02D0         lcd_gotoxy(0,0);
00055a 940e 1286 	CALL SUBOPT_0x4
                 ; 0000 02D1                 // 0123456789ABCDEF
                 ; 0000 02D2         lcd_putsf("Sken. yg  dpake:");
                +
00055c edea     +LDI R30 , LOW ( 2 * _0x0 + ( 360 ) )
00055d e0f1     +LDI R31 , HIGH ( 2 * _0x0 + ( 360 ) )
                 	__POINTW1FN _0x0,360
00055e 940e 128b 	CALL SUBOPT_0x5
                 ; 0000 02D3         lcd_gotoxy(0, 1);
000560 940e 12a3 	CALL SUBOPT_0xA
                 ; 0000 02D4         tampil( Skenario );
000562 e0a7      	LDI  R26,LOW(_Skenario)
000563 e0b0      	LDI  R27,HIGH(_Skenario)
000564 940e 158a 	CALL __EEPROMRDB
000566 93ea      	ST   -Y,R30
000567 dced      	RCALL _tampil
                 ; 0000 02D5 
                 ; 0000 02D6         if (!sw_ok)
000568 9985      	SBIC 0x10,5
000569 c006      	RJMP _0xB1
                 ; 0000 02D7         {
                 ; 0000 02D8                 setByte( 4, 0);
00056a e0e4      	LDI  R30,LOW(4)
00056b 93ea      	ST   -Y,R30
00056c e0e0      	LDI  R30,LOW(0)
00056d 93ea      	ST   -Y,R30
00056e 940e 12ca 	CALL SUBOPT_0x11
                 ; 0000 02D9                 delay_ms(200);
                 ; 0000 02DA         }
                 ; 0000 02DB 
                 ; 0000 02DC         if (!sw_cancel)
                 _0xB1:
000570 9983      	SBIC 0x10,3
000571 c003      	RJMP _0xB2
                 ; 0000 02DD         {
                 ; 0000 02DE                 lcd_clear();
000572 940e 11d8 	CALL _lcd_clear
                 ; 0000 02DF                 goto menu04;
000574 ce8c      	RJMP _0x70
                 ; 0000 02E0         }
                 ; 0000 02E1 
                 ; 0000 02E2         goto setSkenario;
                 _0xB2:
000575 cfe2      	RJMP _0x75
                 ; 0000 02E3 
                 ; 0000 02E4      mode:
                 _0x7D:
                 ; 0000 02E5         delay_ms(125);
000576 940e 12b1 	CALL SUBOPT_0xC
                 ; 0000 02E6         if  (!sw_up)
000578 9984      	SBIC 0x10,4
000579 c011      	RJMP _0xB3
                 ; 0000 02E7         {
                 ; 0000 02E8             if (Mode==6)
00057a 940e 12d2 	CALL SUBOPT_0x13
00057c 30e6      	CPI  R30,LOW(0x6)
00057d f431      	BRNE _0xB4
                 ; 0000 02E9             {
                 ; 0000 02EA                 Mode=1;
00057e e0a8      	LDI  R26,LOW(_Mode)
00057f e0b0      	LDI  R27,HIGH(_Mode)
000580 e0e1      	LDI  R30,LOW(1)
000581 940e 1596 	CALL __EEPROMWRB
                 ; 0000 02EB             }
                 ; 0000 02EC 
                 ; 0000 02ED             else Mode++;
000583 c006      	RJMP _0xB5
                 _0xB4:
000584 940e 12d2 	CALL SUBOPT_0x13
000586 5fef      	SUBI R30,-LOW(1)
000587 940e 1596 	CALL __EEPROMWRB
000589 50e1      	SUBI R30,LOW(1)
                 ; 0000 02EE 
                 ; 0000 02EF             goto nomorMode;
                 _0xB5:
00058a c012      	RJMP _0xB6
                 ; 0000 02F0         }
                 ; 0000 02F1 
                 ; 0000 02F2         if  (!sw_down)
                 _0xB3:
00058b 9986      	SBIC 0x10,6
00058c c010      	RJMP _0xB7
                 ; 0000 02F3         {
                 ; 0000 02F4             if  (Mode==1)
00058d 940e 12d2 	CALL SUBOPT_0x13
00058f 30e1      	CPI  R30,LOW(0x1)
000590 f431      	BRNE _0xB8
                 ; 0000 02F5             {
                 ; 0000 02F6                 Mode=6;
000591 e0a8      	LDI  R26,LOW(_Mode)
000592 e0b0      	LDI  R27,HIGH(_Mode)
000593 e0e6      	LDI  R30,LOW(6)
000594 940e 1596 	CALL __EEPROMWRB
                 ; 0000 02F7             }
                 ; 0000 02F8 
                 ; 0000 02F9             else Mode--;
000596 c006      	RJMP _0xB9
                 _0xB8:
000597 940e 12d2 	CALL SUBOPT_0x13
000599 50e1      	SUBI R30,LOW(1)
00059a 940e 1596 	CALL __EEPROMWRB
00059c 5fef      	SUBI R30,-LOW(1)
                 ; 0000 02FA 
                 ; 0000 02FB             goto nomorMode;
                 _0xB9:
                 ; 0000 02FC         }
                 ; 0000 02FD 
                 ; 0000 02FE         nomorMode:
                 _0xB7:
                 _0xB6:
                 ; 0000 02FF             if (Mode==1)
00059d 940e 12d2 	CALL SUBOPT_0x13
00059f 30e1      	CPI  R30,LOW(0x1)
0005a0 f451      	BRNE _0xBA
                 ; 0000 0300             {
                 ; 0000 0301                 lcd_clear();
0005a1 940e 129a 	CALL SUBOPT_0x8
                 ; 0000 0302                 lcd_gotoxy(0,0);
                 ; 0000 0303                 lcd_putsf(" Mode :         ");
0005a3 940e 12d7 	CALL SUBOPT_0x14
                 ; 0000 0304                 lcd_gotoxy(0,1);
0005a5 940e 12a3 	CALL SUBOPT_0xA
                 ; 0000 0305                 lcd_putsf(" 1.Lihat ADC");
                +
0005a7 efec     +LDI R30 , LOW ( 2 * _0x0 + ( 394 ) )
0005a8 e0f1     +LDI R31 , HIGH ( 2 * _0x0 + ( 394 ) )
                 	__POINTW1FN _0x0,394
0005a9 940e 128b 	CALL SUBOPT_0x5
                 ; 0000 0306             }
                 ; 0000 0307 
                 ; 0000 0308             if  (Mode==2)
                 _0xBA:
0005ab 940e 12d2 	CALL SUBOPT_0x13
0005ad 30e2      	CPI  R30,LOW(0x2)
0005ae f451      	BRNE _0xBB
                 ; 0000 0309             {
                 ; 0000 030A                 lcd_clear();
0005af 940e 129a 	CALL SUBOPT_0x8
                 ; 0000 030B                 lcd_gotoxy(0,0);
                 ; 0000 030C                 lcd_putsf(" Mode :         ");
0005b1 940e 12d7 	CALL SUBOPT_0x14
                 ; 0000 030D                 lcd_gotoxy(0,1);
0005b3 940e 12a3 	CALL SUBOPT_0xA
                 ; 0000 030E                 lcd_putsf(" 2.Test Mode");
                +
0005b5 e0e9     +LDI R30 , LOW ( 2 * _0x0 + ( 407 ) )
0005b6 e0f2     +LDI R31 , HIGH ( 2 * _0x0 + ( 407 ) )
                 	__POINTW1FN _0x0,407
0005b7 940e 128b 	CALL SUBOPT_0x5
                 ; 0000 030F             }
                 ; 0000 0310 
                 ; 0000 0311             if  (Mode==3)
                 _0xBB:
0005b9 940e 12d2 	CALL SUBOPT_0x13
0005bb 30e3      	CPI  R30,LOW(0x3)
0005bc f451      	BRNE _0xBC
                 ; 0000 0312             {
                 ; 0000 0313                 lcd_clear();
0005bd 940e 129a 	CALL SUBOPT_0x8
                 ; 0000 0314                 lcd_gotoxy(0,0);
                 ; 0000 0315                 lcd_putsf(" Mode :         ");
0005bf 940e 12d7 	CALL SUBOPT_0x14
                 ; 0000 0316                 lcd_gotoxy(0,1);
0005c1 940e 12a3 	CALL SUBOPT_0xA
                 ; 0000 0317                 lcd_putsf(" 3.Cek Sensor ");
                +
0005c3 e1e6     +LDI R30 , LOW ( 2 * _0x0 + ( 420 ) )
0005c4 e0f2     +LDI R31 , HIGH ( 2 * _0x0 + ( 420 ) )
                 	__POINTW1FN _0x0,420
0005c5 940e 128b 	CALL SUBOPT_0x5
                 ; 0000 0318             }
                 ; 0000 0319 
                 ; 0000 031A             if  (Mode==4)
                 _0xBC:
0005c7 940e 12d2 	CALL SUBOPT_0x13
0005c9 30e4      	CPI  R30,LOW(0x4)
0005ca f451      	BRNE _0xBD
                 ; 0000 031B             {
                 ; 0000 031C                 lcd_clear();
0005cb 940e 129a 	CALL SUBOPT_0x8
                 ; 0000 031D                 lcd_gotoxy(0,0);
                 ; 0000 031E                 lcd_putsf(" Mode :         ");
0005cd 940e 12d7 	CALL SUBOPT_0x14
                 ; 0000 031F                 lcd_gotoxy(0,1);
0005cf 940e 12a3 	CALL SUBOPT_0xA
                 ; 0000 0320                 lcd_putsf(" 4.Auto Tune 1-1");
                +
0005d1 e2e5     +LDI R30 , LOW ( 2 * _0x0 + ( 435 ) )
0005d2 e0f2     +LDI R31 , HIGH ( 2 * _0x0 + ( 435 ) )
                 	__POINTW1FN _0x0,435
0005d3 940e 128b 	CALL SUBOPT_0x5
                 ; 0000 0321             }
                 ; 0000 0322 
                 ; 0000 0323              if  (Mode==5)
                 _0xBD:
0005d5 940e 12d2 	CALL SUBOPT_0x13
0005d7 30e5      	CPI  R30,LOW(0x5)
0005d8 f451      	BRNE _0xBE
                 ; 0000 0324             {
                 ; 0000 0325                 lcd_clear();
0005d9 940e 129a 	CALL SUBOPT_0x8
                 ; 0000 0326                 lcd_gotoxy(0,0);
                 ; 0000 0327                 lcd_putsf(" Mode :         ");
0005db 940e 12d7 	CALL SUBOPT_0x14
                 ; 0000 0328                 lcd_gotoxy(0,1);
0005dd 940e 12a3 	CALL SUBOPT_0xA
                 ; 0000 0329                 lcd_putsf(" 5.Auto Tune ");
                +
0005df e3e6     +LDI R30 , LOW ( 2 * _0x0 + ( 452 ) )
0005e0 e0f2     +LDI R31 , HIGH ( 2 * _0x0 + ( 452 ) )
                 	__POINTW1FN _0x0,452
0005e1 940e 128b 	CALL SUBOPT_0x5
                 ; 0000 032A             }
                 ; 0000 032B 
                 ; 0000 032C             if  (Mode==6)
                 _0xBE:
0005e3 940e 12d2 	CALL SUBOPT_0x13
0005e5 30e6      	CPI  R30,LOW(0x6)
0005e6 f451      	BRNE _0xBF
                 ; 0000 032D             {
                 ; 0000 032E                 lcd_clear();
0005e7 940e 129a 	CALL SUBOPT_0x8
                 ; 0000 032F                 lcd_gotoxy(0,0);
                 ; 0000 0330                 lcd_putsf(" Mode :         ");
0005e9 940e 12d7 	CALL SUBOPT_0x14
                 ; 0000 0331                 lcd_gotoxy(0,1);
0005eb 940e 12a3 	CALL SUBOPT_0xA
                 ; 0000 0332                 lcd_putsf(" 6.Cek PWM Aktif");
                +
0005ed e4e4     +LDI R30 , LOW ( 2 * _0x0 + ( 466 ) )
0005ee e0f2     +LDI R31 , HIGH ( 2 * _0x0 + ( 466 ) )
                 	__POINTW1FN _0x0,466
0005ef 940e 128b 	CALL SUBOPT_0x5
                 ; 0000 0333             }
                 ; 0000 0334 
                 ; 0000 0335         if  (!sw_ok)
                 _0xBF:
0005f1 9985      	SBIC 0x10,5
0005f2 c061      	RJMP _0xC0
                 ; 0000 0336         {
                 ; 0000 0337             switch  (Mode)
0005f3 940e 12d2 	CALL SUBOPT_0x13
0005f5 940e 128f 	CALL SUBOPT_0x6
                 ; 0000 0338             {
                 ; 0000 0339                 case 1:
0005f7 f5e9      	BRNE _0xC4
                 ; 0000 033A                 {
                 ; 0000 033B                     for(;;)
                 _0xC6:
                 ; 0000 033C                     {
                 ; 0000 033D                         lcd_gotoxy(2,0);
0005f8 e0e2      	LDI  R30,LOW(2)
0005f9 940e 12da 	CALL SUBOPT_0x15
                 ; 0000 033E                         sprintf(lcd," %d %d %d %d",read_adc(3),read_adc(2),read_adc(1),read_adc(0));
0005fb 940e 12df 	CALL SUBOPT_0x16
                +
0005fd e5e5     +LDI R30 , LOW ( 2 * _0x0 + ( 483 ) )
0005fe e0f2     +LDI R31 , HIGH ( 2 * _0x0 + ( 483 ) )
                 	__POINTW1FN _0x0,483
0005ff 93fa      	ST   -Y,R31
000600 93ea      	ST   -Y,R30
000601 940e 12e4 	CALL SUBOPT_0x17
000603 940e 12e8 	CALL SUBOPT_0x18
000605 940e 12ee 	CALL SUBOPT_0x19
000607 940e 12e8 	CALL SUBOPT_0x18
000609 940e 12f2 	CALL SUBOPT_0x1A
00060b 940e 12e8 	CALL SUBOPT_0x18
00060d 940e 12f6 	CALL SUBOPT_0x1B
00060f 940e 12e8 	CALL SUBOPT_0x18
000611 940e 12fa 	CALL SUBOPT_0x1C
                 ; 0000 033F                         lcd_puts(lcd);
000613 940e 1205 	CALL _lcd_puts
                 ; 0000 0340                         lcd_gotoxy(1,1);
000615 e0e1      	LDI  R30,LOW(1)
000616 940e 12cd 	CALL SUBOPT_0x12
                 ; 0000 0341                         sprintf(lcd,"%d %d %d %d",read_adc(7),read_adc(6),read_adc(5),read_adc(4));
000618 940e 12df 	CALL SUBOPT_0x16
                +
00061a e5e6     +LDI R30 , LOW ( 2 * _0x0 + ( 484 ) )
00061b e0f2     +LDI R31 , HIGH ( 2 * _0x0 + ( 484 ) )
                 	__POINTW1FN _0x0,484
00061c 93fa      	ST   -Y,R31
00061d 93ea      	ST   -Y,R30
00061e 940e 12ff 	CALL SUBOPT_0x1D
000620 940e 12e8 	CALL SUBOPT_0x18
000622 940e 1303 	CALL SUBOPT_0x1E
000624 940e 12e8 	CALL SUBOPT_0x18
000626 940e 1307 	CALL SUBOPT_0x1F
000628 940e 12e8 	CALL SUBOPT_0x18
00062a 940e 130b 	CALL SUBOPT_0x20
00062c 940e 12e8 	CALL SUBOPT_0x18
00062e 940e 12fa 	CALL SUBOPT_0x1C
                 ; 0000 0342                         lcd_puts(lcd);
000630 940e 1205 	CALL _lcd_puts
                 ; 0000 0343                         delay_ms(100);
000632 940e 12a9 	CALL SUBOPT_0xB
                 ; 0000 0344                         lcd_clear();
                 ; 0000 0345                     }
000634 cfc3      	RJMP _0xC6
                 ; 0000 0346                 }
                 ; 0000 0347                 break;
                 ; 0000 0348 
                 ; 0000 0349                 case 2:
                 _0xC4:
000635 30e2      	CPI  R30,LOW(0x2)
000636 e0a0      	LDI  R26,HIGH(0x2)
000637 07fa      	CPC  R31,R26
000638 f411      	BRNE _0xC8
                 ; 0000 034A                 {
                 ; 0000 034B                     cek_sensor();
000639 d177      	RCALL _cek_sensor
                 ; 0000 034C                 }
                 ; 0000 034D                 break;
00063a c019      	RJMP _0xC3
                 ; 0000 034E 
                 ; 0000 034F                 case 3:
                 _0xC8:
00063b 30e3      	CPI  R30,LOW(0x3)
00063c e0a0      	LDI  R26,HIGH(0x3)
00063d 07fa      	CPC  R31,R26
00063e f411      	BRNE _0xC9
                 ; 0000 0350                 {
                 ; 0000 0351                     cek_sensor();
00063f d171      	RCALL _cek_sensor
                 ; 0000 0352                 }
                 ; 0000 0353                 break;
000640 c013      	RJMP _0xC3
                 ; 0000 0354 
                 ; 0000 0355                 case 4:
                 _0xC9:
000641 30e4      	CPI  R30,LOW(0x4)
000642 e0a0      	LDI  R26,HIGH(0x4)
000643 07fa      	CPC  R31,R26
000644 f411      	BRNE _0xCA
                 ; 0000 0356                 {
                 ; 0000 0357                     tune_batas();
000645 d183      	RCALL _tune_batas
                 ; 0000 0358 
                 ; 0000 0359                 }
                 ; 0000 035A                 break;
000646 c00d      	RJMP _0xC3
                 ; 0000 035B 
                 ; 0000 035C                 case 5:
                 _0xCA:
000647 30e5      	CPI  R30,LOW(0x5)
000648 e0a0      	LDI  R26,HIGH(0x5)
000649 07fa      	CPC  R31,R26
00064a f411      	BRNE _0xCB
                 ; 0000 035D                 {
                 ; 0000 035E                     auto_scan();
00064b d3ae      	RCALL _auto_scan
                 ; 0000 035F                     goto menu01;
00064c cd42      	RJMP _0x5A
                 ; 0000 0360                 }
                 ; 0000 0361                 break;
                 ; 0000 0362 
                 ; 0000 0363                 case 6:
                 _0xCB:
00064d 30e6      	CPI  R30,LOW(0x6)
00064e e0a0      	LDI  R26,HIGH(0x6)
00064f 07fa      	CPC  R31,R26
000650 f419      	BRNE _0xC3
                 ; 0000 0364                 {
                 ; 0000 0365                     pemercepat();
000651 d109      	RCALL _pemercepat
                 ; 0000 0366                     pelambat();
000652 d131      	RCALL _pelambat
                 ; 0000 0367                     goto menu01;
000653 cd3b      	RJMP _0x5A
                 ; 0000 0368                 }
                 ; 0000 0369                 break;
                 ; 0000 036A             }
                 _0xC3:
                 ; 0000 036B         }
                 ; 0000 036C 
                 ; 0000 036D         if  (!sw_cancel)
                 _0xC0:
000654 9983      	SBIC 0x10,3
000655 c003      	RJMP _0xCD
                 ; 0000 036E         {
                 ; 0000 036F             lcd_clear();
000656 940e 11d8 	CALL _lcd_clear
                 ; 0000 0370             goto menu05;
000658 cdcc      	RJMP _0x78
                 ; 0000 0371         }
                 ; 0000 0372 
                 ; 0000 0373         goto mode;
                 _0xCD:
000659 cf1c      	RJMP _0x7D
                 ; 0000 0374 
                 ; 0000 0375      startRobot:
                 _0x84:
                 ; 0000 0376         lcd_clear();
00065a 940e 11d8 	CALL _lcd_clear
                 ; 0000 0377 }
00065c 9508      	RET
                 ;
                 ;void baca_sensor(void)
                 ; 0000 037A {
                 _baca_sensor:
                 ; 0000 037B     sensor=0;
00065d 2499      	CLR  R9
                 ; 0000 037C     adc0=read_adc(7);
00065e 940e 12ff 	CALL SUBOPT_0x1D
000660 2e8e      	MOV  R8,R30
                 ; 0000 037D     adc1=read_adc(6);
000661 940e 1303 	CALL SUBOPT_0x1E
000663 2ebe      	MOV  R11,R30
                 ; 0000 037E     adc2=read_adc(5);
000664 940e 1307 	CALL SUBOPT_0x1F
000666 2eae      	MOV  R10,R30
                 ; 0000 037F     adc3=read_adc(4);
000667 940e 130b 	CALL SUBOPT_0x20
000669 2ede      	MOV  R13,R30
                 ; 0000 0380     adc4=read_adc(3);
00066a 940e 12e4 	CALL SUBOPT_0x17
00066c 2ece      	MOV  R12,R30
                 ; 0000 0381     adc5=read_adc(2);
00066d 940e 12ee 	CALL SUBOPT_0x19
00066f 93e0 0180 	STS  _adc5,R30
                 ; 0000 0382     adc6=read_adc(1);
000671 940e 12f2 	CALL SUBOPT_0x1A
000673 93e0 0181 	STS  _adc6,R30
                 ; 0000 0383     adc7=read_adc(0);
000675 940e 12f6 	CALL SUBOPT_0x1B
000677 93e0 0182 	STS  _adc7,R30
                 ; 0000 0384 
                 ; 0000 0385     if(adc0>bt0){s0=1;sensor=sensor|1<<0;}
000679 940e 130f 	CALL SUBOPT_0x21
00067b 15e8      	CP   R30,R8
00067c f420      	BRSH _0xCE
00067d 9468      	SET
00067e f820      	BLD  R2,0
00067f e0e1      	LDI  R30,LOW(1)
000680 c003      	RJMP _0x251
                 ; 0000 0386     else {s0=0;sensor=sensor|0<<0;}
                 _0xCE:
000681 94e8      	CLT
000682 f820      	BLD  R2,0
000683 e0e0      	LDI  R30,LOW(0)
                 _0x251:
000684 2a9e      	OR   R9,R30
                 ; 0000 0387 
                 ; 0000 0388     if(adc1>bt1){s1=1;sensor=sensor|1<<1;}
000685 940e 1314 	CALL SUBOPT_0x22
000687 15eb      	CP   R30,R11
000688 f420      	BRSH _0xD0
000689 9468      	SET
00068a f821      	BLD  R2,1
00068b e0e2      	LDI  R30,LOW(2)
00068c c003      	RJMP _0x252
                 ; 0000 0389     else {s1=0;sensor=sensor|0<<1;}
                 _0xD0:
00068d 94e8      	CLT
00068e f821      	BLD  R2,1
00068f e0e0      	LDI  R30,LOW(0)
                 _0x252:
000690 2a9e      	OR   R9,R30
                 ; 0000 038A 
                 ; 0000 038B     if(adc2>bt2){s2=1;sensor=sensor|1<<2;}
000691 940e 1319 	CALL SUBOPT_0x23
000693 15ea      	CP   R30,R10
000694 f420      	BRSH _0xD2
000695 9468      	SET
000696 f822      	BLD  R2,2
000697 e0e4      	LDI  R30,LOW(4)
000698 c003      	RJMP _0x253
                 ; 0000 038C     else {s2=0;sensor=sensor|0<<2;}
                 _0xD2:
000699 94e8      	CLT
00069a f822      	BLD  R2,2
00069b e0e0      	LDI  R30,LOW(0)
                 _0x253:
00069c 2a9e      	OR   R9,R30
                 ; 0000 038D 
                 ; 0000 038E     if(adc3>bt3){s3=1;sensor=sensor|1<<3;}
00069d 940e 131e 	CALL SUBOPT_0x24
00069f 15ed      	CP   R30,R13
0006a0 f420      	BRSH _0xD4
0006a1 9468      	SET
0006a2 f823      	BLD  R2,3
0006a3 e0e8      	LDI  R30,LOW(8)
0006a4 c003      	RJMP _0x254
                 ; 0000 038F     else {s3=0;sensor=sensor|0<<3;}
                 _0xD4:
0006a5 94e8      	CLT
0006a6 f823      	BLD  R2,3
0006a7 e0e0      	LDI  R30,LOW(0)
                 _0x254:
0006a8 2a9e      	OR   R9,R30
                 ; 0000 0390 
                 ; 0000 0391     if(adc4>bt4){s4=1;sensor=sensor|1<<4;}
0006a9 940e 1323 	CALL SUBOPT_0x25
0006ab 15ec      	CP   R30,R12
0006ac f420      	BRSH _0xD6
0006ad 9468      	SET
0006ae f824      	BLD  R2,4
0006af e1e0      	LDI  R30,LOW(16)
0006b0 c003      	RJMP _0x255
                 ; 0000 0392     else {s4=0;sensor=sensor|0<<4;}
                 _0xD6:
0006b1 94e8      	CLT
0006b2 f824      	BLD  R2,4
0006b3 e0e0      	LDI  R30,LOW(0)
                 _0x255:
0006b4 2a9e      	OR   R9,R30
                 ; 0000 0393 
                 ; 0000 0394     if(adc5>bt5){s5=1;sensor=sensor|1<<5;}
0006b5 940e 1328 	CALL SUBOPT_0x26
0006b7 91a0 0180 	LDS  R26,_adc5
0006b9 17ea      	CP   R30,R26
0006ba f420      	BRSH _0xD8
0006bb 9468      	SET
0006bc f825      	BLD  R2,5
0006bd e2e0      	LDI  R30,LOW(32)
0006be c003      	RJMP _0x256
                 ; 0000 0395     else {s5=0;sensor=sensor|0<<5;}
                 _0xD8:
0006bf 94e8      	CLT
0006c0 f825      	BLD  R2,5
0006c1 e0e0      	LDI  R30,LOW(0)
                 _0x256:
0006c2 2a9e      	OR   R9,R30
                 ; 0000 0396 
                 ; 0000 0397     if(adc6>bt6){s6=1;sensor=sensor|1<<6;}
0006c3 940e 132d 	CALL SUBOPT_0x27
0006c5 91a0 0181 	LDS  R26,_adc6
0006c7 17ea      	CP   R30,R26
0006c8 f420      	BRSH _0xDA
0006c9 9468      	SET
0006ca f826      	BLD  R2,6
0006cb e4e0      	LDI  R30,LOW(64)
0006cc c003      	RJMP _0x257
                 ; 0000 0398     else {s6=0;sensor=sensor|0<<6;}
                 _0xDA:
0006cd 94e8      	CLT
0006ce f826      	BLD  R2,6
0006cf e0e0      	LDI  R30,LOW(0)
                 _0x257:
0006d0 2a9e      	OR   R9,R30
                 ; 0000 0399 
                 ; 0000 039A     if(adc7>bt7){s7=1;sensor=sensor|1<<7;}
0006d1 940e 1332 	CALL SUBOPT_0x28
0006d3 91a0 0182 	LDS  R26,_adc7
0006d5 17ea      	CP   R30,R26
0006d6 f420      	BRSH _0xDC
0006d7 9468      	SET
0006d8 f827      	BLD  R2,7
0006d9 e8e0      	LDI  R30,LOW(128)
0006da c003      	RJMP _0x258
                 ; 0000 039B     else {s7=0;sensor=sensor|0<<7;}
                 _0xDC:
0006db 94e8      	CLT
0006dc f827      	BLD  R2,7
0006dd e0e0      	LDI  R30,LOW(0)
                 _0x258:
0006de 2a9e      	OR   R9,R30
                 ; 0000 039C 
                 ; 0000 039D     s0 = ~s0;
0006df e0e1      	LDI  R30,LOW(1)
0006e0 262e      	EOR  R2,R30
                 ; 0000 039E     s1 = ~s1;
0006e1 e0e2      	LDI  R30,LOW(2)
0006e2 262e      	EOR  R2,R30
                 ; 0000 039F     s2 = ~s2;
0006e3 e0e4      	LDI  R30,LOW(4)
0006e4 262e      	EOR  R2,R30
                 ; 0000 03A0     s3 = ~s3;
0006e5 e0e8      	LDI  R30,LOW(8)
0006e6 262e      	EOR  R2,R30
                 ; 0000 03A1     s4 = ~s4;
0006e7 e1e0      	LDI  R30,LOW(16)
0006e8 262e      	EOR  R2,R30
                 ; 0000 03A2     s5 = ~s5;
0006e9 e2e0      	LDI  R30,LOW(32)
0006ea 262e      	EOR  R2,R30
                 ; 0000 03A3     s6 = ~s6;
0006eb e4e0      	LDI  R30,LOW(64)
0006ec 262e      	EOR  R2,R30
                 ; 0000 03A4     s7 = ~s7;
0006ed e8e0      	LDI  R30,LOW(128)
0006ee 262e      	EOR  R2,R30
                 ; 0000 03A5 
                 ; 0000 03A6     sensor = ~sensor;
0006ef 9490      	COM  R9
                 ; 0000 03A7 }
0006f0 9508      	RET
                 ;
                 ;void displaySensorBit(void)
                 ; 0000 03AA {
                 _displaySensorBit:
                 ; 0000 03AB     baca_sensor();
0006f1 df6b      	RCALL _baca_sensor
                 ; 0000 03AC 
                 ; 0000 03AD     lcd_gotoxy(2,1);
0006f2 e0e2      	LDI  R30,LOW(2)
0006f3 940e 12cd 	CALL SUBOPT_0x12
                 ; 0000 03AE     if (s7) lcd_putchar('1');
0006f5 fe27      	SBRS R2,7
0006f6 c002      	RJMP _0xDE
0006f7 e3e1      	LDI  R30,LOW(49)
0006f8 c001      	RJMP _0x259
                 ; 0000 03AF     else    lcd_putchar('0');
                 _0xDE:
0006f9 e3e0      	LDI  R30,LOW(48)
                 _0x259:
0006fa 93ea      	ST   -Y,R30
0006fb 940e 11e7 	CALL _lcd_putchar
                 ; 0000 03B0     if (s6) lcd_putchar('1');
0006fd fe26      	SBRS R2,6
0006fe c002      	RJMP _0xE0
0006ff e3e1      	LDI  R30,LOW(49)
000700 c001      	RJMP _0x25A
                 ; 0000 03B1     else    lcd_putchar('0');
                 _0xE0:
000701 e3e0      	LDI  R30,LOW(48)
                 _0x25A:
000702 93ea      	ST   -Y,R30
000703 940e 11e7 	CALL _lcd_putchar
                 ; 0000 03B2     if (s5) lcd_putchar('1');
000705 fe25      	SBRS R2,5
000706 c002      	RJMP _0xE2
000707 e3e1      	LDI  R30,LOW(49)
000708 c001      	RJMP _0x25B
                 ; 0000 03B3     else    lcd_putchar('0');
                 _0xE2:
000709 e3e0      	LDI  R30,LOW(48)
                 _0x25B:
00070a 93ea      	ST   -Y,R30
00070b 940e 11e7 	CALL _lcd_putchar
                 ; 0000 03B4     if (s4) lcd_putchar('1');
00070d fe24      	SBRS R2,4
00070e c002      	RJMP _0xE4
00070f e3e1      	LDI  R30,LOW(49)
000710 c001      	RJMP _0x25C
                 ; 0000 03B5     else    lcd_putchar('0');
                 _0xE4:
000711 e3e0      	LDI  R30,LOW(48)
                 _0x25C:
000712 93ea      	ST   -Y,R30
000713 940e 11e7 	CALL _lcd_putchar
                 ; 0000 03B6     if (s3) lcd_putchar('1');
000715 fe23      	SBRS R2,3
000716 c002      	RJMP _0xE6
000717 e3e1      	LDI  R30,LOW(49)
000718 c001      	RJMP _0x25D
                 ; 0000 03B7     else    lcd_putchar('0');
                 _0xE6:
000719 e3e0      	LDI  R30,LOW(48)
                 _0x25D:
00071a 93ea      	ST   -Y,R30
00071b 940e 11e7 	CALL _lcd_putchar
                 ; 0000 03B8     if (s2) lcd_putchar('1');
00071d fe22      	SBRS R2,2
00071e c002      	RJMP _0xE8
00071f e3e1      	LDI  R30,LOW(49)
000720 c001      	RJMP _0x25E
                 ; 0000 03B9     else    lcd_putchar('0');
                 _0xE8:
000721 e3e0      	LDI  R30,LOW(48)
                 _0x25E:
000722 93ea      	ST   -Y,R30
000723 940e 11e7 	CALL _lcd_putchar
                 ; 0000 03BA     if (s1) lcd_putchar('1');
000725 fe21      	SBRS R2,1
000726 c002      	RJMP _0xEA
000727 e3e1      	LDI  R30,LOW(49)
000728 c001      	RJMP _0x25F
                 ; 0000 03BB     else    lcd_putchar('0');
                 _0xEA:
000729 e3e0      	LDI  R30,LOW(48)
                 _0x25F:
00072a 93ea      	ST   -Y,R30
00072b 940e 11e7 	CALL _lcd_putchar
                 ; 0000 03BC     if (s0) lcd_putchar('1');
00072d fe20      	SBRS R2,0
00072e c002      	RJMP _0xEC
00072f e3e1      	LDI  R30,LOW(49)
000730 c001      	RJMP _0x260
                 ; 0000 03BD     else    lcd_putchar('0');
                 _0xEC:
000731 e3e0      	LDI  R30,LOW(48)
                 _0x260:
000732 93ea      	ST   -Y,R30
000733 940e 11e7 	CALL _lcd_putchar
                 ; 0000 03BE }
000735 9508      	RET
                 ;
                 ;void maju(void)
                 ; 0000 03C1 {
                 _maju:
                 ; 0000 03C2         kaplus=1;kirplus=1;
000736 9aaf      	SBI  0x15,7
000737 9aab      	SBI  0x15,3
                 ; 0000 03C3         kamin=0;kirmin=0;
000738 98ae      	CBI  0x15,6
000739 c01a      	RJMP _0x208000C
                 ; 0000 03C4 }
                 ;
                 ;void mundur(void)
                 ; 0000 03C7 {
                 _mundur:
                 ; 0000 03C8         kaplus=0;kirplus=0;
00073a 98af      	CBI  0x15,7
00073b 98ab      	CBI  0x15,3
                 ; 0000 03C9         kamin=1;kirmin=1;
00073c 9aae      	SBI  0x15,6
00073d c01b      	RJMP _0x208000B
                 ; 0000 03CA }
                 ;
                 ;void bkan(void)
                 ; 0000 03CD {
                 _bkan:
                 ; 0000 03CE         kaplus=0;
00073e 98af      	CBI  0x15,7
                 ; 0000 03CF         kamin=1;
00073f 9aae      	SBI  0x15,6
                 ; 0000 03D0 }
000740 9508      	RET
                 ;
                 ;void bkir(void)
                 ; 0000 03D3 {
                 _bkir:
                 ; 0000 03D4         kirplus=0;
000741 c016      	RJMP _0x208000A
                 ; 0000 03D5         kirmin=1;
                 ; 0000 03D6 }
                 ;
                 ;void stop(void)
                 ; 0000 03D9 {
                 _stop:
                 ; 0000 03DA         rpwm=255;lpwm=255;
000742 940e 1337 	CALL SUBOPT_0x29
000744 940e 133e 	CALL SUBOPT_0x2A
                 ; 0000 03DB         mundur();
000746 dff3      	RCALL _mundur
                 ; 0000 03DC         delay_ms(50);
000747 940e 1345 	CALL SUBOPT_0x2B
                 ; 0000 03DD 
                 ; 0000 03DE         rpwm=0;lpwm=0;
000749 940e 134b 	CALL SUBOPT_0x2C
00074b 940e 1351 	CALL SUBOPT_0x2D
                 ; 0000 03DF         kaplus=0;kirplus=0;
00074d 98af      	CBI  0x15,7
00074e 98ab      	CBI  0x15,3
                 ; 0000 03E0         kamin=0;kirmin=0;
00074f 98ae      	CBI  0x15,6
000750 c003      	RJMP _0x208000C
                 ; 0000 03E1 }
                 ;
                 ;void rotkan(void)
                 ; 0000 03E4 {
                 _rotkan:
                 ; 0000 03E5         kaplus=0;kamin=1;
000751 98af      	CBI  0x15,7
000752 9aae      	SBI  0x15,6
                 ; 0000 03E6         kirplus=1;kirmin=0;
000753 9aab      	SBI  0x15,3
                 _0x208000C:
000754 98ac      	CBI  0x15,4
                 ; 0000 03E7 }
000755 9508      	RET
                 ;
                 ;void rotkir(void)
                 ; 0000 03EA {
                 _rotkir:
                 ; 0000 03EB         kaplus=1;kamin=0;
000756 9aaf      	SBI  0x15,7
000757 98ae      	CBI  0x15,6
                 ; 0000 03EC         kirplus=0;kirmin=1;
                 _0x208000A:
000758 98ab      	CBI  0x15,3
                 _0x208000B:
000759 9aac      	SBI  0x15,4
                 ; 0000 03ED }
00075a 9508      	RET
                 ;
                 ;void pemercepat(void)
                 ; 0000 03F0 {
                 _pemercepat:
                 ; 0000 03F1         int b;
                 ; 0000 03F2 
                 ; 0000 03F3         lpwm=0;
00075b 931a      	ST   -Y,R17
00075c 930a      	ST   -Y,R16
                 ;	b -> R16,R17
00075d 940e 1351 	CALL SUBOPT_0x2D
                 ; 0000 03F4         rpwm=0;
00075f 940e 134b 	CALL SUBOPT_0x2C
                 ; 0000 03F5 
                 ; 0000 03F6         maju();
000761 dfd4      	RCALL _maju
                 ; 0000 03F7 
                 ; 0000 03F8         for(b=0;b<255;b++)
                +
000762 e000     +LDI R16 , LOW ( 0 )
000763 e010     +LDI R17 , HIGH ( 0 )
                 	__GETWRN 16,17,0
                 _0x11F:
                +
000764 3f0f     +CPI R16 , LOW ( 255 )
000765 e0e0     +LDI R30 , HIGH ( 255 )
000766 071e     +CPC R17 , R30
                 	__CPWRN 16,17,255
000767 f4ac      	BRGE _0x120
                 ; 0000 03F9         {
                 ; 0000 03FA             delay_ms(125);
000768 940e 12b1 	CALL SUBOPT_0xC
                 ; 0000 03FB 
                 ; 0000 03FC             lpwm++;
00076a e8a5      	LDI  R26,LOW(_lpwm)
00076b e0b1      	LDI  R27,HIGH(_lpwm)
00076c 940e 1357 	CALL SUBOPT_0x2E
                 ; 0000 03FD             rpwm++;
00076e e8a7      	LDI  R26,LOW(_rpwm)
00076f e0b1      	LDI  R27,HIGH(_rpwm)
000770 940e 1357 	CALL SUBOPT_0x2E
                 ; 0000 03FE 
                 ; 0000 03FF             lcd_clear();
000772 940e 129a 	CALL SUBOPT_0x8
                 ; 0000 0400 
                 ; 0000 0401             lcd_gotoxy(0,0);
                 ; 0000 0402             sprintf(lcd," %d %d",lpwm,rpwm);
000774 940e 12df 	CALL SUBOPT_0x16
000776 940e 135d 	CALL SUBOPT_0x2F
                 ; 0000 0403             lcd_puts(lcd);
000778 940e 1205 	CALL _lcd_puts
                 ; 0000 0404         }
                +
00077a 5f0f     +SUBI R16 , LOW ( - 1 )
00077b 4f1f     +SBCI R17 , HIGH ( - 1 )
                 	__ADDWRN 16,17,1
00077c cfe7      	RJMP _0x11F
                 _0x120:
                 ; 0000 0405         lpwm=0;
00077d 940e 1351 	CALL SUBOPT_0x2D
                 ; 0000 0406         rpwm=0;
00077f 940e 134b 	CALL SUBOPT_0x2C
                 ; 0000 0407 }
000781 9109      	LD   R16,Y+
000782 9119      	LD   R17,Y+
000783 9508      	RET
                 ;
                 ;void pelambat(void)
                 ; 0000 040A {
                 _pelambat:
                 ; 0000 040B         int b;
                 ; 0000 040C 
                 ; 0000 040D         lpwm=255;
000784 931a      	ST   -Y,R17
000785 930a      	ST   -Y,R16
                 ;	b -> R16,R17
000786 940e 133e 	CALL SUBOPT_0x2A
                 ; 0000 040E         rpwm=255;
000788 940e 1337 	CALL SUBOPT_0x29
                 ; 0000 040F 
                 ; 0000 0410         mundur();
00078a dfaf      	RCALL _mundur
                 ; 0000 0411 
                 ; 0000 0412         for(b=0;b<255;b++)
                +
00078b e000     +LDI R16 , LOW ( 0 )
00078c e010     +LDI R17 , HIGH ( 0 )
                 	__GETWRN 16,17,0
                 _0x122:
                +
00078d 3f0f     +CPI R16 , LOW ( 255 )
00078e e0e0     +LDI R30 , HIGH ( 255 )
00078f 071e     +CPC R17 , R30
                 	__CPWRN 16,17,255
000790 f4dc      	BRGE _0x123
                 ; 0000 0413         {
                 ; 0000 0414             delay_ms(125);
000791 940e 12b1 	CALL SUBOPT_0xC
                 ; 0000 0415 
                 ; 0000 0416             lpwm--;
000793 e8a5      	LDI  R26,LOW(_lpwm)
000794 e0b1      	LDI  R27,HIGH(_lpwm)
000795 91ed      	LD   R30,X+
000796 91fd      	LD   R31,X+
000797 9731      	SBIW R30,1
000798 93fe      	ST   -X,R31
000799 93ee      	ST   -X,R30
                 ; 0000 0417             rpwm--;
00079a e8a7      	LDI  R26,LOW(_rpwm)
00079b e0b1      	LDI  R27,HIGH(_rpwm)
00079c 91ed      	LD   R30,X+
00079d 91fd      	LD   R31,X+
00079e 9731      	SBIW R30,1
00079f 93fe      	ST   -X,R31
0007a0 93ee      	ST   -X,R30
                 ; 0000 0418 
                 ; 0000 0419             lcd_clear();
0007a1 940e 129a 	CALL SUBOPT_0x8
                 ; 0000 041A 
                 ; 0000 041B             lcd_gotoxy(0,0);
                 ; 0000 041C             sprintf(lcd," %d %d",lpwm,rpwm);
0007a3 940e 12df 	CALL SUBOPT_0x16
0007a5 940e 135d 	CALL SUBOPT_0x2F
                 ; 0000 041D             lcd_puts(lcd);
0007a7 940e 1205 	CALL _lcd_puts
                 ; 0000 041E         }
                +
0007a9 5f0f     +SUBI R16 , LOW ( - 1 )
0007aa 4f1f     +SBCI R17 , HIGH ( - 1 )
                 	__ADDWRN 16,17,1
0007ab cfe1      	RJMP _0x122
                 _0x123:
                 ; 0000 041F         lpwm=0;
0007ac 940e 1351 	CALL SUBOPT_0x2D
                 ; 0000 0420         rpwm=0;
0007ae 940e 134b 	CALL SUBOPT_0x2C
                 ; 0000 0421 }
0007b0 c3a2      	RJMP _0x2080009
                 ;
                 ;void cek_sensor(void)
                 ; 0000 0424 {
                 _cek_sensor:
                 ; 0000 0425         int t;
                 ; 0000 0426 
                 ; 0000 0427         baca_sensor();
0007b1 931a      	ST   -Y,R17
0007b2 930a      	ST   -Y,R16
                 ;	t -> R16,R17
0007b3 dea9      	RCALL _baca_sensor
                 ; 0000 0428         lcd_clear();
0007b4 940e 11d8 	CALL _lcd_clear
                 ; 0000 0429         delay_ms(125);
0007b6 940e 12b1 	CALL SUBOPT_0xC
                 ; 0000 042A                 // wait 125ms
                 ; 0000 042B         lcd_gotoxy(0,0);
0007b8 940e 1286 	CALL SUBOPT_0x4
                 ; 0000 042C                 //0123456789abcdef
                 ; 0000 042D         lcd_putsf(" Test:Sensor    ");
                +
0007ba e6e2     +LDI R30 , LOW ( 2 * _0x0 + ( 496 ) )
0007bb e0f2     +LDI R31 , HIGH ( 2 * _0x0 + ( 496 ) )
                 	__POINTW1FN _0x0,496
0007bc 940e 128b 	CALL SUBOPT_0x5
                 ; 0000 042E 
                 ; 0000 042F         for (t=0; t<30000; t++) {displaySensorBit();}
                +
0007be e000     +LDI R16 , LOW ( 0 )
0007bf e010     +LDI R17 , HIGH ( 0 )
                 	__GETWRN 16,17,0
                 _0x125:
                +
0007c0 3300     +CPI R16 , LOW ( 30000 )
0007c1 e7e5     +LDI R30 , HIGH ( 30000 )
0007c2 071e     +CPC R17 , R30
                 	__CPWRN 16,17,30000
0007c3 f424      	BRGE _0x126
0007c4 df2c      	RCALL _displaySensorBit
                +
0007c5 5f0f     +SUBI R16 , LOW ( - 1 )
0007c6 4f1f     +SBCI R17 , HIGH ( - 1 )
                 	__ADDWRN 16,17,1
0007c7 cff8      	RJMP _0x125
                 _0x126:
                 ; 0000 0430 }
0007c8 c38a      	RJMP _0x2080009
                 ;
                 ;void tune_batas(void)
                 ; 0000 0433 {
                 _tune_batas:
                 ; 0000 0434         int k;
                 ; 0000 0435 
                 ; 0000 0436         ba7=7;
0007c9 940e 1370 	CALL SUBOPT_0x30
                 ;	k -> R16,R17
                 ; 0000 0437         ba6=7;
                 ; 0000 0438         ba5=7;
                 ; 0000 0439         ba4=7;
                 ; 0000 043A         ba3=7;
                 ; 0000 043B         ba2=7;
                 ; 0000 043C         ba1=7;
                 ; 0000 043D         ba0=7;
                 ; 0000 043E         bb7=200;
                 ; 0000 043F         bb6=200;
                 ; 0000 0440         bb5=200;
                 ; 0000 0441         bb4=200;
                 ; 0000 0442         bb3=200;
                 ; 0000 0443         bb2=200;
                 ; 0000 0444         bb1=200;
                 ; 0000 0445         bb0=200;
                 ; 0000 0446 
                 ; 0000 0447         lcd_clear();
0007cb 940e 11d8 	CALL _lcd_clear
                 ; 0000 0448 
                 ; 0000 0449     for(;;)
                 _0x128:
                 ; 0000 044A     {
                 ; 0000 044B         k = 0;
                +
0007cd e000     +LDI R16 , LOW ( 0 )
0007ce e010     +LDI R17 , HIGH ( 0 )
                 	__GETWRN 16,17,0
                 ; 0000 044C 
                 ; 0000 044D         k = read_adc(0);
0007cf 940e 12f6 	CALL SUBOPT_0x1B
0007d1 940e 13b5 	CALL SUBOPT_0x31
                 ; 0000 044E         if  (k<bb0)   {bb0=k;}
0007d3 f42c      	BRGE _0x12A
0007d4 2fe0      	MOV  R30,R16
0007d5 e2a1      	LDI  R26,LOW(_bb0)
0007d6 e0b0      	LDI  R27,HIGH(_bb0)
0007d7 940e 1596 	CALL __EEPROMWRB
                 ; 0000 044F         if  (k>ba0)   {ba0=k;}
                 _0x12A:
0007d9 940e 13c0 	CALL SUBOPT_0x32
0007db 940e 13c5 	CALL SUBOPT_0x33
0007dd 17ea      	CP   R30,R26
0007de 07fb      	CPC  R31,R27
0007df f42c      	BRGE _0x12B
0007e0 2fe0      	MOV  R30,R16
0007e1 e1a9      	LDI  R26,LOW(_ba0)
0007e2 e0b0      	LDI  R27,HIGH(_ba0)
0007e3 940e 1596 	CALL __EEPROMWRB
                 ; 0000 0450 
                 ; 0000 0451         bt0=((bb0+ba0)/2);
                 _0x12B:
0007e5 940e 13c8 	CALL SUBOPT_0x34
0007e7 2e0e      	MOV  R0,R30
0007e8 2411      	CLR  R1
0007e9 940e 13c0 	CALL SUBOPT_0x32
0007eb 940e 13cd 	CALL SUBOPT_0x35
0007ed e1a1      	LDI  R26,LOW(_bt0)
0007ee e0b0      	LDI  R27,HIGH(_bt0)
0007ef 940e 13d6 	CALL SUBOPT_0x36
                 ; 0000 0452 
                 ; 0000 0453         lcd_clear();
                 ; 0000 0454         lcd_gotoxy(1,0);
                 ; 0000 0455         lcd_putsf(" bb0  ba0  bt0");
                +
0007f1 e7e3     +LDI R30 , LOW ( 2 * _0x0 + ( 513 ) )
0007f2 e0f2     +LDI R31 , HIGH ( 2 * _0x0 + ( 513 ) )
                 	__POINTW1FN _0x0,513
0007f3 940e 128b 	CALL SUBOPT_0x5
                 ; 0000 0456         lcd_gotoxy(1,1);
0007f5 e0e1      	LDI  R30,LOW(1)
0007f6 940e 12cd 	CALL SUBOPT_0x12
                 ; 0000 0457         sprintf(lcd," %d  %d  %d",bb0,ba0,bt0);
0007f8 940e 12df 	CALL SUBOPT_0x16
0007fa 940e 13dc 	CALL SUBOPT_0x37
0007fc 940e 13c8 	CALL SUBOPT_0x34
0007fe 940e 12e8 	CALL SUBOPT_0x18
000800 940e 13c0 	CALL SUBOPT_0x32
000802 940e 12e8 	CALL SUBOPT_0x18
000804 940e 130f 	CALL SUBOPT_0x21
000806 940e 12e8 	CALL SUBOPT_0x18
000808 940e 13e1 	CALL SUBOPT_0x38
                 ; 0000 0458         lcd_puts(lcd);
00080a 940e 1205 	CALL _lcd_puts
                 ; 0000 0459         delay_ms(50);
00080c 940e 1345 	CALL SUBOPT_0x2B
                 ; 0000 045A 
                 ; 0000 045B         if(!sw_ok)
00080e 9985      	SBIC 0x10,5
00080f c003      	RJMP _0x12C
                 ; 0000 045C         {
                 ; 0000 045D             delay_ms(125);
000810 940e 12b1 	CALL SUBOPT_0xC
                 ; 0000 045E             goto sensor1;
000812 c001      	RJMP _0x12D
                 ; 0000 045F         }
                 ; 0000 0460     }
                 _0x12C:
000813 cfb9      	RJMP _0x128
                 ; 0000 0461     sensor1:
                 _0x12D:
                 ; 0000 0462     for(;;)
                 _0x12F:
                 ; 0000 0463     {
                 ; 0000 0464         k = read_adc(1);
000814 940e 12f2 	CALL SUBOPT_0x1A
000816 940e 13e6 	CALL SUBOPT_0x39
                 ; 0000 0465         if  (k<bb1)   {bb1=k;}
000818 17ae      	CP   R26,R30
000819 07bf      	CPC  R27,R31
00081a f42c      	BRGE _0x131
00081b 2fe0      	MOV  R30,R16
00081c e2a0      	LDI  R26,LOW(_bb1)
00081d e0b0      	LDI  R27,HIGH(_bb1)
00081e 940e 1596 	CALL __EEPROMWRB
                 ; 0000 0466         if  (k>ba1)   {ba1=k;}
                 _0x131:
000820 940e 13ed 	CALL SUBOPT_0x3A
000822 940e 13c5 	CALL SUBOPT_0x33
000824 17ea      	CP   R30,R26
000825 07fb      	CPC  R31,R27
000826 f42c      	BRGE _0x132
000827 2fe0      	MOV  R30,R16
000828 e1a8      	LDI  R26,LOW(_ba1)
000829 e0b0      	LDI  R27,HIGH(_ba1)
00082a 940e 1596 	CALL __EEPROMWRB
                 ; 0000 0467 
                 ; 0000 0468         bt1=((bb1+ba1)/2);
                 _0x132:
00082c 940e 13f2 	CALL SUBOPT_0x3B
00082e 2e0e      	MOV  R0,R30
00082f 2411      	CLR  R1
000830 940e 13ed 	CALL SUBOPT_0x3A
000832 940e 13cd 	CALL SUBOPT_0x35
000834 e1a0      	LDI  R26,LOW(_bt1)
000835 e0b0      	LDI  R27,HIGH(_bt1)
000836 940e 13d6 	CALL SUBOPT_0x36
                 ; 0000 0469 
                 ; 0000 046A         lcd_clear();
                 ; 0000 046B         lcd_gotoxy(1,0);
                 ; 0000 046C         lcd_putsf(" bb1  ba1  bt1");
                +
000838 e8ee     +LDI R30 , LOW ( 2 * _0x0 + ( 540 ) )
000839 e0f2     +LDI R31 , HIGH ( 2 * _0x0 + ( 540 ) )
                 	__POINTW1FN _0x0,540
00083a 940e 128b 	CALL SUBOPT_0x5
                 ; 0000 046D         lcd_gotoxy(1,1);
00083c e0e1      	LDI  R30,LOW(1)
00083d 940e 12cd 	CALL SUBOPT_0x12
                 ; 0000 046E         sprintf(lcd," %d  %d  %d",bb1,ba1,bt1);
00083f 940e 12df 	CALL SUBOPT_0x16
000841 940e 13dc 	CALL SUBOPT_0x37
000843 940e 13f2 	CALL SUBOPT_0x3B
000845 940e 12e8 	CALL SUBOPT_0x18
000847 940e 13ed 	CALL SUBOPT_0x3A
000849 940e 12e8 	CALL SUBOPT_0x18
00084b 940e 1314 	CALL SUBOPT_0x22
00084d 940e 12e8 	CALL SUBOPT_0x18
00084f 940e 13e1 	CALL SUBOPT_0x38
                 ; 0000 046F         lcd_puts(lcd);
000851 940e 1205 	CALL _lcd_puts
                 ; 0000 0470         delay_ms(50);
000853 940e 1345 	CALL SUBOPT_0x2B
                 ; 0000 0471 
                 ; 0000 0472         if(!sw_ok)
000855 9985      	SBIC 0x10,5
000856 c003      	RJMP _0x133
                 ; 0000 0473         {
                 ; 0000 0474             delay_ms(150);
000857 940e 129d 	CALL SUBOPT_0x9
                 ; 0000 0475             goto sensor2;
000859 c001      	RJMP _0x134
                 ; 0000 0476         }
                 ; 0000 0477     }
                 _0x133:
00085a cfb9      	RJMP _0x12F
                 ; 0000 0478     sensor2:
                 _0x134:
                 ; 0000 0479     for(;;)
                 _0x136:
                 ; 0000 047A     {
                 ; 0000 047B         k = read_adc(2);
00085b 940e 12ee 	CALL SUBOPT_0x19
00085d 940e 13f7 	CALL SUBOPT_0x3C
                 ; 0000 047C         if  (k<bb2)   {bb2=k;}
00085f 17ae      	CP   R26,R30
000860 07bf      	CPC  R27,R31
000861 f42c      	BRGE _0x138
000862 2fe0      	MOV  R30,R16
000863 e1af      	LDI  R26,LOW(_bb2)
000864 e0b0      	LDI  R27,HIGH(_bb2)
000865 940e 1596 	CALL __EEPROMWRB
                 ; 0000 047D         if  (k>ba2)   {ba2=k;}
                 _0x138:
000867 940e 13fe 	CALL SUBOPT_0x3D
000869 940e 13c5 	CALL SUBOPT_0x33
00086b 17ea      	CP   R30,R26
00086c 07fb      	CPC  R31,R27
00086d f42c      	BRGE _0x139
00086e 2fe0      	MOV  R30,R16
00086f e1a7      	LDI  R26,LOW(_ba2)
000870 e0b0      	LDI  R27,HIGH(_ba2)
000871 940e 1596 	CALL __EEPROMWRB
                 ; 0000 047E 
                 ; 0000 047F         bt2=((bb2+ba2)/2);
                 _0x139:
000873 940e 1403 	CALL SUBOPT_0x3E
000875 2e0e      	MOV  R0,R30
000876 2411      	CLR  R1
000877 940e 13fe 	CALL SUBOPT_0x3D
000879 940e 13cd 	CALL SUBOPT_0x35
00087b e0af      	LDI  R26,LOW(_bt2)
00087c e0b0      	LDI  R27,HIGH(_bt2)
00087d 940e 13d6 	CALL SUBOPT_0x36
                 ; 0000 0480 
                 ; 0000 0481         lcd_clear();
                 ; 0000 0482         lcd_gotoxy(1,0);
                 ; 0000 0483         lcd_putsf(" bb2  ba2  bt2");
                +
00087f e9ed     +LDI R30 , LOW ( 2 * _0x0 + ( 555 ) )
000880 e0f2     +LDI R31 , HIGH ( 2 * _0x0 + ( 555 ) )
                 	__POINTW1FN _0x0,555
000881 940e 128b 	CALL SUBOPT_0x5
                 ; 0000 0484         lcd_gotoxy(1,1);
000883 e0e1      	LDI  R30,LOW(1)
000884 940e 12cd 	CALL SUBOPT_0x12
                 ; 0000 0485         sprintf(lcd," %d  %d  %d",bb2,ba2,bt2);
000886 940e 12df 	CALL SUBOPT_0x16
000888 940e 13dc 	CALL SUBOPT_0x37
00088a 940e 1403 	CALL SUBOPT_0x3E
00088c 940e 12e8 	CALL SUBOPT_0x18
00088e 940e 13fe 	CALL SUBOPT_0x3D
000890 940e 12e8 	CALL SUBOPT_0x18
000892 940e 1319 	CALL SUBOPT_0x23
000894 940e 12e8 	CALL SUBOPT_0x18
000896 940e 13e1 	CALL SUBOPT_0x38
                 ; 0000 0486         lcd_puts(lcd);
000898 940e 1408 	CALL SUBOPT_0x3F
                 ; 0000 0487         delay_ms(10);
                 ; 0000 0488 
                 ; 0000 0489         if(!sw_ok)
00089a 9985      	SBIC 0x10,5
00089b c003      	RJMP _0x13A
                 ; 0000 048A         {
                 ; 0000 048B             delay_ms(150);
00089c 940e 129d 	CALL SUBOPT_0x9
                 ; 0000 048C             goto sensor3;
00089e c001      	RJMP _0x13B
                 ; 0000 048D         }
                 ; 0000 048E     }
                 _0x13A:
00089f cfbb      	RJMP _0x136
                 ; 0000 048F     sensor3:
                 _0x13B:
                 ; 0000 0490     for(;;)
                 _0x13D:
                 ; 0000 0491     {
                 ; 0000 0492         k = read_adc(3);
0008a0 940e 12e4 	CALL SUBOPT_0x17
0008a2 940e 1410 	CALL SUBOPT_0x40
                 ; 0000 0493         if  (k<bb3)   {bb3=k;}
0008a4 17ae      	CP   R26,R30
0008a5 07bf      	CPC  R27,R31
0008a6 f42c      	BRGE _0x13F
0008a7 2fe0      	MOV  R30,R16
0008a8 e1ae      	LDI  R26,LOW(_bb3)
0008a9 e0b0      	LDI  R27,HIGH(_bb3)
0008aa 940e 1596 	CALL __EEPROMWRB
                 ; 0000 0494         if  (k>ba3)   {ba3=k;}
                 _0x13F:
0008ac 940e 1417 	CALL SUBOPT_0x41
0008ae 940e 13c5 	CALL SUBOPT_0x33
0008b0 17ea      	CP   R30,R26
0008b1 07fb      	CPC  R31,R27
0008b2 f42c      	BRGE _0x140
0008b3 2fe0      	MOV  R30,R16
0008b4 e1a6      	LDI  R26,LOW(_ba3)
0008b5 e0b0      	LDI  R27,HIGH(_ba3)
0008b6 940e 1596 	CALL __EEPROMWRB
                 ; 0000 0495 
                 ; 0000 0496         bt3=((bb3+ba3)/2);
                 _0x140:
0008b8 940e 141c 	CALL SUBOPT_0x42
0008ba 2e0e      	MOV  R0,R30
0008bb 2411      	CLR  R1
0008bc 940e 1417 	CALL SUBOPT_0x41
0008be 940e 13cd 	CALL SUBOPT_0x35
0008c0 e0ae      	LDI  R26,LOW(_bt3)
0008c1 e0b0      	LDI  R27,HIGH(_bt3)
0008c2 940e 13d6 	CALL SUBOPT_0x36
                 ; 0000 0497 
                 ; 0000 0498         lcd_clear();
                 ; 0000 0499         lcd_gotoxy(1,0);
                 ; 0000 049A         lcd_putsf(" bb3  ba3  bt3");
                +
0008c4 eaec     +LDI R30 , LOW ( 2 * _0x0 + ( 570 ) )
0008c5 e0f2     +LDI R31 , HIGH ( 2 * _0x0 + ( 570 ) )
                 	__POINTW1FN _0x0,570
0008c6 940e 128b 	CALL SUBOPT_0x5
                 ; 0000 049B         lcd_gotoxy(1,1);
0008c8 e0e1      	LDI  R30,LOW(1)
0008c9 940e 12cd 	CALL SUBOPT_0x12
                 ; 0000 049C         sprintf(lcd," %d  %d  %d",bb3,ba3,bt3);
0008cb 940e 12df 	CALL SUBOPT_0x16
0008cd 940e 13dc 	CALL SUBOPT_0x37
0008cf 940e 141c 	CALL SUBOPT_0x42
0008d1 940e 12e8 	CALL SUBOPT_0x18
0008d3 940e 1417 	CALL SUBOPT_0x41
0008d5 940e 12e8 	CALL SUBOPT_0x18
0008d7 940e 131e 	CALL SUBOPT_0x24
0008d9 940e 12e8 	CALL SUBOPT_0x18
0008db 940e 13e1 	CALL SUBOPT_0x38
                 ; 0000 049D         lcd_puts(lcd);
0008dd 940e 1408 	CALL SUBOPT_0x3F
                 ; 0000 049E         delay_ms(10);
                 ; 0000 049F 
                 ; 0000 04A0         if(!sw_ok)
0008df 9985      	SBIC 0x10,5
0008e0 c003      	RJMP _0x141
                 ; 0000 04A1         {
                 ; 0000 04A2             delay_ms(150);
0008e1 940e 129d 	CALL SUBOPT_0x9
                 ; 0000 04A3             goto sensor4;
0008e3 c001      	RJMP _0x142
                 ; 0000 04A4         }
                 ; 0000 04A5     }
                 _0x141:
0008e4 cfbb      	RJMP _0x13D
                 ; 0000 04A6     sensor4:
                 _0x142:
                 ; 0000 04A7     for(;;)
                 _0x144:
                 ; 0000 04A8     {
                 ; 0000 04A9         k = read_adc(4);
0008e5 940e 130b 	CALL SUBOPT_0x20
0008e7 940e 1421 	CALL SUBOPT_0x43
                 ; 0000 04AA         if  (k<bb4)   {bb4=k;}
0008e9 17ae      	CP   R26,R30
0008ea 07bf      	CPC  R27,R31
0008eb f42c      	BRGE _0x146
0008ec 2fe0      	MOV  R30,R16
0008ed e1ad      	LDI  R26,LOW(_bb4)
0008ee e0b0      	LDI  R27,HIGH(_bb4)
0008ef 940e 1596 	CALL __EEPROMWRB
                 ; 0000 04AB         if  (k>ba4)   {ba4=k;}
                 _0x146:
0008f1 940e 1428 	CALL SUBOPT_0x44
0008f3 940e 13c5 	CALL SUBOPT_0x33
0008f5 17ea      	CP   R30,R26
0008f6 07fb      	CPC  R31,R27
0008f7 f42c      	BRGE _0x147
0008f8 2fe0      	MOV  R30,R16
0008f9 e1a5      	LDI  R26,LOW(_ba4)
0008fa e0b0      	LDI  R27,HIGH(_ba4)
0008fb 940e 1596 	CALL __EEPROMWRB
                 ; 0000 04AC 
                 ; 0000 04AD         bt4=((bb4+ba4)/2);
                 _0x147:
0008fd 940e 142d 	CALL SUBOPT_0x45
0008ff 2e0e      	MOV  R0,R30
000900 2411      	CLR  R1
000901 940e 1428 	CALL SUBOPT_0x44
000903 940e 13cd 	CALL SUBOPT_0x35
000905 e0ad      	LDI  R26,LOW(_bt4)
000906 e0b0      	LDI  R27,HIGH(_bt4)
000907 940e 13d6 	CALL SUBOPT_0x36
                 ; 0000 04AE 
                 ; 0000 04AF         lcd_clear();
                 ; 0000 04B0         lcd_gotoxy(1,0);
                 ; 0000 04B1         lcd_putsf(" bb4  ba4  bt4");
                +
000909 ebeb     +LDI R30 , LOW ( 2 * _0x0 + ( 585 ) )
00090a e0f2     +LDI R31 , HIGH ( 2 * _0x0 + ( 585 ) )
                 	__POINTW1FN _0x0,585
00090b 940e 128b 	CALL SUBOPT_0x5
                 ; 0000 04B2         lcd_gotoxy(1,1);
00090d e0e1      	LDI  R30,LOW(1)
00090e 940e 12cd 	CALL SUBOPT_0x12
                 ; 0000 04B3         sprintf(lcd," %d  %d  %d",bb4,ba4,bt4);
000910 940e 12df 	CALL SUBOPT_0x16
000912 940e 13dc 	CALL SUBOPT_0x37
000914 940e 142d 	CALL SUBOPT_0x45
000916 940e 12e8 	CALL SUBOPT_0x18
000918 940e 1428 	CALL SUBOPT_0x44
00091a 940e 12e8 	CALL SUBOPT_0x18
00091c 940e 1323 	CALL SUBOPT_0x25
00091e 940e 12e8 	CALL SUBOPT_0x18
000920 940e 13e1 	CALL SUBOPT_0x38
                 ; 0000 04B4         lcd_puts(lcd);
000922 940e 1408 	CALL SUBOPT_0x3F
                 ; 0000 04B5         delay_ms(10);
                 ; 0000 04B6 
                 ; 0000 04B7         if(!sw_ok)
000924 9985      	SBIC 0x10,5
000925 c003      	RJMP _0x148
                 ; 0000 04B8         {
                 ; 0000 04B9             delay_ms(150);
000926 940e 129d 	CALL SUBOPT_0x9
                 ; 0000 04BA             goto sensor5;
000928 c001      	RJMP _0x149
                 ; 0000 04BB         }
                 ; 0000 04BC     }
                 _0x148:
000929 cfbb      	RJMP _0x144
                 ; 0000 04BD     sensor5:
                 _0x149:
                 ; 0000 04BE     for(;;)
                 _0x14B:
                 ; 0000 04BF     {
                 ; 0000 04C0         k = read_adc(5);
00092a 940e 1307 	CALL SUBOPT_0x1F
00092c 940e 1432 	CALL SUBOPT_0x46
                 ; 0000 04C1         if  (k<bb5)   {bb5=k;}
00092e 17ae      	CP   R26,R30
00092f 07bf      	CPC  R27,R31
000930 f42c      	BRGE _0x14D
000931 2fe0      	MOV  R30,R16
000932 e1ac      	LDI  R26,LOW(_bb5)
000933 e0b0      	LDI  R27,HIGH(_bb5)
000934 940e 1596 	CALL __EEPROMWRB
                 ; 0000 04C2         if  (k>ba5)   {ba5=k;}
                 _0x14D:
000936 940e 1439 	CALL SUBOPT_0x47
000938 940e 13c5 	CALL SUBOPT_0x33
00093a 17ea      	CP   R30,R26
00093b 07fb      	CPC  R31,R27
00093c f42c      	BRGE _0x14E
00093d 2fe0      	MOV  R30,R16
00093e e1a4      	LDI  R26,LOW(_ba5)
00093f e0b0      	LDI  R27,HIGH(_ba5)
000940 940e 1596 	CALL __EEPROMWRB
                 ; 0000 04C3 
                 ; 0000 04C4         bt5=((bb5+ba5)/2);
                 _0x14E:
000942 940e 143e 	CALL SUBOPT_0x48
000944 2e0e      	MOV  R0,R30
000945 2411      	CLR  R1
000946 940e 1439 	CALL SUBOPT_0x47
000948 940e 13cd 	CALL SUBOPT_0x35
00094a e0ac      	LDI  R26,LOW(_bt5)
00094b e0b0      	LDI  R27,HIGH(_bt5)
00094c 940e 13d6 	CALL SUBOPT_0x36
                 ; 0000 04C5 
                 ; 0000 04C6         lcd_clear();
                 ; 0000 04C7         lcd_gotoxy(1,0);
                 ; 0000 04C8         lcd_putsf(" bb5  ba5  bt5");
                +
00094e ecea     +LDI R30 , LOW ( 2 * _0x0 + ( 600 ) )
00094f e0f2     +LDI R31 , HIGH ( 2 * _0x0 + ( 600 ) )
                 	__POINTW1FN _0x0,600
000950 940e 128b 	CALL SUBOPT_0x5
                 ; 0000 04C9         lcd_gotoxy(1,1);
000952 e0e1      	LDI  R30,LOW(1)
000953 940e 12cd 	CALL SUBOPT_0x12
                 ; 0000 04CA         sprintf(lcd," %d  %d  %d",bb5,ba5,bt5);
000955 940e 12df 	CALL SUBOPT_0x16
000957 940e 13dc 	CALL SUBOPT_0x37
000959 940e 143e 	CALL SUBOPT_0x48
00095b 940e 12e8 	CALL SUBOPT_0x18
00095d 940e 1439 	CALL SUBOPT_0x47
00095f 940e 12e8 	CALL SUBOPT_0x18
000961 940e 1328 	CALL SUBOPT_0x26
000963 940e 12e8 	CALL SUBOPT_0x18
000965 940e 13e1 	CALL SUBOPT_0x38
                 ; 0000 04CB         lcd_puts(lcd);
000967 940e 1408 	CALL SUBOPT_0x3F
                 ; 0000 04CC         delay_ms(10);
                 ; 0000 04CD 
                 ; 0000 04CE         if(!sw_ok)
000969 9985      	SBIC 0x10,5
00096a c003      	RJMP _0x14F
                 ; 0000 04CF         {
                 ; 0000 04D0             delay_ms(150);
00096b 940e 129d 	CALL SUBOPT_0x9
                 ; 0000 04D1             goto sensor6;
00096d c001      	RJMP _0x150
                 ; 0000 04D2         }
                 ; 0000 04D3     }
                 _0x14F:
00096e cfbb      	RJMP _0x14B
                 ; 0000 04D4     sensor6:
                 _0x150:
                 ; 0000 04D5     for(;;)
                 _0x152:
                 ; 0000 04D6     {
                 ; 0000 04D7         k = read_adc(06);
00096f 940e 1303 	CALL SUBOPT_0x1E
000971 940e 1443 	CALL SUBOPT_0x49
                 ; 0000 04D8         if  (k<bb6)   {bb6=k;}
000973 17ae      	CP   R26,R30
000974 07bf      	CPC  R27,R31
000975 f42c      	BRGE _0x154
000976 2fe0      	MOV  R30,R16
000977 e1ab      	LDI  R26,LOW(_bb6)
000978 e0b0      	LDI  R27,HIGH(_bb6)
000979 940e 1596 	CALL __EEPROMWRB
                 ; 0000 04D9         if  (k>ba6)   {ba6=k;}
                 _0x154:
00097b 940e 144a 	CALL SUBOPT_0x4A
00097d 940e 13c5 	CALL SUBOPT_0x33
00097f 17ea      	CP   R30,R26
000980 07fb      	CPC  R31,R27
000981 f42c      	BRGE _0x155
000982 2fe0      	MOV  R30,R16
000983 e1a3      	LDI  R26,LOW(_ba6)
000984 e0b0      	LDI  R27,HIGH(_ba6)
000985 940e 1596 	CALL __EEPROMWRB
                 ; 0000 04DA 
                 ; 0000 04DB         bt6=((bb6+ba6)/2);
                 _0x155:
000987 940e 144f 	CALL SUBOPT_0x4B
000989 2e0e      	MOV  R0,R30
00098a 2411      	CLR  R1
00098b 940e 144a 	CALL SUBOPT_0x4A
00098d 940e 13cd 	CALL SUBOPT_0x35
00098f e0ab      	LDI  R26,LOW(_bt6)
000990 e0b0      	LDI  R27,HIGH(_bt6)
000991 940e 13d6 	CALL SUBOPT_0x36
                 ; 0000 04DC 
                 ; 0000 04DD         lcd_clear();
                 ; 0000 04DE         lcd_gotoxy(1,0);
                 ; 0000 04DF         lcd_putsf(" bb6  ba6  bt6");
                +
000993 ede9     +LDI R30 , LOW ( 2 * _0x0 + ( 615 ) )
000994 e0f2     +LDI R31 , HIGH ( 2 * _0x0 + ( 615 ) )
                 	__POINTW1FN _0x0,615
000995 940e 128b 	CALL SUBOPT_0x5
                 ; 0000 04E0         lcd_gotoxy(1,1);
000997 e0e1      	LDI  R30,LOW(1)
000998 940e 12cd 	CALL SUBOPT_0x12
                 ; 0000 04E1         sprintf(lcd," %d  %d  %d",bb6,ba6,bt6);
00099a 940e 12df 	CALL SUBOPT_0x16
00099c 940e 13dc 	CALL SUBOPT_0x37
00099e 940e 144f 	CALL SUBOPT_0x4B
0009a0 940e 12e8 	CALL SUBOPT_0x18
0009a2 940e 144a 	CALL SUBOPT_0x4A
0009a4 940e 12e8 	CALL SUBOPT_0x18
0009a6 940e 132d 	CALL SUBOPT_0x27
0009a8 940e 12e8 	CALL SUBOPT_0x18
0009aa 940e 13e1 	CALL SUBOPT_0x38
                 ; 0000 04E2         lcd_puts(lcd);
0009ac 940e 1408 	CALL SUBOPT_0x3F
                 ; 0000 04E3         delay_ms(10);
                 ; 0000 04E4 
                 ; 0000 04E5         if(!sw_ok)
0009ae 9985      	SBIC 0x10,5
0009af c003      	RJMP _0x156
                 ; 0000 04E6         {
                 ; 0000 04E7             delay_ms(150);
0009b0 940e 129d 	CALL SUBOPT_0x9
                 ; 0000 04E8             goto sensor7;
0009b2 c001      	RJMP _0x157
                 ; 0000 04E9         }
                 ; 0000 04EA     }
                 _0x156:
0009b3 cfbb      	RJMP _0x152
                 ; 0000 04EB     sensor7:
                 _0x157:
                 ; 0000 04EC     for(;;)
                 _0x159:
                 ; 0000 04ED     {
                 ; 0000 04EE         k = read_adc(7);
0009b4 940e 12ff 	CALL SUBOPT_0x1D
0009b6 940e 1454 	CALL SUBOPT_0x4C
                 ; 0000 04EF         if  (k<bb7)   {bb7=k;}
0009b8 17ae      	CP   R26,R30
0009b9 07bf      	CPC  R27,R31
0009ba f42c      	BRGE _0x15B
0009bb 2fe0      	MOV  R30,R16
0009bc e1aa      	LDI  R26,LOW(_bb7)
0009bd e0b0      	LDI  R27,HIGH(_bb7)
0009be 940e 1596 	CALL __EEPROMWRB
                 ; 0000 04F0         if  (k>ba7)   {ba7=k;}
                 _0x15B:
0009c0 940e 145b 	CALL SUBOPT_0x4D
0009c2 940e 13c5 	CALL SUBOPT_0x33
0009c4 17ea      	CP   R30,R26
0009c5 07fb      	CPC  R31,R27
0009c6 f42c      	BRGE _0x15C
0009c7 2fe0      	MOV  R30,R16
0009c8 e1a2      	LDI  R26,LOW(_ba7)
0009c9 e0b0      	LDI  R27,HIGH(_ba7)
0009ca 940e 1596 	CALL __EEPROMWRB
                 ; 0000 04F1 
                 ; 0000 04F2         bt7=((bb7+ba7)/2);
                 _0x15C:
0009cc 940e 1460 	CALL SUBOPT_0x4E
0009ce 2e0e      	MOV  R0,R30
0009cf 2411      	CLR  R1
0009d0 940e 145b 	CALL SUBOPT_0x4D
0009d2 940e 13cd 	CALL SUBOPT_0x35
0009d4 e0aa      	LDI  R26,LOW(_bt7)
0009d5 e0b0      	LDI  R27,HIGH(_bt7)
0009d6 940e 13d6 	CALL SUBOPT_0x36
                 ; 0000 04F3 
                 ; 0000 04F4         lcd_clear();
                 ; 0000 04F5         lcd_gotoxy(1,0);
                 ; 0000 04F6         lcd_putsf(" bb7  ba7  bt7");
                +
0009d8 eee8     +LDI R30 , LOW ( 2 * _0x0 + ( 630 ) )
0009d9 e0f2     +LDI R31 , HIGH ( 2 * _0x0 + ( 630 ) )
                 	__POINTW1FN _0x0,630
0009da 940e 128b 	CALL SUBOPT_0x5
                 ; 0000 04F7         lcd_gotoxy(1,1);
0009dc e0e1      	LDI  R30,LOW(1)
0009dd 940e 12cd 	CALL SUBOPT_0x12
                 ; 0000 04F8         sprintf(lcd," %d  %d  %d",bb7,ba7,bt7);
0009df 940e 12df 	CALL SUBOPT_0x16
0009e1 940e 13dc 	CALL SUBOPT_0x37
0009e3 940e 1460 	CALL SUBOPT_0x4E
0009e5 940e 12e8 	CALL SUBOPT_0x18
0009e7 940e 145b 	CALL SUBOPT_0x4D
0009e9 940e 12e8 	CALL SUBOPT_0x18
0009eb 940e 1332 	CALL SUBOPT_0x28
0009ed 940e 12e8 	CALL SUBOPT_0x18
0009ef 940e 13e1 	CALL SUBOPT_0x38
                 ; 0000 04F9         lcd_puts(lcd);
0009f1 940e 1408 	CALL SUBOPT_0x3F
                 ; 0000 04FA         delay_ms(10);
                 ; 0000 04FB 
                 ; 0000 04FC         if(!sw_ok)
0009f3 9985      	SBIC 0x10,5
0009f4 c003      	RJMP _0x15D
                 ; 0000 04FD         {
                 ; 0000 04FE             delay_ms(150);
0009f5 940e 129d 	CALL SUBOPT_0x9
                 ; 0000 04FF             goto selesai;
0009f7 c001      	RJMP _0x15E
                 ; 0000 0500         }
                 ; 0000 0501     }
                 _0x15D:
0009f8 cfbb      	RJMP _0x159
                 ; 0000 0502     selesai:
                 _0x15E:
                 ; 0000 0503     lcd_clear();
0009f9 c157      	RJMP _0x2080008
                 ; 0000 0504 }
                 ;
                 ;void auto_scan(void)
                 ; 0000 0507 {
                 _auto_scan:
                 ; 0000 0508         int k;
                 ; 0000 0509 
                 ; 0000 050A         ba7=7;
0009fa 940e 1370 	CALL SUBOPT_0x30
                 ;	k -> R16,R17
                 ; 0000 050B         ba6=7;
                 ; 0000 050C         ba5=7;
                 ; 0000 050D         ba4=7;
                 ; 0000 050E         ba3=7;
                 ; 0000 050F         ba2=7;
                 ; 0000 0510         ba1=7;
                 ; 0000 0511         ba0=7;
                 ; 0000 0512         bb7=200;
                 ; 0000 0513         bb6=200;
                 ; 0000 0514         bb5=200;
                 ; 0000 0515         bb4=200;
                 ; 0000 0516         bb3=200;
                 ; 0000 0517         bb2=200;
                 ; 0000 0518         bb1=200;
                 ; 0000 0519         bb0=200;
                 ; 0000 051A 
                 ; 0000 051B         for(;;)
                 _0x160:
                 ; 0000 051C         {
                 ; 0000 051D                 k = 0;
                +
0009fc e000     +LDI R16 , LOW ( 0 )
0009fd e010     +LDI R17 , HIGH ( 0 )
                 	__GETWRN 16,17,0
                 ; 0000 051E 
                 ; 0000 051F                 k = read_adc(0);
0009fe 940e 12f6 	CALL SUBOPT_0x1B
000a00 940e 13b5 	CALL SUBOPT_0x31
                 ; 0000 0520                 if  (k<bb0)   {bb0=k;}
000a02 f42c      	BRGE _0x162
000a03 2fe0      	MOV  R30,R16
000a04 e2a1      	LDI  R26,LOW(_bb0)
000a05 e0b0      	LDI  R27,HIGH(_bb0)
000a06 940e 1596 	CALL __EEPROMWRB
                 ; 0000 0521                 if  (k>ba0)   {ba0=k;}
                 _0x162:
000a08 940e 13c0 	CALL SUBOPT_0x32
000a0a 940e 13c5 	CALL SUBOPT_0x33
000a0c 17ea      	CP   R30,R26
000a0d 07fb      	CPC  R31,R27
000a0e f42c      	BRGE _0x163
000a0f 2fe0      	MOV  R30,R16
000a10 e1a9      	LDI  R26,LOW(_ba0)
000a11 e0b0      	LDI  R27,HIGH(_ba0)
000a12 940e 1596 	CALL __EEPROMWRB
                 ; 0000 0522 
                 ; 0000 0523                 bt0=((bb0+ba0)/2);
                 _0x163:
000a14 940e 13c8 	CALL SUBOPT_0x34
000a16 2e0e      	MOV  R0,R30
000a17 2411      	CLR  R1
000a18 940e 13c0 	CALL SUBOPT_0x32
000a1a 940e 13cd 	CALL SUBOPT_0x35
000a1c e1a1      	LDI  R26,LOW(_bt0)
000a1d e0b0      	LDI  R27,HIGH(_bt0)
000a1e 940e 1596 	CALL __EEPROMWRB
                 ; 0000 0524 
                 ; 0000 0525                 k = read_adc(1);
000a20 940e 12f2 	CALL SUBOPT_0x1A
000a22 940e 13e6 	CALL SUBOPT_0x39
                 ; 0000 0526                 if  (k<bb1)   {bb1=k;}
000a24 17ae      	CP   R26,R30
000a25 07bf      	CPC  R27,R31
000a26 f42c      	BRGE _0x164
000a27 2fe0      	MOV  R30,R16
000a28 e2a0      	LDI  R26,LOW(_bb1)
000a29 e0b0      	LDI  R27,HIGH(_bb1)
000a2a 940e 1596 	CALL __EEPROMWRB
                 ; 0000 0527                 if  (k>ba1)   {ba1=k;}
                 _0x164:
000a2c 940e 13ed 	CALL SUBOPT_0x3A
000a2e 940e 13c5 	CALL SUBOPT_0x33
000a30 17ea      	CP   R30,R26
000a31 07fb      	CPC  R31,R27
000a32 f42c      	BRGE _0x165
000a33 2fe0      	MOV  R30,R16
000a34 e1a8      	LDI  R26,LOW(_ba1)
000a35 e0b0      	LDI  R27,HIGH(_ba1)
000a36 940e 1596 	CALL __EEPROMWRB
                 ; 0000 0528 
                 ; 0000 0529                 bt1=((bb1+ba1)/2);
                 _0x165:
000a38 940e 13f2 	CALL SUBOPT_0x3B
000a3a 2e0e      	MOV  R0,R30
000a3b 2411      	CLR  R1
000a3c 940e 13ed 	CALL SUBOPT_0x3A
000a3e 940e 13cd 	CALL SUBOPT_0x35
000a40 e1a0      	LDI  R26,LOW(_bt1)
000a41 e0b0      	LDI  R27,HIGH(_bt1)
000a42 940e 1596 	CALL __EEPROMWRB
                 ; 0000 052A 
                 ; 0000 052B                 k = read_adc(2);
000a44 940e 12ee 	CALL SUBOPT_0x19
000a46 940e 13f7 	CALL SUBOPT_0x3C
                 ; 0000 052C                 if  (k<bb2)   {bb2=k;}
000a48 17ae      	CP   R26,R30
000a49 07bf      	CPC  R27,R31
000a4a f42c      	BRGE _0x166
000a4b 2fe0      	MOV  R30,R16
000a4c e1af      	LDI  R26,LOW(_bb2)
000a4d e0b0      	LDI  R27,HIGH(_bb2)
000a4e 940e 1596 	CALL __EEPROMWRB
                 ; 0000 052D                 if  (k>ba2)   {ba2=k;}
                 _0x166:
000a50 940e 13fe 	CALL SUBOPT_0x3D
000a52 940e 13c5 	CALL SUBOPT_0x33
000a54 17ea      	CP   R30,R26
000a55 07fb      	CPC  R31,R27
000a56 f42c      	BRGE _0x167
000a57 2fe0      	MOV  R30,R16
000a58 e1a7      	LDI  R26,LOW(_ba2)
000a59 e0b0      	LDI  R27,HIGH(_ba2)
000a5a 940e 1596 	CALL __EEPROMWRB
                 ; 0000 052E 
                 ; 0000 052F                 bt2=((bb2+ba2)/2);
                 _0x167:
000a5c 940e 1403 	CALL SUBOPT_0x3E
000a5e 2e0e      	MOV  R0,R30
000a5f 2411      	CLR  R1
000a60 940e 13fe 	CALL SUBOPT_0x3D
000a62 940e 13cd 	CALL SUBOPT_0x35
000a64 e0af      	LDI  R26,LOW(_bt2)
000a65 e0b0      	LDI  R27,HIGH(_bt2)
000a66 940e 1596 	CALL __EEPROMWRB
                 ; 0000 0530 
                 ; 0000 0531                 k = read_adc(3);
000a68 940e 12e4 	CALL SUBOPT_0x17
000a6a 940e 1410 	CALL SUBOPT_0x40
                 ; 0000 0532                 if  (k<bb3)   {bb3=k;}
000a6c 17ae      	CP   R26,R30
000a6d 07bf      	CPC  R27,R31
000a6e f42c      	BRGE _0x168
000a6f 2fe0      	MOV  R30,R16
000a70 e1ae      	LDI  R26,LOW(_bb3)
000a71 e0b0      	LDI  R27,HIGH(_bb3)
000a72 940e 1596 	CALL __EEPROMWRB
                 ; 0000 0533                 if  (k>ba3)   {ba3=k;}
                 _0x168:
000a74 940e 1417 	CALL SUBOPT_0x41
000a76 940e 13c5 	CALL SUBOPT_0x33
000a78 17ea      	CP   R30,R26
000a79 07fb      	CPC  R31,R27
000a7a f42c      	BRGE _0x169
000a7b 2fe0      	MOV  R30,R16
000a7c e1a6      	LDI  R26,LOW(_ba3)
000a7d e0b0      	LDI  R27,HIGH(_ba3)
000a7e 940e 1596 	CALL __EEPROMWRB
                 ; 0000 0534 
                 ; 0000 0535                 bt3=((bb3+ba3)/2);
                 _0x169:
000a80 940e 141c 	CALL SUBOPT_0x42
000a82 2e0e      	MOV  R0,R30
000a83 2411      	CLR  R1
000a84 940e 1417 	CALL SUBOPT_0x41
000a86 940e 13cd 	CALL SUBOPT_0x35
000a88 e0ae      	LDI  R26,LOW(_bt3)
000a89 e0b0      	LDI  R27,HIGH(_bt3)
000a8a 940e 1596 	CALL __EEPROMWRB
                 ; 0000 0536 
                 ; 0000 0537                 k = read_adc(4);
000a8c 940e 130b 	CALL SUBOPT_0x20
000a8e 940e 1421 	CALL SUBOPT_0x43
                 ; 0000 0538                 if  (k<bb4)   {bb4=k;}
000a90 17ae      	CP   R26,R30
000a91 07bf      	CPC  R27,R31
000a92 f42c      	BRGE _0x16A
000a93 2fe0      	MOV  R30,R16
000a94 e1ad      	LDI  R26,LOW(_bb4)
000a95 e0b0      	LDI  R27,HIGH(_bb4)
000a96 940e 1596 	CALL __EEPROMWRB
                 ; 0000 0539                 if  (k>ba4)   {ba4=k;}
                 _0x16A:
000a98 940e 1428 	CALL SUBOPT_0x44
000a9a 940e 13c5 	CALL SUBOPT_0x33
000a9c 17ea      	CP   R30,R26
000a9d 07fb      	CPC  R31,R27
000a9e f42c      	BRGE _0x16B
000a9f 2fe0      	MOV  R30,R16
000aa0 e1a5      	LDI  R26,LOW(_ba4)
000aa1 e0b0      	LDI  R27,HIGH(_ba4)
000aa2 940e 1596 	CALL __EEPROMWRB
                 ; 0000 053A 
                 ; 0000 053B                 bt4=((bb4+ba4)/2);
                 _0x16B:
000aa4 940e 142d 	CALL SUBOPT_0x45
000aa6 2e0e      	MOV  R0,R30
000aa7 2411      	CLR  R1
000aa8 940e 1428 	CALL SUBOPT_0x44
000aaa 940e 13cd 	CALL SUBOPT_0x35
000aac e0ad      	LDI  R26,LOW(_bt4)
000aad e0b0      	LDI  R27,HIGH(_bt4)
000aae 940e 1596 	CALL __EEPROMWRB
                 ; 0000 053C 
                 ; 0000 053D                 k = read_adc(5);
000ab0 940e 1307 	CALL SUBOPT_0x1F
000ab2 940e 1432 	CALL SUBOPT_0x46
                 ; 0000 053E                 if  (k<bb5)   {bb5=k;}
000ab4 17ae      	CP   R26,R30
000ab5 07bf      	CPC  R27,R31
000ab6 f42c      	BRGE _0x16C
000ab7 2fe0      	MOV  R30,R16
000ab8 e1ac      	LDI  R26,LOW(_bb5)
000ab9 e0b0      	LDI  R27,HIGH(_bb5)
000aba 940e 1596 	CALL __EEPROMWRB
                 ; 0000 053F                 if  (k>ba5)   {ba5=k;}
                 _0x16C:
000abc 940e 1439 	CALL SUBOPT_0x47
000abe 940e 13c5 	CALL SUBOPT_0x33
000ac0 17ea      	CP   R30,R26
000ac1 07fb      	CPC  R31,R27
000ac2 f42c      	BRGE _0x16D
000ac3 2fe0      	MOV  R30,R16
000ac4 e1a4      	LDI  R26,LOW(_ba5)
000ac5 e0b0      	LDI  R27,HIGH(_ba5)
000ac6 940e 1596 	CALL __EEPROMWRB
                 ; 0000 0540 
                 ; 0000 0541                 bt5=((bb5+ba5)/2);
                 _0x16D:
000ac8 940e 143e 	CALL SUBOPT_0x48
000aca 2e0e      	MOV  R0,R30
000acb 2411      	CLR  R1
000acc 940e 1439 	CALL SUBOPT_0x47
000ace 940e 13cd 	CALL SUBOPT_0x35
000ad0 e0ac      	LDI  R26,LOW(_bt5)
000ad1 e0b0      	LDI  R27,HIGH(_bt5)
000ad2 940e 1596 	CALL __EEPROMWRB
                 ; 0000 0542 
                 ; 0000 0543                 k = read_adc(6);
000ad4 940e 1303 	CALL SUBOPT_0x1E
000ad6 940e 1443 	CALL SUBOPT_0x49
                 ; 0000 0544                 if  (k<bb6)   {bb6=k;}
000ad8 17ae      	CP   R26,R30
000ad9 07bf      	CPC  R27,R31
000ada f42c      	BRGE _0x16E
000adb 2fe0      	MOV  R30,R16
000adc e1ab      	LDI  R26,LOW(_bb6)
000add e0b0      	LDI  R27,HIGH(_bb6)
000ade 940e 1596 	CALL __EEPROMWRB
                 ; 0000 0545                 if  (k>ba6)   {ba6=k;}
                 _0x16E:
000ae0 940e 144a 	CALL SUBOPT_0x4A
000ae2 940e 13c5 	CALL SUBOPT_0x33
000ae4 17ea      	CP   R30,R26
000ae5 07fb      	CPC  R31,R27
000ae6 f42c      	BRGE _0x16F
000ae7 2fe0      	MOV  R30,R16
000ae8 e1a3      	LDI  R26,LOW(_ba6)
000ae9 e0b0      	LDI  R27,HIGH(_ba6)
000aea 940e 1596 	CALL __EEPROMWRB
                 ; 0000 0546 
                 ; 0000 0547                 bt6=((bb6+ba6)/2);
                 _0x16F:
000aec 940e 144f 	CALL SUBOPT_0x4B
000aee 2e0e      	MOV  R0,R30
000aef 2411      	CLR  R1
000af0 940e 144a 	CALL SUBOPT_0x4A
000af2 940e 13cd 	CALL SUBOPT_0x35
000af4 e0ab      	LDI  R26,LOW(_bt6)
000af5 e0b0      	LDI  R27,HIGH(_bt6)
000af6 940e 1596 	CALL __EEPROMWRB
                 ; 0000 0548 
                 ; 0000 0549                 k = read_adc(7);
000af8 940e 12ff 	CALL SUBOPT_0x1D
000afa 940e 1454 	CALL SUBOPT_0x4C
                 ; 0000 054A                 if  (k<bb7)   {bb7=k;}
000afc 17ae      	CP   R26,R30
000afd 07bf      	CPC  R27,R31
000afe f42c      	BRGE _0x170
000aff 2fe0      	MOV  R30,R16
000b00 e1aa      	LDI  R26,LOW(_bb7)
000b01 e0b0      	LDI  R27,HIGH(_bb7)
000b02 940e 1596 	CALL __EEPROMWRB
                 ; 0000 054B                 if  (k>ba7)   {ba7=k;}
                 _0x170:
000b04 940e 145b 	CALL SUBOPT_0x4D
000b06 940e 13c5 	CALL SUBOPT_0x33
000b08 17ea      	CP   R30,R26
000b09 07fb      	CPC  R31,R27
000b0a f42c      	BRGE _0x171
000b0b 2fe0      	MOV  R30,R16
000b0c e1a2      	LDI  R26,LOW(_ba7)
000b0d e0b0      	LDI  R27,HIGH(_ba7)
000b0e 940e 1596 	CALL __EEPROMWRB
                 ; 0000 054C 
                 ; 0000 054D                 bt7=((bb7+ba7)/2);
                 _0x171:
000b10 940e 1460 	CALL SUBOPT_0x4E
000b12 2e0e      	MOV  R0,R30
000b13 2411      	CLR  R1
000b14 940e 145b 	CALL SUBOPT_0x4D
000b16 940e 13cd 	CALL SUBOPT_0x35
000b18 e0aa      	LDI  R26,LOW(_bt7)
000b19 e0b0      	LDI  R27,HIGH(_bt7)
000b1a 940e 13d6 	CALL SUBOPT_0x36
                 ; 0000 054E 
                 ; 0000 054F                 lcd_clear();
                 ; 0000 0550                 lcd_gotoxy(1,0);
                 ; 0000 0551                 sprintf(lcd,"%d %d %d %d %d %d %d %d",bt7,bt6,bt5,bt4,bt3,bt2,bt1,bt0);
000b1c 940e 12df 	CALL SUBOPT_0x16
                +
000b1e efe7     +LDI R30 , LOW ( 2 * _0x0 + ( 645 ) )
000b1f e0f2     +LDI R31 , HIGH ( 2 * _0x0 + ( 645 ) )
                 	__POINTW1FN _0x0,645
000b20 93fa      	ST   -Y,R31
000b21 93ea      	ST   -Y,R30
000b22 940e 1332 	CALL SUBOPT_0x28
000b24 940e 12e8 	CALL SUBOPT_0x18
000b26 940e 132d 	CALL SUBOPT_0x27
000b28 940e 12e8 	CALL SUBOPT_0x18
000b2a 940e 1328 	CALL SUBOPT_0x26
000b2c 940e 12e8 	CALL SUBOPT_0x18
000b2e 940e 1323 	CALL SUBOPT_0x25
000b30 940e 12e8 	CALL SUBOPT_0x18
000b32 940e 131e 	CALL SUBOPT_0x24
000b34 940e 12e8 	CALL SUBOPT_0x18
000b36 940e 1319 	CALL SUBOPT_0x23
000b38 940e 12e8 	CALL SUBOPT_0x18
000b3a 940e 1314 	CALL SUBOPT_0x22
000b3c 940e 12e8 	CALL SUBOPT_0x18
000b3e 940e 130f 	CALL SUBOPT_0x21
000b40 940e 12e8 	CALL SUBOPT_0x18
000b42 e280      	LDI  R24,32
000b43 940e 115a 	CALL _sprintf
000b45 96a4      	ADIW R28,36
                 ; 0000 0552                 lcd_puts(lcd);
000b46 940e 12df 	CALL SUBOPT_0x16
000b48 940e 1205 	CALL _lcd_puts
                 ; 0000 0553                 delay_ms(120);
000b4a e7e8      	LDI  R30,LOW(120)
000b4b e0f0      	LDI  R31,HIGH(120)
000b4c 940e 1465 	CALL SUBOPT_0x4F
                 ; 0000 0554 
                 ; 0000 0555                 if (!sw_ok)
000b4e 9b85      	SBIS 0x10,5
                 ; 0000 0556                 {
                 ; 0000 0557                         goto selesai_auto_scan;
000b4f c001      	RJMP _0x173
                 ; 0000 0558                 }
                 ; 0000 0559         }
000b50 ceab      	RJMP _0x160
                 ; 0000 055A 
                 ; 0000 055B     selesai_auto_scan:
                 _0x173:
                 ; 0000 055C     lcd_clear();
                 _0x2080008:
000b51 940e 11d8 	CALL _lcd_clear
                 ; 0000 055D }
                 _0x2080009:
000b53 9109      	LD   R16,Y+
000b54 9119      	LD   R17,Y+
000b55 9508      	RET
                 ;
                 ;void scanBlackLine(void)
                 ; 0000 0560 {
                 _scanBlackLine:
                 ; 0000 0561         switch(sensor)
000b56 2de9      	MOV  R30,R9
000b57 e0f0      	LDI  R31,0
                 ; 0000 0562         {
                 ; 0000 0563                 case 0b11111110:        // ujung kiri
000b58 3fee      	CPI  R30,LOW(0xFE)
000b59 e0a0      	LDI  R26,HIGH(0xFE)
000b5a 07fa      	CPC  R31,R26
000b5b f429      	BRNE _0x177
                 ; 0000 0564                 PV = -7;
000b5c efe9      	LDI  R30,LOW(65529)
000b5d efff      	LDI  R31,HIGH(65529)
000b5e 940e 1469 	CALL SUBOPT_0x50
                 ; 0000 0565                 maju();
                 ; 0000 0566                 break;
000b60 c0bd      	RJMP _0x176
                 ; 0000 0567 
                 ; 0000 0568                 case 0b11111000:
                 _0x177:
000b61 3fe8      	CPI  R30,LOW(0xF8)
000b62 e0a0      	LDI  R26,HIGH(0xF8)
000b63 07fa      	CPC  R31,R26
000b64 f021      	BREQ _0x179
                 ; 0000 0569                 case 0b11111100:
000b65 3fec      	CPI  R30,LOW(0xFC)
000b66 e0a0      	LDI  R26,HIGH(0xFC)
000b67 07fa      	CPC  R31,R26
000b68 f429      	BRNE _0x17A
                 _0x179:
                 ; 0000 056A                 PV = -6;
000b69 efea      	LDI  R30,LOW(65530)
000b6a efff      	LDI  R31,HIGH(65530)
000b6b 940e 1469 	CALL SUBOPT_0x50
                 ; 0000 056B                 maju();
                 ; 0000 056C                 break;
000b6d c0b0      	RJMP _0x176
                 ; 0000 056D 
                 ; 0000 056E                 case 0b11111101:
                 _0x17A:
000b6e 3fed      	CPI  R30,LOW(0xFD)
000b6f e0a0      	LDI  R26,HIGH(0xFD)
000b70 07fa      	CPC  R31,R26
000b71 f429      	BRNE _0x17B
                 ; 0000 056F                 PV = -5;
000b72 efeb      	LDI  R30,LOW(65531)
000b73 efff      	LDI  R31,HIGH(65531)
000b74 940e 1469 	CALL SUBOPT_0x50
                 ; 0000 0570                 maju();
                 ; 0000 0571                 break;
000b76 c0a7      	RJMP _0x176
                 ; 0000 0572 
                 ; 0000 0573                 case 0b11110001:
                 _0x17B:
000b77 3fe1      	CPI  R30,LOW(0xF1)
000b78 e0a0      	LDI  R26,HIGH(0xF1)
000b79 07fa      	CPC  R31,R26
000b7a f021      	BREQ _0x17D
                 ; 0000 0574                 case 0b11111001:
000b7b 3fe9      	CPI  R30,LOW(0xF9)
000b7c e0a0      	LDI  R26,HIGH(0xF9)
000b7d 07fa      	CPC  R31,R26
000b7e f429      	BRNE _0x17E
                 _0x17D:
                 ; 0000 0575                 PV = -4;
000b7f efec      	LDI  R30,LOW(65532)
000b80 efff      	LDI  R31,HIGH(65532)
000b81 940e 1469 	CALL SUBOPT_0x50
                 ; 0000 0576                 maju();
                 ; 0000 0577                 break;
000b83 c09a      	RJMP _0x176
                 ; 0000 0578 
                 ; 0000 0579                 case 0b11111011:
                 _0x17E:
000b84 3feb      	CPI  R30,LOW(0xFB)
000b85 e0a0      	LDI  R26,HIGH(0xFB)
000b86 07fa      	CPC  R31,R26
000b87 f429      	BRNE _0x17F
                 ; 0000 057A                 PV = -3;
000b88 efed      	LDI  R30,LOW(65533)
000b89 efff      	LDI  R31,HIGH(65533)
000b8a 940e 1469 	CALL SUBOPT_0x50
                 ; 0000 057B                 maju();
                 ; 0000 057C                 break;
000b8c c091      	RJMP _0x176
                 ; 0000 057D 
                 ; 0000 057E                 case 0b11100011:
                 _0x17F:
000b8d 3ee3      	CPI  R30,LOW(0xE3)
000b8e e0a0      	LDI  R26,HIGH(0xE3)
000b8f 07fa      	CPC  R31,R26
000b90 f021      	BREQ _0x181
                 ; 0000 057F                 case 0b11110011:
000b91 3fe3      	CPI  R30,LOW(0xF3)
000b92 e0a0      	LDI  R26,HIGH(0xF3)
000b93 07fa      	CPC  R31,R26
000b94 f429      	BRNE _0x182
                 _0x181:
                 ; 0000 0580                 PV = -2;
000b95 efee      	LDI  R30,LOW(65534)
000b96 efff      	LDI  R31,HIGH(65534)
000b97 940e 1469 	CALL SUBOPT_0x50
                 ; 0000 0581                 maju();
                 ; 0000 0582                 break;
000b99 c084      	RJMP _0x176
                 ; 0000 0583 
                 ; 0000 0584                 case 0b11110111:
                 _0x182:
000b9a 3fe7      	CPI  R30,LOW(0xF7)
000b9b e0a0      	LDI  R26,HIGH(0xF7)
000b9c 07fa      	CPC  R31,R26
000b9d f429      	BRNE _0x183
                 ; 0000 0585                 PV = -1;
000b9e efef      	LDI  R30,LOW(65535)
000b9f efff      	LDI  R31,HIGH(65535)
000ba0 940e 1469 	CALL SUBOPT_0x50
                 ; 0000 0586                 maju();
                 ; 0000 0587                 break;
000ba2 c07b      	RJMP _0x176
                 ; 0000 0588 
                 ; 0000 0589                 //////////////
                 ; 0000 058A                 case 0b11100111:        // tengah
                 _0x183:
000ba3 3ee7      	CPI  R30,LOW(0xE7)
000ba4 e0a0      	LDI  R26,HIGH(0xE7)
000ba5 07fa      	CPC  R31,R26
000ba6 f421      	BRNE _0x184
                 ; 0000 058B                 PV = 0;
000ba7 940e 146f 	CALL SUBOPT_0x51
                 ; 0000 058C                 maju();
000ba9 db8c      	RCALL _maju
                 ; 0000 058D                 break;
000baa c073      	RJMP _0x176
                 ; 0000 058E                 //////////////
                 ; 0000 058F 
                 ; 0000 0590                 case 0b11101111:
                 _0x184:
000bab 3eef      	CPI  R30,LOW(0xEF)
000bac e0a0      	LDI  R26,HIGH(0xEF)
000bad 07fa      	CPC  R31,R26
000bae f429      	BRNE _0x185
                 ; 0000 0591                 PV = 1;
000baf e0e1      	LDI  R30,LOW(1)
000bb0 e0f0      	LDI  R31,HIGH(1)
000bb1 940e 1469 	CALL SUBOPT_0x50
                 ; 0000 0592                 maju();
                 ; 0000 0593                 break;
000bb3 c06a      	RJMP _0x176
                 ; 0000 0594 
                 ; 0000 0595                 case 0b11000111:
                 _0x185:
000bb4 3ce7      	CPI  R30,LOW(0xC7)
000bb5 e0a0      	LDI  R26,HIGH(0xC7)
000bb6 07fa      	CPC  R31,R26
000bb7 f021      	BREQ _0x187
                 ; 0000 0596                 case 0b11001111:
000bb8 3cef      	CPI  R30,LOW(0xCF)
000bb9 e0a0      	LDI  R26,HIGH(0xCF)
000bba 07fa      	CPC  R31,R26
000bbb f429      	BRNE _0x188
                 _0x187:
                 ; 0000 0597                 PV = 2;
000bbc e0e2      	LDI  R30,LOW(2)
000bbd e0f0      	LDI  R31,HIGH(2)
000bbe 940e 1469 	CALL SUBOPT_0x50
                 ; 0000 0598                 maju();
                 ; 0000 0599                 break;
000bc0 c05d      	RJMP _0x176
                 ; 0000 059A 
                 ; 0000 059B                 case 0b11011111:
                 _0x188:
000bc1 3def      	CPI  R30,LOW(0xDF)
000bc2 e0a0      	LDI  R26,HIGH(0xDF)
000bc3 07fa      	CPC  R31,R26
000bc4 f429      	BRNE _0x189
                 ; 0000 059C                 PV = 3;
000bc5 e0e3      	LDI  R30,LOW(3)
000bc6 e0f0      	LDI  R31,HIGH(3)
000bc7 940e 1469 	CALL SUBOPT_0x50
                 ; 0000 059D                 maju();
                 ; 0000 059E                 break;
000bc9 c054      	RJMP _0x176
                 ; 0000 059F 
                 ; 0000 05A0                 case 0b10001111:
                 _0x189:
000bca 38ef      	CPI  R30,LOW(0x8F)
000bcb e0a0      	LDI  R26,HIGH(0x8F)
000bcc 07fa      	CPC  R31,R26
000bcd f021      	BREQ _0x18B
                 ; 0000 05A1                 case 0b10011111:
000bce 39ef      	CPI  R30,LOW(0x9F)
000bcf e0a0      	LDI  R26,HIGH(0x9F)
000bd0 07fa      	CPC  R31,R26
000bd1 f429      	BRNE _0x18C
                 _0x18B:
                 ; 0000 05A2                 PV = 4;
000bd2 e0e4      	LDI  R30,LOW(4)
000bd3 e0f0      	LDI  R31,HIGH(4)
000bd4 940e 1469 	CALL SUBOPT_0x50
                 ; 0000 05A3                 maju();
                 ; 0000 05A4                 break;
000bd6 c047      	RJMP _0x176
                 ; 0000 05A5 
                 ; 0000 05A6                 case 0b10111111:
                 _0x18C:
000bd7 3bef      	CPI  R30,LOW(0xBF)
000bd8 e0a0      	LDI  R26,HIGH(0xBF)
000bd9 07fa      	CPC  R31,R26
000bda f429      	BRNE _0x18D
                 ; 0000 05A7                 PV = 5;
000bdb e0e5      	LDI  R30,LOW(5)
000bdc e0f0      	LDI  R31,HIGH(5)
000bdd 940e 1469 	CALL SUBOPT_0x50
                 ; 0000 05A8                 maju();
                 ; 0000 05A9                 break;
000bdf c03e      	RJMP _0x176
                 ; 0000 05AA 
                 ; 0000 05AB                 case 0b00011111:
                 _0x18D:
000be0 31ef      	CPI  R30,LOW(0x1F)
000be1 e0a0      	LDI  R26,HIGH(0x1F)
000be2 07fa      	CPC  R31,R26
000be3 f021      	BREQ _0x18F
                 ; 0000 05AC                 case 0b00111111:
000be4 33ef      	CPI  R30,LOW(0x3F)
000be5 e0a0      	LDI  R26,HIGH(0x3F)
000be6 07fa      	CPC  R31,R26
000be7 f429      	BRNE _0x190
                 _0x18F:
                 ; 0000 05AD                 PV = 6;
000be8 e0e6      	LDI  R30,LOW(6)
000be9 e0f0      	LDI  R31,HIGH(6)
000bea 940e 1469 	CALL SUBOPT_0x50
                 ; 0000 05AE                 maju();
                 ; 0000 05AF                 break;
000bec c031      	RJMP _0x176
                 ; 0000 05B0 
                 ; 0000 05B1                 case 0b01111111:        // ujung kanan
                 _0x190:
000bed 37ef      	CPI  R30,LOW(0x7F)
000bee e0a0      	LDI  R26,HIGH(0x7F)
000bef 07fa      	CPC  R31,R26
000bf0 f429      	BRNE _0x191
                 ; 0000 05B2                 PV = 7;
000bf1 e0e7      	LDI  R30,LOW(7)
000bf2 e0f0      	LDI  R31,HIGH(7)
000bf3 940e 1469 	CALL SUBOPT_0x50
                 ; 0000 05B3                 maju();
                 ; 0000 05B4                 break;
000bf5 c028      	RJMP _0x176
                 ; 0000 05B5 
                 ; 0000 05B6                 case 0b11111111:        // loss
                 _0x191:
000bf6 3fef      	CPI  R30,LOW(0xFF)
000bf7 e0a0      	LDI  R26,HIGH(0xFF)
000bf8 07fa      	CPC  R31,R26
000bf9 f521      	BRNE _0x176
                 ; 0000 05B7                 if (PV < 0)
000bfa 91a0 0198 	LDS  R26,_PV+1
000bfc 23aa      	TST  R26
000bfd f452      	BRPL _0x193
                 ; 0000 05B8                 {
                 ; 0000 05B9                         // PV = -8;
                 ; 0000 05BA                         lpwm = 150;
000bfe e9e6      	LDI  R30,LOW(150)
000bff e0f0      	LDI  R31,HIGH(150)
000c00 940e 1475 	CALL SUBOPT_0x52
                 ; 0000 05BB                         rpwm = 185;
000c02 ebe9      	LDI  R30,LOW(185)
000c03 e0f0      	LDI  R31,HIGH(185)
000c04 940e 147a 	CALL SUBOPT_0x53
                 ; 0000 05BC                         bkir();
000c06 db3a      	RCALL _bkir
                 ; 0000 05BD                         goto exit;
000c07 c08c      	RJMP _0x194
                 ; 0000 05BE                 }
                 ; 0000 05BF 
                 ; 0000 05C0                 else if (PV > 0)
                 _0x193:
000c08 940e 147f 	CALL SUBOPT_0x54
000c0a 940e 15a7 	CALL __CPW02
000c0c f454      	BRGE _0x196
                 ; 0000 05C1                 {
                 ; 0000 05C2                         // PV = 8;
                 ; 0000 05C3                         lpwm = 180;
000c0d ebe4      	LDI  R30,LOW(180)
000c0e e0f0      	LDI  R31,HIGH(180)
000c0f 940e 1475 	CALL SUBOPT_0x52
                 ; 0000 05C4                         rpwm = 155;
000c11 e9eb      	LDI  R30,LOW(155)
000c12 e0f0      	LDI  R31,HIGH(155)
000c13 940e 147a 	CALL SUBOPT_0x53
                 ; 0000 05C5                         bkan();
000c15 db28      	RCALL _bkan
                 ; 0000 05C6                         goto exit;
000c16 c07d      	RJMP _0x194
                 ; 0000 05C7                 }
                 ; 0000 05C8 
                 ; 0000 05C9                 else
                 _0x196:
                 ; 0000 05CA                 {
                 ; 0000 05CB                         PV = 0;
000c17 940e 146f 	CALL SUBOPT_0x51
                 ; 0000 05CC                         lpwm = MAXPWM;
000c19 940e 1484 	CALL SUBOPT_0x55
000c1b 940e 1489 	CALL SUBOPT_0x56
                 ; 0000 05CD                         rpwm = MAXPWM;
                 ; 0000 05CE                         mundur();
000c1d db1c      	RCALL _mundur
                 ; 0000 05CF                 }
                 ; 0000 05D0         }
                 _0x176:
                 ; 0000 05D1 
                 ; 0000 05D2         error = SP - PV;
000c1e 91e0 0184 	LDS  R30,_SP
000c20 e0f0      	LDI  R31,0
000c21 940e 147f 	CALL SUBOPT_0x54
000c23 1bea      	SUB  R30,R26
000c24 0bfb      	SBC  R31,R27
000c25 93e0 0199 	STS  _error,R30
000c27 93f0 019a 	STS  _error+1,R31
                 ; 0000 05D3         P = (var_Kp * error);
000c29 940e 148c 	CALL SUBOPT_0x57
000c2b 91a0 019f 	LDS  R26,_var_Kp
000c2d 91b0 01a0 	LDS  R27,_var_Kp+1
000c2f 940e 1544 	CALL __MULW12
000c31 93e0 0191 	STS  _P,R30
000c33 93f0 0192 	STS  _P+1,R31
                 ; 0000 05D4 
                 ; 0000 05D5         I = I + error;
000c35 940e 148c 	CALL SUBOPT_0x57
000c37 91a0 0193 	LDS  R26,_I
000c39 91b0 0194 	LDS  R27,_I+1
000c3b 0fea      	ADD  R30,R26
000c3c 1ffb      	ADC  R31,R27
000c3d 93e0 0193 	STS  _I,R30
000c3f 93f0 0194 	STS  _I+1,R31
                 ; 0000 05D6         I = (I * var_Ki);
000c41 91e0 01a1 	LDS  R30,_var_Ki
000c43 91f0 01a2 	LDS  R31,_var_Ki+1
000c45 91a0 0193 	LDS  R26,_I
000c47 91b0 0194 	LDS  R27,_I+1
000c49 940e 1544 	CALL __MULW12
000c4b 93e0 0193 	STS  _I,R30
000c4d 93f0 0194 	STS  _I+1,R31
                 ; 0000 05D7 
                 ; 0000 05D8         rate = error - last_error;
000c4f 91a0 019b 	LDS  R26,_last_error
000c51 91b0 019c 	LDS  R27,_last_error+1
000c53 940e 148c 	CALL SUBOPT_0x57
000c55 1bea      	SUB  R30,R26
000c56 0bfb      	SBC  R31,R27
000c57 93e0 019d 	STS  _rate,R30
000c59 93f0 019e 	STS  _rate+1,R31
                 ; 0000 05D9         D    = (rate * var_Kd);
000c5b 91e0 01a3 	LDS  R30,_var_Kd
000c5d 91f0 01a4 	LDS  R31,_var_Kd+1
000c5f 91a0 019d 	LDS  R26,_rate
000c61 91b0 019e 	LDS  R27,_rate+1
000c63 940e 1544 	CALL __MULW12
000c65 93e0 0195 	STS  _D,R30
000c67 93f0 0196 	STS  _D+1,R31
                 ; 0000 05DA 
                 ; 0000 05DB         last_error = error;
000c69 940e 148c 	CALL SUBOPT_0x57
000c6b 93e0 019b 	STS  _last_error,R30
000c6d 93f0 019c 	STS  _last_error+1,R31
                 ; 0000 05DC 
                 ; 0000 05DD         MV = P + I + D;
000c6f 91e0 0193 	LDS  R30,_I
000c71 91f0 0194 	LDS  R31,_I+1
000c73 91a0 0191 	LDS  R26,_P
000c75 91b0 0192 	LDS  R27,_P+1
000c77 0fea      	ADD  R30,R26
000c78 1ffb      	ADC  R31,R27
000c79 91a0 0195 	LDS  R26,_D
000c7b 91b0 0196 	LDS  R27,_D+1
000c7d 0fea      	ADD  R30,R26
000c7e 1ffb      	ADC  R31,R27
000c7f 93e0 018f 	STS  _MV,R30
000c81 93f0 0190 	STS  _MV+1,R31
                 ; 0000 05DE 
                 ; 0000 05DF         rpwm = MINPWM + intervalPWM + PV;
000c83 940e 1491 	CALL SUBOPT_0x58
000c85 0fea      	ADD  R30,R26
000c86 1ffb      	ADC  R31,R27
000c87 940e 147a 	CALL SUBOPT_0x53
                 ; 0000 05E0         lpwm = MINPWM + intervalPWM - PV + diffPWM;
000c89 940e 1491 	CALL SUBOPT_0x58
000c8b 1bea      	SUB  R30,R26
000c8c 0bfb      	SBC  R31,R27
000c8d 01df      	MOVW R26,R30
000c8e 2de5      	MOV  R30,R5
000c8f e0f0      	LDI  R31,0
000c90 0fea      	ADD  R30,R26
000c91 1ffb      	ADC  R31,R27
000c92 940e 1475 	CALL SUBOPT_0x52
                 ; 0000 05E1 
                 ; 0000 05E2         exit:
                 _0x194:
                 ; 0000 05E3 
                 ; 0000 05E4         //debug pwm
                 ; 0000 05E5         sprintf(lcd,"%d   %d",lpwm, rpwm);
000c94 940e 12df 	CALL SUBOPT_0x16
                +
000c96 e0ef     +LDI R30 , LOW ( 2 * _0x0 + ( 669 ) )
000c97 e0f3     +LDI R31 , HIGH ( 2 * _0x0 + ( 669 ) )
                 	__POINTW1FN _0x0,669
000c98 93fa      	ST   -Y,R31
000c99 93ea      	ST   -Y,R30
000c9a 940e 126c 	CALL SUBOPT_0x0
000c9c 940e 1537 	CALL __CWD1
000c9e 940e 1585 	CALL __PUTPARD1
000ca0 940e 1277 	CALL SUBOPT_0x2
000ca2 940e 1537 	CALL __CWD1
000ca4 940e 1585 	CALL __PUTPARD1
000ca6 e088      	LDI  R24,8
000ca7 940e 115a 	CALL _sprintf
000ca9 962c      	ADIW R28,12
                 ; 0000 05E6         lcd_gotoxy(0, 0);
000caa 940e 1286 	CALL SUBOPT_0x4
                 ; 0000 05E7         lcd_putsf("                ");
                +
000cac e1e7     +LDI R30 , LOW ( 2 * _0x0 + ( 677 ) )
000cad e0f3     +LDI R31 , HIGH ( 2 * _0x0 + ( 677 ) )
                 	__POINTW1FN _0x0,677
000cae 940e 128b 	CALL SUBOPT_0x5
                 ; 0000 05E8         lcd_gotoxy(0, 0);
000cb0 940e 1286 	CALL SUBOPT_0x4
                 ; 0000 05E9         lcd_puts(lcd);
000cb2 940e 12df 	CALL SUBOPT_0x16
000cb4 940e 1205 	CALL _lcd_puts
                 ; 0000 05EA         delay_ms(5);
000cb6 940e 149c 	CALL SUBOPT_0x59
                 ; 0000 05EB 
                 ; 0000 05EC         /*
                 ; 0000 05ED         //debug MV
                 ; 0000 05EE         sprintf(lcd_buffer,"MV:%d",MV);
                 ; 0000 05EF         lcd_gotoxy(0,0);
                 ; 0000 05F0         lcd_putsf("                ");
                 ; 0000 05F1         lcd_gotoxy(0,0);
                 ; 0000 05F2         lcd_puts(lcd_buffer);
                 ; 0000 05F3         delay_ms(10);
                 ; 0000 05F4         */
                 ; 0000 05F5 }
000cb8 9508      	RET
                 ;
                 ;void scanSudut(void)
                 ; 0000 05F8 {
                 _scanSudut:
                 ; 0000 05F9         if(!sKa)
000cb9 9998      	SBIC 0x13,0
000cba c00f      	RJMP _0x198
                 ; 0000 05FA         {
                 ; 0000 05FB                 stop();
000cbb 940e 149f 	CALL SUBOPT_0x5A
                 ; 0000 05FC                 indikatorSudut();
                 ; 0000 05FD 
                 ; 0000 05FE                 lpwm=MAXPWM;
000cbd 940e 14a3 	CALL SUBOPT_0x5B
                 ; 0000 05FF                 rpwm=0;
000cbf 940e 134b 	CALL SUBOPT_0x2C
                 ; 0000 0600                 rotkan();
000cc1 da8f      	RCALL _rotkan
                 ; 0000 0601 
                 ; 0000 0602                 cek_sudut_Ka:
                 _0x199:
                 ; 0000 0603 
                 ; 0000 0604                 baca_sensor();
000cc2 940e 14a5 	CALL SUBOPT_0x5C
                 ; 0000 0605                 if(sensor < 255)
000cc4 f420      	BRSH _0x19A
                 ; 0000 0606                 {
                 ; 0000 0607                         delay_ms(10);
000cc5 940e 14aa 	CALL SUBOPT_0x5D
                 ; 0000 0608                         stop();
000cc7 da7a      	RCALL _stop
                 ; 0000 0609                         goto exit_sudut;
000cc8 c011      	RJMP _0x19B
                 ; 0000 060A                 }
                 ; 0000 060B 
                 ; 0000 060C                 goto cek_sudut_Ka;
                 _0x19A:
000cc9 cff8      	RJMP _0x199
                 ; 0000 060D         }
                 ; 0000 060E 
                 ; 0000 060F         if(!sKi)
                 _0x198:
000cca 9999      	SBIC 0x13,1
000ccb c00e      	RJMP _0x19C
                 ; 0000 0610         {
                 ; 0000 0611                 stop();
000ccc 940e 149f 	CALL SUBOPT_0x5A
                 ; 0000 0612                 indikatorSudut();
                 ; 0000 0613 
                 ; 0000 0614                 lpwm=0;
000cce 940e 1351 	CALL SUBOPT_0x2D
                 ; 0000 0615                 rpwm=MAXPWM;
000cd0 940e 14ad 	CALL SUBOPT_0x5E
                 ; 0000 0616                 rotkir();
                 ; 0000 0617 
                 ; 0000 0618                 cek_sudut_Ki:
                 _0x19D:
                 ; 0000 0619 
                 ; 0000 061A                 baca_sensor();
000cd2 940e 14a5 	CALL SUBOPT_0x5C
                 ; 0000 061B                 if(sensor < 255)
000cd4 f420      	BRSH _0x19E
                 ; 0000 061C                 {
                 ; 0000 061D                         delay_ms(10);
000cd5 940e 14aa 	CALL SUBOPT_0x5D
                 ; 0000 061E                         stop();
000cd7 da6a      	RCALL _stop
                 ; 0000 061F                         goto exit_sudut;
000cd8 c001      	RJMP _0x19B
                 ; 0000 0620                 }
                 ; 0000 0621 
                 ; 0000 0622                 goto cek_sudut_Ki;
                 _0x19E:
000cd9 cff8      	RJMP _0x19D
                 ; 0000 0623         }
                 ; 0000 0624 
                 ; 0000 0625         exit_sudut:
                 _0x19C:
                 _0x19B:
                 ; 0000 0626 
                 ; 0000 0627         maju();
000cda c277      	RJMP _0x2080005
                 ; 0000 0628 }
                 ;
                 ;void strategi(void)
                 ; 0000 062B {
                 _strategi:
                 ; 0000 062C         if(NoStrategi < 2)      goto level_1;
000cdb 940e 14b1 	CALL SUBOPT_0x5F
000cdd 30e2      	CPI  R30,LOW(0x2)
000cde f0f8      	BRLO _0x1A0
                 ; 0000 062D         else if(NoStrategi < 3) goto level_2;
000cdf 940e 14b1 	CALL SUBOPT_0x5F
000ce1 30e3      	CPI  R30,LOW(0x3)
000ce2 f408      	BRSH _0x1A2
000ce3 c045      	RJMP _0x1A3
                 ; 0000 062E         else if(NoStrategi < 4) goto level_3;
                 _0x1A2:
000ce4 940e 14b1 	CALL SUBOPT_0x5F
000ce6 30e4      	CPI  R30,LOW(0x4)
000ce7 f408      	BRSH _0x1A5
000ce8 c06b      	RJMP _0x1A6
                 ; 0000 062F         else if(NoStrategi < 5) goto level_4;
                 _0x1A5:
000ce9 940e 14b1 	CALL SUBOPT_0x5F
000ceb 30e5      	CPI  R30,LOW(0x5)
000cec f408      	BRSH _0x1A8
000ced c099      	RJMP _0x1A9
                 ; 0000 0630 
                 ; 0000 0631         else if(NoStrategi < 6) goto level_5;
                 _0x1A8:
000cee 940e 14b1 	CALL SUBOPT_0x5F
000cf0 30e6      	CPI  R30,LOW(0x6)
000cf1 f408      	BRSH _0x1AB
000cf2 c0c1      	RJMP _0x1AC
                 ; 0000 0632         else if(NoStrategi < 7) goto level_6;
                 _0x1AB:
000cf3 940e 14b1 	CALL SUBOPT_0x5F
000cf5 30e7      	CPI  R30,LOW(0x7)
000cf6 f408      	BRSH _0x1AE
000cf7 c0e8      	RJMP _0x1AF
                 ; 0000 0633         else if(NoStrategi < 8) goto level_7;
                 _0x1AE:
000cf8 940e 14b1 	CALL SUBOPT_0x5F
000cfa 30e8      	CPI  R30,LOW(0x8)
000cfb f408      	BRSH _0x1B1
000cfc c10f      	RJMP _0x1B2
                 ; 0000 0634         else                    goto level_8;
                 _0x1B1:
000cfd c13a      	RJMP _0x1B4
                 ; 0000 0635         level_1:
                 _0x1A0:
                 ; 0000 0636 
                 ; 0000 0637         backlight = 1;
000cfe 9ac3      	SBI  0x18,3
                 ; 0000 0638         NoStrategi = 1;
000cff e0a9      	LDI  R26,LOW(_NoStrategi)
000d00 e0b0      	LDI  R27,HIGH(_NoStrategi)
000d01 e0e1      	LDI  R30,LOW(1)
000d02 940e 14b6 	CALL SUBOPT_0x60
                 ; 0000 0639         delay_ms(50);
                 ; 0000 063A         lcd_clear();
000d04 940e 129a 	CALL SUBOPT_0x8
                 ; 0000 063B         lcd_gotoxy(0,0);
                 ; 0000 063C         lcd_putsf("  Skenario-1");
                +
000d06 e2e8     +LDI R30 , LOW ( 2 * _0x0 + ( 694 ) )
000d07 e0f3     +LDI R31 , HIGH ( 2 * _0x0 + ( 694 ) )
                 	__POINTW1FN _0x0,694
000d08 940e 128b 	CALL SUBOPT_0x5
                 ; 0000 063D         lcd_gotoxy(0,1);
000d0a 940e 12a3 	CALL SUBOPT_0xA
                 ; 0000 063E         lcd_putsf("  OK ?");
000d0c 940e 14b9 	CALL SUBOPT_0x61
                 ; 0000 063F         lcd_gotoxy(0,0);
000d0e 940e 1286 	CALL SUBOPT_0x4
                 ; 0000 0640         lcd_putchar(0);
000d10 940e 12b7 	CALL SUBOPT_0xD
                 ; 0000 0641 
                 ; 0000 0642         if(!sw_up)
000d12 9984      	SBIC 0x10,4
000d13 c003      	RJMP _0x1B7
                 ; 0000 0643         {
                 ; 0000 0644                 delay_ms(250);
000d14 940e 14bc 	CALL SUBOPT_0x62
                 ; 0000 0645                 goto level_8;
000d16 c121      	RJMP _0x1B4
                 ; 0000 0646         }
                 ; 0000 0647         if(!sw_down)
                 _0x1B7:
000d17 9986      	SBIC 0x10,6
000d18 c003      	RJMP _0x1B8
                 ; 0000 0648         {
                 ; 0000 0649                 delay_ms(250);
000d19 940e 14bc 	CALL SUBOPT_0x62
                 ; 0000 064A                 goto level_2;
000d1b c00d      	RJMP _0x1A3
                 ; 0000 064B         }
                 ; 0000 064C         if(!sw_ok)
                 _0x1B8:
000d1c 9985      	SBIC 0x10,5
000d1d c005      	RJMP _0x1B9
                 ; 0000 064D         {
                 ; 0000 064E                 delay_ms(250);
000d1e 940e 14bc 	CALL SUBOPT_0x62
                 ; 0000 064F                 backlight = 0;
000d20 98c3      	CBI  0x18,3
                 ; 0000 0650                 //cariLancipKanan();
                 ; 0000 0651                 //cariLancipKiri();
                 ; 0000 0652                 cariPerempatanKanan();
000d21 d155      	RCALL _cariPerempatanKanan
                 ; 0000 0653                 goto exit_strategi;
000d22 c141      	RJMP _0x1BC
                 ; 0000 0654         }
                 ; 0000 0655         if(!sw_cancel)
                 _0x1B9:
000d23 9983      	SBIC 0x10,3
000d24 c003      	RJMP _0x1BD
                 ; 0000 0656         {
                 ; 0000 0657                 delay_ms(250);
000d25 940e 14bc 	CALL SUBOPT_0x62
                 ; 0000 0658                 goto exit_strategi;
000d27 c13c      	RJMP _0x1BC
                 ; 0000 0659         }
                 ; 0000 065A 
                 ; 0000 065B         goto level_1;
                 _0x1BD:
000d28 cfd5      	RJMP _0x1A0
                 ; 0000 065C 
                 ; 0000 065D         level_2:
                 _0x1A3:
                 ; 0000 065E 
                 ; 0000 065F         backlight = 1;
000d29 9ac3      	SBI  0x18,3
                 ; 0000 0660         NoStrategi = 2;
000d2a e0a9      	LDI  R26,LOW(_NoStrategi)
000d2b e0b0      	LDI  R27,HIGH(_NoStrategi)
000d2c e0e2      	LDI  R30,LOW(2)
000d2d 940e 14b6 	CALL SUBOPT_0x60
                 ; 0000 0661         delay_ms(50);
                 ; 0000 0662         lcd_clear();
000d2f 940e 129a 	CALL SUBOPT_0x8
                 ; 0000 0663         lcd_gotoxy(0,0);
                 ; 0000 0664         lcd_putsf("  Skenario-2");
                +
000d31 e3ec     +LDI R30 , LOW ( 2 * _0x0 + ( 714 ) )
000d32 e0f3     +LDI R31 , HIGH ( 2 * _0x0 + ( 714 ) )
                 	__POINTW1FN _0x0,714
000d33 940e 128b 	CALL SUBOPT_0x5
                 ; 0000 0665         lcd_gotoxy(0,1);
000d35 940e 12a3 	CALL SUBOPT_0xA
                 ; 0000 0666         lcd_putsf("  OK ?");
000d37 940e 14b9 	CALL SUBOPT_0x61
                 ; 0000 0667         lcd_gotoxy(0,0);
000d39 940e 1286 	CALL SUBOPT_0x4
                 ; 0000 0668         lcd_putchar(0);
000d3b 940e 12b7 	CALL SUBOPT_0xD
                 ; 0000 0669 
                 ; 0000 066A         if(!sw_up)
000d3d 9984      	SBIC 0x10,4
000d3e c003      	RJMP _0x1C0
                 ; 0000 066B         {
                 ; 0000 066C                 delay_ms(250);
000d3f 940e 14bc 	CALL SUBOPT_0x62
                 ; 0000 066D                 goto level_1;
000d41 cfbc      	RJMP _0x1A0
                 ; 0000 066E         }
                 ; 0000 066F         if(!sw_down)
                 _0x1C0:
000d42 9986      	SBIC 0x10,6
000d43 c003      	RJMP _0x1C1
                 ; 0000 0670         {
                 ; 0000 0671                 delay_ms(250);
000d44 940e 14bc 	CALL SUBOPT_0x62
                 ; 0000 0672                 goto level_3;
000d46 c00d      	RJMP _0x1A6
                 ; 0000 0673         }
                 ; 0000 0674          if(!sw_ok)
                 _0x1C1:
000d47 9985      	SBIC 0x10,5
000d48 c005      	RJMP _0x1C2
                 ; 0000 0675         {
                 ; 0000 0676                 delay_ms(250);
000d49 940e 14bc 	CALL SUBOPT_0x62
                 ; 0000 0677                 backlight = 0;
000d4b 940e 14bf 	CALL SUBOPT_0x63
                 ; 0000 0678                 cariPerempatanKanan();
                 ; 0000 0679                 cariPerempatanKiri();
                 ; 0000 067A                 cariPerempatanKiri();
                 ; 0000 067B                 goto exit_strategi;
000d4d c116      	RJMP _0x1BC
                 ; 0000 067C         }
                 ; 0000 067D         if(!sw_cancel)
                 _0x1C2:
000d4e 9983      	SBIC 0x10,3
000d4f c003      	RJMP _0x1C5
                 ; 0000 067E         {
                 ; 0000 067F                 delay_ms(250);
000d50 940e 14bc 	CALL SUBOPT_0x62
                 ; 0000 0680                 goto exit_strategi;
000d52 c111      	RJMP _0x1BC
                 ; 0000 0681         }
                 ; 0000 0682         goto level_2;
                 _0x1C5:
000d53 cfd5      	RJMP _0x1A3
                 ; 0000 0683 
                 ; 0000 0684         level_3:
                 _0x1A6:
                 ; 0000 0685 
                 ; 0000 0686         backlight = 1;
000d54 9ac3      	SBI  0x18,3
                 ; 0000 0687         NoStrategi = 3;
000d55 e0a9      	LDI  R26,LOW(_NoStrategi)
000d56 e0b0      	LDI  R27,HIGH(_NoStrategi)
000d57 e0e3      	LDI  R30,LOW(3)
000d58 940e 14b6 	CALL SUBOPT_0x60
                 ; 0000 0688         delay_ms(50);
                 ; 0000 0689         lcd_clear();
000d5a 940e 129a 	CALL SUBOPT_0x8
                 ; 0000 068A         lcd_gotoxy(0,0);
                 ; 0000 068B         lcd_putsf("  Skenario-3");
                +
000d5c e4e9     +LDI R30 , LOW ( 2 * _0x0 + ( 727 ) )
000d5d e0f3     +LDI R31 , HIGH ( 2 * _0x0 + ( 727 ) )
                 	__POINTW1FN _0x0,727
000d5e 940e 128b 	CALL SUBOPT_0x5
                 ; 0000 068C         lcd_gotoxy(0,1);
000d60 940e 12a3 	CALL SUBOPT_0xA
                 ; 0000 068D         lcd_putsf("  OK ?");
000d62 940e 14b9 	CALL SUBOPT_0x61
                 ; 0000 068E         lcd_gotoxy(0,0);
000d64 940e 1286 	CALL SUBOPT_0x4
                 ; 0000 068F         lcd_putchar(0);
000d66 940e 12b7 	CALL SUBOPT_0xD
                 ; 0000 0690 
                 ; 0000 0691         if(!sw_up)
000d68 9984      	SBIC 0x10,4
000d69 c003      	RJMP _0x1C8
                 ; 0000 0692         {
                 ; 0000 0693                 delay_ms(250);
000d6a 940e 14bc 	CALL SUBOPT_0x62
                 ; 0000 0694                 goto level_2;
000d6c cfbc      	RJMP _0x1A3
                 ; 0000 0695         }
                 ; 0000 0696         if(!sw_down)
                 _0x1C8:
000d6d 9986      	SBIC 0x10,6
000d6e c003      	RJMP _0x1C9
                 ; 0000 0697         {
                 ; 0000 0698                 delay_ms(250);
000d6f 940e 14bc 	CALL SUBOPT_0x62
                 ; 0000 0699                 goto level_4;
000d71 c015      	RJMP _0x1A9
                 ; 0000 069A         }
                 ; 0000 069B          if(!sw_ok)
                 _0x1C9:
000d72 9985      	SBIC 0x10,5
000d73 c00d      	RJMP _0x1CA
                 ; 0000 069C         {
                 ; 0000 069D                 delay_ms(250);
000d74 940e 14bc 	CALL SUBOPT_0x62
                 ; 0000 069E                 backlight = 0;
000d76 940e 14bf 	CALL SUBOPT_0x63
                 ; 0000 069F                 cariPerempatanKanan();
                 ; 0000 06A0                 cariPerempatanKiri();
                 ; 0000 06A1                 cariPerempatanKiri();
                 ; 0000 06A2                 cariPerempatanLurus();
000d78 d137      	RCALL _cariPerempatanLurus
                 ; 0000 06A3                 cariPertigaanKanan();
000d79 d14d      	RCALL _cariPertigaanKanan
                 ; 0000 06A4                 cariPertigaanKiri();
000d7a d16a      	RCALL _cariPertigaanKiri
                 ; 0000 06A5                 cariPer3anKanan();
000d7b d185      	RCALL _cariPer3anKanan
                 ; 0000 06A6                 cariPer3anKiri();
000d7c d19f      	RCALL _cariPer3anKiri
                 ; 0000 06A7                 cariPer3anLurus();
000d7d d1b7      	RCALL _cariPer3anLurus
                 ; 0000 06A8                 cariYKanan();
000d7e d1d6      	RCALL _cariYKanan
                 ; 0000 06A9                 cariYKiri();
000d7f d1d7      	RCALL _cariYKiri
                 ; 0000 06AA                 goto exit_strategi;
000d80 c0e3      	RJMP _0x1BC
                 ; 0000 06AB         }
                 ; 0000 06AC         if(!sw_cancel)
                 _0x1CA:
000d81 9983      	SBIC 0x10,3
000d82 c003      	RJMP _0x1CD
                 ; 0000 06AD         {
                 ; 0000 06AE                 delay_ms(250);
000d83 940e 14bc 	CALL SUBOPT_0x62
                 ; 0000 06AF                 goto exit_strategi;
000d85 c0de      	RJMP _0x1BC
                 ; 0000 06B0         }
                 ; 0000 06B1         goto level_3;
                 _0x1CD:
000d86 cfcd      	RJMP _0x1A6
                 ; 0000 06B2 
                 ; 0000 06B3         level_4:
                 _0x1A9:
                 ; 0000 06B4 
                 ; 0000 06B5         backlight = 1;
000d87 9ac3      	SBI  0x18,3
                 ; 0000 06B6         NoStrategi = 4;
000d88 e0a9      	LDI  R26,LOW(_NoStrategi)
000d89 e0b0      	LDI  R27,HIGH(_NoStrategi)
000d8a e0e4      	LDI  R30,LOW(4)
000d8b 940e 14b6 	CALL SUBOPT_0x60
                 ; 0000 06B7         delay_ms(50);
                 ; 0000 06B8         lcd_clear();
000d8d 940e 129a 	CALL SUBOPT_0x8
                 ; 0000 06B9         lcd_gotoxy(0,0);
                 ; 0000 06BA         lcd_putsf("  Skenario-4");
                +
000d8f e5e6     +LDI R30 , LOW ( 2 * _0x0 + ( 740 ) )
000d90 e0f3     +LDI R31 , HIGH ( 2 * _0x0 + ( 740 ) )
                 	__POINTW1FN _0x0,740
000d91 940e 128b 	CALL SUBOPT_0x5
                 ; 0000 06BB         lcd_gotoxy(0,1);
000d93 940e 12a3 	CALL SUBOPT_0xA
                 ; 0000 06BC         lcd_putsf("  OK ?");
000d95 940e 14b9 	CALL SUBOPT_0x61
                 ; 0000 06BD         lcd_gotoxy(0,0);
000d97 940e 1286 	CALL SUBOPT_0x4
                 ; 0000 06BE         lcd_putchar(0);
000d99 940e 12b7 	CALL SUBOPT_0xD
                 ; 0000 06BF 
                 ; 0000 06C0         if(!sw_up)
000d9b 9984      	SBIC 0x10,4
000d9c c003      	RJMP _0x1D0
                 ; 0000 06C1         {
                 ; 0000 06C2                 delay_ms(250);
000d9d 940e 14bc 	CALL SUBOPT_0x62
                 ; 0000 06C3                 goto level_3;
000d9f cfb4      	RJMP _0x1A6
                 ; 0000 06C4         }
                 ; 0000 06C5         if(!sw_down)
                 _0x1D0:
000da0 9986      	SBIC 0x10,6
000da1 c003      	RJMP _0x1D1
                 ; 0000 06C6         {
                 ; 0000 06C7                 delay_ms(250);
000da2 940e 14bc 	CALL SUBOPT_0x62
                 ; 0000 06C8                 goto level_5;
000da4 c00f      	RJMP _0x1AC
                 ; 0000 06C9         }
                 ; 0000 06CA          if(!sw_ok)
                 _0x1D1:
000da5 9985      	SBIC 0x10,5
000da6 c007      	RJMP _0x1D2
                 ; 0000 06CB         {
                 ; 0000 06CC                 delay_ms(250);
000da7 940e 14bc 	CALL SUBOPT_0x62
                 ; 0000 06CD                 backlight = 0;
000da9 98c3      	CBI  0x18,3
                 ; 0000 06CE                 //cariSikuKanan();
                 ; 0000 06CF                 //cariSikuKanan();
                 ; 0000 06D0                 cariPerempatanKanan();
000daa d0cc      	RCALL _cariPerempatanKanan
                 ; 0000 06D1                 cariPerempatanKanan();
000dab 940e 14c6 	CALL SUBOPT_0x64
                 ; 0000 06D2                 cariPerempatanKiri();
                 ; 0000 06D3                 goto exit_strategi;
000dad c0b6      	RJMP _0x1BC
                 ; 0000 06D4         }
                 ; 0000 06D5         if(!sw_cancel)
                 _0x1D2:
000dae 9983      	SBIC 0x10,3
000daf c003      	RJMP _0x1D5
                 ; 0000 06D6         {
                 ; 0000 06D7                 delay_ms(250);
000db0 940e 14bc 	CALL SUBOPT_0x62
                 ; 0000 06D8                 goto exit_strategi;
000db2 c0b1      	RJMP _0x1BC
                 ; 0000 06D9         }
                 ; 0000 06DA         goto level_4;
                 _0x1D5:
000db3 cfd3      	RJMP _0x1A9
                 ; 0000 06DB 
                 ; 0000 06DC         level_5:
                 _0x1AC:
                 ; 0000 06DD 
                 ; 0000 06DE         backlight = 1;
000db4 9ac3      	SBI  0x18,3
                 ; 0000 06DF         NoStrategi = 5;
000db5 e0a9      	LDI  R26,LOW(_NoStrategi)
000db6 e0b0      	LDI  R27,HIGH(_NoStrategi)
000db7 e0e5      	LDI  R30,LOW(5)
000db8 940e 14b6 	CALL SUBOPT_0x60
                 ; 0000 06E0         delay_ms(50);
                 ; 0000 06E1         lcd_clear();
000dba 940e 129a 	CALL SUBOPT_0x8
                 ; 0000 06E2         lcd_gotoxy(0,0);
                 ; 0000 06E3         lcd_putsf("  Skenario-5");
                +
000dbc e6e3     +LDI R30 , LOW ( 2 * _0x0 + ( 753 ) )
000dbd e0f3     +LDI R31 , HIGH ( 2 * _0x0 + ( 753 ) )
                 	__POINTW1FN _0x0,753
000dbe 940e 128b 	CALL SUBOPT_0x5
                 ; 0000 06E4         lcd_gotoxy(0,1);
000dc0 940e 12a3 	CALL SUBOPT_0xA
                 ; 0000 06E5         lcd_putsf("  OK ?");
000dc2 940e 14b9 	CALL SUBOPT_0x61
                 ; 0000 06E6         lcd_gotoxy(0,0);
000dc4 940e 1286 	CALL SUBOPT_0x4
                 ; 0000 06E7         lcd_putchar(0);
000dc6 940e 12b7 	CALL SUBOPT_0xD
                 ; 0000 06E8 
                 ; 0000 06E9         if(!sw_up)
000dc8 9984      	SBIC 0x10,4
000dc9 c003      	RJMP _0x1D8
                 ; 0000 06EA         {
                 ; 0000 06EB                 delay_ms(250);
000dca 940e 14bc 	CALL SUBOPT_0x62
                 ; 0000 06EC                 goto level_4;
000dcc cfba      	RJMP _0x1A9
                 ; 0000 06ED         }
                 ; 0000 06EE         if(!sw_down)
                 _0x1D8:
000dcd 9986      	SBIC 0x10,6
000dce c003      	RJMP _0x1D9
                 ; 0000 06EF         {
                 ; 0000 06F0                 delay_ms(250);
000dcf 940e 14bc 	CALL SUBOPT_0x62
                 ; 0000 06F1                 goto level_6;
000dd1 c00e      	RJMP _0x1AF
                 ; 0000 06F2         }
                 ; 0000 06F3          if(!sw_ok)
                 _0x1D9:
000dd2 9985      	SBIC 0x10,5
000dd3 c006      	RJMP _0x1DA
                 ; 0000 06F4         {
                 ; 0000 06F5                 delay_ms(250);
000dd4 940e 14bc 	CALL SUBOPT_0x62
                 ; 0000 06F6                 backlight = 0;
000dd6 98c3      	CBI  0x18,3
                 ; 0000 06F7                 //cariSikuKanan();
                 ; 0000 06F8                 //cariSikuKiri();
                 ; 0000 06F9                 cariPerempatanKanan();
000dd7 940e 14c6 	CALL SUBOPT_0x64
                 ; 0000 06FA                 cariPerempatanKiri();
                 ; 0000 06FB                 goto exit_strategi;
000dd9 c08a      	RJMP _0x1BC
                 ; 0000 06FC         }
                 ; 0000 06FD         if(!sw_cancel)
                 _0x1DA:
000dda 9983      	SBIC 0x10,3
000ddb c003      	RJMP _0x1DD
                 ; 0000 06FE         {
                 ; 0000 06FF                 delay_ms(250);
000ddc 940e 14bc 	CALL SUBOPT_0x62
                 ; 0000 0700                 goto exit_strategi;
000dde c085      	RJMP _0x1BC
                 ; 0000 0701         }
                 ; 0000 0702         goto level_5;
                 _0x1DD:
000ddf cfd4      	RJMP _0x1AC
                 ; 0000 0703 
                 ; 0000 0704         level_6:
                 _0x1AF:
                 ; 0000 0705 
                 ; 0000 0706         backlight = 1;
000de0 9ac3      	SBI  0x18,3
                 ; 0000 0707         NoStrategi = 6;
000de1 e0a9      	LDI  R26,LOW(_NoStrategi)
000de2 e0b0      	LDI  R27,HIGH(_NoStrategi)
000de3 e0e6      	LDI  R30,LOW(6)
000de4 940e 14b6 	CALL SUBOPT_0x60
                 ; 0000 0708         delay_ms(50);
                 ; 0000 0709         lcd_clear();
000de6 940e 129a 	CALL SUBOPT_0x8
                 ; 0000 070A         lcd_gotoxy(0,0);
                 ; 0000 070B         lcd_putsf("  Skenario-6");
                +
000de8 e7e0     +LDI R30 , LOW ( 2 * _0x0 + ( 766 ) )
000de9 e0f3     +LDI R31 , HIGH ( 2 * _0x0 + ( 766 ) )
                 	__POINTW1FN _0x0,766
000dea 940e 128b 	CALL SUBOPT_0x5
                 ; 0000 070C         lcd_gotoxy(0,1);
000dec 940e 12a3 	CALL SUBOPT_0xA
                 ; 0000 070D         lcd_putsf("  OK ?");
000dee 940e 14b9 	CALL SUBOPT_0x61
                 ; 0000 070E         lcd_gotoxy(0,0);
000df0 940e 1286 	CALL SUBOPT_0x4
                 ; 0000 070F         lcd_putchar(0);
000df2 940e 12b7 	CALL SUBOPT_0xD
                 ; 0000 0710 
                 ; 0000 0711         if(!sw_up)
000df4 9984      	SBIC 0x10,4
000df5 c003      	RJMP _0x1E0
                 ; 0000 0712         {
                 ; 0000 0713                 delay_ms(250);
000df6 940e 14bc 	CALL SUBOPT_0x62
                 ; 0000 0714                 goto level_5;
000df8 cfbb      	RJMP _0x1AC
                 ; 0000 0715         }
                 ; 0000 0716         if(!sw_down)
                 _0x1E0:
000df9 9986      	SBIC 0x10,6
000dfa c003      	RJMP _0x1E1
                 ; 0000 0717         {
                 ; 0000 0718                 delay_ms(250);
000dfb 940e 14bc 	CALL SUBOPT_0x62
                 ; 0000 0719                 goto level_7;
000dfd c00e      	RJMP _0x1B2
                 ; 0000 071A         }
                 ; 0000 071B          if(!sw_ok)
                 _0x1E1:
000dfe 9985      	SBIC 0x10,5
000dff c006      	RJMP _0x1E2
                 ; 0000 071C         {
                 ; 0000 071D                 delay_ms(250);
000e00 940e 14bc 	CALL SUBOPT_0x62
                 ; 0000 071E                 backlight = 0;
000e02 98c3      	CBI  0x18,3
                 ; 0000 071F                 //cariSikuKanan();
                 ; 0000 0720                 //cariSikuKiri();
                 ; 0000 0721                 cariPerempatanKanan();
000e03 940e 14c6 	CALL SUBOPT_0x64
                 ; 0000 0722                 cariPerempatanKiri();
                 ; 0000 0723                 goto exit_strategi;
000e05 c05e      	RJMP _0x1BC
                 ; 0000 0724         }
                 ; 0000 0725         if(!sw_cancel)
                 _0x1E2:
000e06 9983      	SBIC 0x10,3
000e07 c003      	RJMP _0x1E5
                 ; 0000 0726         {
                 ; 0000 0727                 delay_ms(250);
000e08 940e 14bc 	CALL SUBOPT_0x62
                 ; 0000 0728                 goto exit_strategi;
000e0a c059      	RJMP _0x1BC
                 ; 0000 0729         }
                 ; 0000 072A         goto level_6;
                 _0x1E5:
000e0b cfd4      	RJMP _0x1AF
                 ; 0000 072B 
                 ; 0000 072C         level_7:
                 _0x1B2:
                 ; 0000 072D 
                 ; 0000 072E         backlight = 1;
000e0c 9ac3      	SBI  0x18,3
                 ; 0000 072F         NoStrategi = 7;
000e0d e0a9      	LDI  R26,LOW(_NoStrategi)
000e0e e0b0      	LDI  R27,HIGH(_NoStrategi)
000e0f e0e7      	LDI  R30,LOW(7)
000e10 940e 14b6 	CALL SUBOPT_0x60
                 ; 0000 0730         delay_ms(50);
                 ; 0000 0731         lcd_clear();
000e12 940e 129a 	CALL SUBOPT_0x8
                 ; 0000 0732         lcd_gotoxy(0,0);
                 ; 0000 0733         lcd_putsf("  Skenario-7");
                +
000e14 e7ed     +LDI R30 , LOW ( 2 * _0x0 + ( 779 ) )
000e15 e0f3     +LDI R31 , HIGH ( 2 * _0x0 + ( 779 ) )
                 	__POINTW1FN _0x0,779
000e16 940e 128b 	CALL SUBOPT_0x5
                 ; 0000 0734         lcd_gotoxy(0,1);
000e18 940e 12a3 	CALL SUBOPT_0xA
                 ; 0000 0735         lcd_putsf("  OK ?");
000e1a 940e 14b9 	CALL SUBOPT_0x61
                 ; 0000 0736         lcd_gotoxy(0,0);
000e1c 940e 1286 	CALL SUBOPT_0x4
                 ; 0000 0737         lcd_putchar(0);
000e1e 940e 12b7 	CALL SUBOPT_0xD
                 ; 0000 0738 
                 ; 0000 0739         if(!sw_up)
000e20 9984      	SBIC 0x10,4
000e21 c003      	RJMP _0x1E8
                 ; 0000 073A         {
                 ; 0000 073B                 delay_ms(250);
000e22 940e 14bc 	CALL SUBOPT_0x62
                 ; 0000 073C                 goto level_6;
000e24 cfbb      	RJMP _0x1AF
                 ; 0000 073D         }
                 ; 0000 073E         if(!sw_down)
                 _0x1E8:
000e25 9986      	SBIC 0x10,6
000e26 c003      	RJMP _0x1E9
                 ; 0000 073F         {
                 ; 0000 0740                 delay_ms(250);
000e27 940e 14bc 	CALL SUBOPT_0x62
                 ; 0000 0741                 goto level_8;
000e29 c00e      	RJMP _0x1B4
                 ; 0000 0742         }
                 ; 0000 0743          if(!sw_ok)
                 _0x1E9:
000e2a 9985      	SBIC 0x10,5
000e2b c006      	RJMP _0x1EA
                 ; 0000 0744         {
                 ; 0000 0745                 delay_ms(250);
000e2c 940e 14bc 	CALL SUBOPT_0x62
                 ; 0000 0746                 backlight = 0;
000e2e 98c3      	CBI  0x18,3
                 ; 0000 0747                 //cariSikuKanan();
                 ; 0000 0748                 //cariSikuKiri();
                 ; 0000 0749                 cariPerempatanKanan();
000e2f 940e 14c6 	CALL SUBOPT_0x64
                 ; 0000 074A                 cariPerempatanKiri();
                 ; 0000 074B                 goto exit_strategi;
000e31 c032      	RJMP _0x1BC
                 ; 0000 074C         }
                 ; 0000 074D         if(!sw_cancel)
                 _0x1EA:
000e32 9983      	SBIC 0x10,3
000e33 c003      	RJMP _0x1ED
                 ; 0000 074E         {
                 ; 0000 074F                 delay_ms(250);
000e34 940e 14bc 	CALL SUBOPT_0x62
                 ; 0000 0750                 goto exit_strategi;
000e36 c02d      	RJMP _0x1BC
                 ; 0000 0751         }
                 ; 0000 0752         goto level_7;
                 _0x1ED:
000e37 cfd4      	RJMP _0x1B2
                 ; 0000 0753 
                 ; 0000 0754         level_8:
                 _0x1B4:
                 ; 0000 0755 
                 ; 0000 0756         backlight = 1;
000e38 9ac3      	SBI  0x18,3
                 ; 0000 0757         NoStrategi = 8;
000e39 e0a9      	LDI  R26,LOW(_NoStrategi)
000e3a e0b0      	LDI  R27,HIGH(_NoStrategi)
000e3b e0e8      	LDI  R30,LOW(8)
000e3c 940e 14b6 	CALL SUBOPT_0x60
                 ; 0000 0758         delay_ms(50);
                 ; 0000 0759         lcd_clear();
000e3e 940e 129a 	CALL SUBOPT_0x8
                 ; 0000 075A         lcd_gotoxy(0,0);
                 ; 0000 075B         lcd_putsf("  Skenario-8");
                +
000e40 e8ea     +LDI R30 , LOW ( 2 * _0x0 + ( 792 ) )
000e41 e0f3     +LDI R31 , HIGH ( 2 * _0x0 + ( 792 ) )
                 	__POINTW1FN _0x0,792
000e42 940e 128b 	CALL SUBOPT_0x5
                 ; 0000 075C         lcd_gotoxy(0,1);
000e44 940e 12a3 	CALL SUBOPT_0xA
                 ; 0000 075D         lcd_putsf("  OK ?");
000e46 940e 14b9 	CALL SUBOPT_0x61
                 ; 0000 075E         lcd_gotoxy(0,0);
000e48 940e 1286 	CALL SUBOPT_0x4
                 ; 0000 075F         lcd_putchar(0);
000e4a 940e 12b7 	CALL SUBOPT_0xD
                 ; 0000 0760 
                 ; 0000 0761         if(!sw_up)
000e4c 9984      	SBIC 0x10,4
000e4d c003      	RJMP _0x1F0
                 ; 0000 0762         {
                 ; 0000 0763                 delay_ms(250);
000e4e 940e 14bc 	CALL SUBOPT_0x62
                 ; 0000 0764                 goto level_7;
000e50 cfbb      	RJMP _0x1B2
                 ; 0000 0765         }
                 ; 0000 0766         if(!sw_down)
                 _0x1F0:
000e51 9986      	SBIC 0x10,6
000e52 c003      	RJMP _0x1F1
                 ; 0000 0767         {
                 ; 0000 0768                 delay_ms(250);
000e53 940e 14bc 	CALL SUBOPT_0x62
                 ; 0000 0769                 goto level_1;
000e55 cea8      	RJMP _0x1A0
                 ; 0000 076A         }
                 ; 0000 076B          if(!sw_ok)
                 _0x1F1:
000e56 9985      	SBIC 0x10,5
000e57 c006      	RJMP _0x1F2
                 ; 0000 076C         {
                 ; 0000 076D                 delay_ms(250);
000e58 940e 14bc 	CALL SUBOPT_0x62
                 ; 0000 076E                 backlight = 0;
000e5a 98c3      	CBI  0x18,3
                 ; 0000 076F                 //cariSikuKanan();
                 ; 0000 0770                 //cariSikuKiri();
                 ; 0000 0771                 cariPerempatanKanan();
000e5b 940e 14c6 	CALL SUBOPT_0x64
                 ; 0000 0772                 cariPerempatanKiri();
                 ; 0000 0773                 goto exit_strategi;
000e5d c006      	RJMP _0x1BC
                 ; 0000 0774         }
                 ; 0000 0775         if(!sw_cancel)
                 _0x1F2:
000e5e 9983      	SBIC 0x10,3
000e5f c003      	RJMP _0x1F5
                 ; 0000 0776         {
                 ; 0000 0777                 delay_ms(250);
000e60 940e 14bc 	CALL SUBOPT_0x62
                 ; 0000 0778                 goto exit_strategi;
000e62 c001      	RJMP _0x1BC
                 ; 0000 0779         }
                 ; 0000 077A         goto level_8;
                 _0x1F5:
000e63 cfd4      	RJMP _0x1B4
                 ; 0000 077B 
                 ; 0000 077C         exit_strategi:
                 _0x1BC:
                 ; 0000 077D         lcd_clear();
000e64 940e 11d8 	CALL _lcd_clear
                 ; 0000 077E         backlight = 0;
000e66 c00e      	RJMP _0x2080007
                 ; 0000 077F }
                 ;
                 ;void indikatorSudut(void)
                 ; 0000 0782 {
                 _indikatorSudut:
                 ; 0000 0783         backlight = 1;
000e67 c008      	RJMP _0x2080006
                 ; 0000 0784         delay_ms(100);
                 ; 0000 0785         backlight = 0;
                 ; 0000 0786 }
                 ;
                 ;void indikatorPerempatan(void)
                 ; 0000 0789 {
                 _indikatorPerempatan:
                 ; 0000 078A         backlight = 1;
000e68 9ac3      	SBI  0x18,3
                 ; 0000 078B         delay_ms(100);
000e69 e6e4      	LDI  R30,LOW(100)
000e6a e0f0      	LDI  R31,HIGH(100)
000e6b 940e 1465 	CALL SUBOPT_0x4F
                 ; 0000 078C         backlight = 0;
000e6d 98c3      	CBI  0x18,3
                 ; 0000 078D         delay_ms(150);
000e6e 940e 129d 	CALL SUBOPT_0x9
                 ; 0000 078E         backlight = 1;
                 _0x2080006:
000e70 9ac3      	SBI  0x18,3
                 ; 0000 078F         delay_ms(100);
000e71 e6e4      	LDI  R30,LOW(100)
000e72 e0f0      	LDI  R31,HIGH(100)
000e73 940e 1465 	CALL SUBOPT_0x4F
                 ; 0000 0790         backlight = 0;
                 _0x2080007:
000e75 98c3      	CBI  0x18,3
                 ; 0000 0791 }
000e76 9508      	RET
                 ;
                 ;/*
                 ;void cariLancipKiri(void)
                 ;{
                 ;        lanKi:
                 ;
                 ;        maju();
                 ;        displaySensorBit();
                 ;        scanBlackLine();
                 ;        scanSudut();
                 ;        if(!sKi)
                 ;        {
                 ;                stop();
                 ;                indikatorSudut();
                 ;
                 ;                cek_lanKi:
                 ;
                 ;                lpwm=0;
                 ;                rpwm=MAXPWM / 2;
                 ;                rotkir();
                 ;                baca_sensor();
                 ;
                 ;                if(sensor < 255)
                 ;                {
                 ;                        delay_ms(50);
                 ;                        stop();
                 ;                        goto exitLanKi;
                 ;                }
                 ;
                 ;                goto cek_lanKi;
                 ;        }
                 ;        goto lanKi;
                 ;
                 ;        exitLanKi:
                 ;        maju();
                 ;}
                 ;
                 ;void cariSikuKiri(void)
                 ;{
                 ;        cariLancipKiri();
                 ;}
                 ;
                 ;void cariLancipKanan(void)
                 ;{
                 ;        lanKa:
                 ;
                 ;        maju();
                 ;        displaySensorBit();
                 ;        scanBlackLine();
                 ;        scanSudut();
                 ;        if(!sKa)
                 ;        {
                 ;                stop();
                 ;                indikatorSudut();
                 ;
                 ;                cek_lanKa:
                 ;
                 ;                rpwm=0;
                 ;                lpwm=MAXPWM / 2;
                 ;                rotkan();
                 ;                baca_sensor();
                 ;
                 ;                if(sensor < 255)
                 ;                {
                 ;                        delay_ms(50);
                 ;                        stop();
                 ;                        goto exitLanKa;
                 ;                }
                 ;
                 ;                goto cek_lanKa;
                 ;        }
                 ;        goto lanKa;
                 ;
                 ;        exitLanKa:
                 ;        maju();
                 ;}
                 ;
                 ;void cariSikuKanan(void)
                 ;{
                 ;        cariLancipKanan();
                 ;}
                 ;*/
                 ;
                 ;/////////////////////////////////
                 ;
                 ;/*
                 ;                |
                 ;                |
                 ;                |
                 ;                |
                 ;                |
                 ;---------------------------------
                 ;                |
                 ;                |
                 ;                |
                 ;                |
                 ;                |
                 ;*/
                 ;
                 ;void cariPerempatanKanan(void)
                 ; 0000 07F6 {
                 _cariPerempatanKanan:
                 ; 0000 07F7         PerKa :
                 _0x204:
                 ; 0000 07F8 
                 ; 0000 07F9         maju();
000e77 940e 14ca 	CALL SUBOPT_0x65
                 ; 0000 07FA         displaySensorBit();
                 ; 0000 07FB         scanBlackLine();
                 ; 0000 07FC         scanSudut();
                 ; 0000 07FD         if((!sKa) && (!sKi) &&  (sensor<255))
000e79 9998      	SBIC 0x13,0
000e7a c005      	RJMP _0x206
000e7b 9999      	SBIC 0x13,1
000e7c c003      	RJMP _0x206
000e7d efef      	LDI  R30,LOW(255)
000e7e 169e      	CP   R9,R30
000e7f f008      	BRLO _0x207
                 _0x206:
000e80 c011      	RJMP _0x205
                 _0x207:
                 ; 0000 07FE         {
                 ; 0000 07FF                 stop();
000e81 940e 14d2 	CALL SUBOPT_0x66
                 ; 0000 0800                 indikatorPerempatan();
                 ; 0000 0801 
                 ; 0000 0802                 rpwm=0;
000e83 940e 134b 	CALL SUBOPT_0x2C
                 ; 0000 0803                 lpwm=MAXPWM;
000e85 940e 14a3 	CALL SUBOPT_0x5B
                 ; 0000 0804                 rotkan();
000e87 d8c9      	RCALL _rotkan
                 ; 0000 0805                 delay_ms(5);
000e88 940e 149c 	CALL SUBOPT_0x59
                 ; 0000 0806 
                 ; 0000 0807                 cek_perKa:
                 _0x208:
                 ; 0000 0808 
                 ; 0000 0809                 baca_sensor();
000e8a 940e 14a5 	CALL SUBOPT_0x5C
                 ; 0000 080A                 if(sensor < 255)
000e8c f420      	BRSH _0x209
                 ; 0000 080B                 {
                 ; 0000 080C                         delay_ms(10);
000e8d 940e 14aa 	CALL SUBOPT_0x5D
                 ; 0000 080D                         stop();
000e8f d8b2      	RCALL _stop
                 ; 0000 080E                         goto exitPerKa;
000e90 c002      	RJMP _0x20A
                 ; 0000 080F                 }
                 ; 0000 0810 
                 ; 0000 0811                 goto cek_perKa;
                 _0x209:
000e91 cff8      	RJMP _0x208
                 ; 0000 0812         }
                 ; 0000 0813 
                 ; 0000 0814         goto PerKa;
                 _0x205:
000e92 cfe4      	RJMP _0x204
                 ; 0000 0815 
                 ; 0000 0816         exitPerKa:
                 _0x20A:
                 ; 0000 0817         maju();
000e93 c0be      	RJMP _0x2080005
                 ; 0000 0818 }
                 ;
                 ;void cariPerempatanKiri(void)
                 ; 0000 081B {
                 _cariPerempatanKiri:
                 ; 0000 081C         PerKi :
                 _0x20B:
                 ; 0000 081D 
                 ; 0000 081E         maju();
000e94 940e 14ca 	CALL SUBOPT_0x65
                 ; 0000 081F         displaySensorBit();
                 ; 0000 0820         scanBlackLine();
                 ; 0000 0821         scanSudut();
                 ; 0000 0822         if((!sKa) && (!sKi) && (sensor<255))
000e96 9998      	SBIC 0x13,0
000e97 c005      	RJMP _0x20D
000e98 9999      	SBIC 0x13,1
000e99 c003      	RJMP _0x20D
000e9a efef      	LDI  R30,LOW(255)
000e9b 169e      	CP   R9,R30
000e9c f008      	BRLO _0x20E
                 _0x20D:
000e9d c010      	RJMP _0x20C
                 _0x20E:
                 ; 0000 0823         {
                 ; 0000 0824                 stop();
000e9e 940e 14d2 	CALL SUBOPT_0x66
                 ; 0000 0825                 indikatorPerempatan();
                 ; 0000 0826 
                 ; 0000 0827                 lpwm=0;
000ea0 940e 1351 	CALL SUBOPT_0x2D
                 ; 0000 0828                 rpwm=MAXPWM;
000ea2 940e 14ad 	CALL SUBOPT_0x5E
                 ; 0000 0829                 rotkir();
                 ; 0000 082A                 delay_ms(5);
000ea4 940e 149c 	CALL SUBOPT_0x59
                 ; 0000 082B 
                 ; 0000 082C                 cek_perKi:
                 _0x20F:
                 ; 0000 082D 
                 ; 0000 082E                 baca_sensor();
000ea6 940e 14a5 	CALL SUBOPT_0x5C
                 ; 0000 082F                 if(sensor < 255)
000ea8 f420      	BRSH _0x210
                 ; 0000 0830                 {
                 ; 0000 0831                         delay_ms(10);
000ea9 940e 14aa 	CALL SUBOPT_0x5D
                 ; 0000 0832                         stop();
000eab d896      	RCALL _stop
                 ; 0000 0833                         goto exitPerKi;
000eac c002      	RJMP _0x211
                 ; 0000 0834                 }
                 ; 0000 0835 
                 ; 0000 0836                 goto cek_perKi;
                 _0x210:
000ead cff8      	RJMP _0x20F
                 ; 0000 0837         }
                 ; 0000 0838 
                 ; 0000 0839         goto PerKi;
                 _0x20C:
000eae cfe5      	RJMP _0x20B
                 ; 0000 083A 
                 ; 0000 083B         exitPerKi:
                 _0x211:
                 ; 0000 083C         maju();
000eaf c0a2      	RJMP _0x2080005
                 ; 0000 083D }
                 ;
                 ;void cariPerempatanLurus(void)
                 ; 0000 0840 {
                 _cariPerempatanLurus:
                 ; 0000 0841         PerLu :
                 _0x212:
                 ; 0000 0842 
                 ; 0000 0843         maju();
000eb0 940e 14ca 	CALL SUBOPT_0x65
                 ; 0000 0844         displaySensorBit();
                 ; 0000 0845         scanBlackLine();
                 ; 0000 0846         scanSudut();
                 ; 0000 0847         if((!sKa) && (!sKi) && (sensor<255))
000eb2 9998      	SBIC 0x13,0
000eb3 c005      	RJMP _0x214
000eb4 9999      	SBIC 0x13,1
000eb5 c003      	RJMP _0x214
000eb6 efef      	LDI  R30,LOW(255)
000eb7 169e      	CP   R9,R30
000eb8 f008      	BRLO _0x215
                 _0x214:
000eb9 c00b      	RJMP _0x213
                 _0x215:
                 ; 0000 0848         {
                 ; 0000 0849                 stop();
000eba 940e 14d2 	CALL SUBOPT_0x66
                 ; 0000 084A                 indikatorPerempatan();
                 ; 0000 084B 
                 ; 0000 084C                 lpwm=MAXPWM;
000ebc 940e 1484 	CALL SUBOPT_0x55
000ebe 940e 1489 	CALL SUBOPT_0x56
                 ; 0000 084D                 rpwm=MAXPWM;
                 ; 0000 084E                 maju();
000ec0 d875      	RCALL _maju
                 ; 0000 084F                 delay_ms(10);
000ec1 940e 14aa 	CALL SUBOPT_0x5D
                 ; 0000 0850                 stop();
000ec3 d87e      	RCALL _stop
                 ; 0000 0851 
                 ; 0000 0852                 goto exitPerLu;
000ec4 c001      	RJMP _0x216
                 ; 0000 0853         }
                 ; 0000 0854 
                 ; 0000 0855         goto PerLu;
                 _0x213:
000ec5 cfea      	RJMP _0x212
                 ; 0000 0856 
                 ; 0000 0857         exitPerLu:
                 _0x216:
                 ; 0000 0858         maju();
000ec6 c08b      	RJMP _0x2080005
                 ; 0000 0859 }
                 ;
                 ;/////////////////////////////////
                 ;
                 ;/*
                 ;----------------------------------
                 ;                |
                 ;                |
                 ;                |
                 ;                |
                 ;                |
                 ;                |
                 ;                |
                 ;*/
                 ;
                 ;void cariPertigaanKanan(void)
                 ; 0000 0869 {
                 _cariPertigaanKanan:
                 ; 0000 086A         tigaKa:
                 _0x217:
                 ; 0000 086B 
                 ; 0000 086C         maju();
000ec7 940e 14ca 	CALL SUBOPT_0x65
                 ; 0000 086D         displaySensorBit();
                 ; 0000 086E         scanBlackLine();
                 ; 0000 086F         scanSudut();
                 ; 0000 0870         if((!sKa) && (!sKi) && (sensor=255))
000ec9 9998      	SBIC 0x13,0
000eca c006      	RJMP _0x219
000ecb 9999      	SBIC 0x13,1
000ecc c004      	RJMP _0x219
000ecd efef      	LDI  R30,LOW(255)
000ece 2e9e      	MOV  R9,R30
000ecf 30e0      	CPI  R30,0
000ed0 f409      	BRNE _0x21A
                 _0x219:
000ed1 c011      	RJMP _0x218
                 _0x21A:
                 ; 0000 0871         {
                 ; 0000 0872                 stop();
000ed2 940e 14d2 	CALL SUBOPT_0x66
                 ; 0000 0873                 indikatorPerempatan();
                 ; 0000 0874 
                 ; 0000 0875                 lpwm=MAXPWM;
000ed4 940e 14a3 	CALL SUBOPT_0x5B
                 ; 0000 0876                 rpwm=0;
000ed6 940e 134b 	CALL SUBOPT_0x2C
                 ; 0000 0877                 maju();
000ed8 d85d      	RCALL _maju
                 ; 0000 0878                 delay_ms(5);
000ed9 940e 149c 	CALL SUBOPT_0x59
                 ; 0000 0879 
                 ; 0000 087A                 cek_tigaKa:
                 _0x21B:
                 ; 0000 087B 
                 ; 0000 087C                 baca_sensor();
000edb 940e 14a5 	CALL SUBOPT_0x5C
                 ; 0000 087D                 if(sensor < 255)
000edd f420      	BRSH _0x21C
                 ; 0000 087E                 {
                 ; 0000 087F                         delay_ms(10);
000ede 940e 14aa 	CALL SUBOPT_0x5D
                 ; 0000 0880                         stop();
000ee0 d861      	RCALL _stop
                 ; 0000 0881                         goto exitTigaKa;
000ee1 c002      	RJMP _0x21D
                 ; 0000 0882                 }
                 ; 0000 0883 
                 ; 0000 0884                 goto cek_tigaKa;
                 _0x21C:
000ee2 cff8      	RJMP _0x21B
                 ; 0000 0885         }
                 ; 0000 0886 
                 ; 0000 0887         goto tigaKa;
                 _0x218:
000ee3 cfe3      	RJMP _0x217
                 ; 0000 0888 
                 ; 0000 0889         exitTigaKa:
                 _0x21D:
                 ; 0000 088A         maju();
000ee4 c06d      	RJMP _0x2080005
                 ; 0000 088B }
                 ;
                 ;void cariPertigaanKiri(void)
                 ; 0000 088E {
                 _cariPertigaanKiri:
                 ; 0000 088F         tigaKi:
                 _0x21E:
                 ; 0000 0890 
                 ; 0000 0891         maju();
000ee5 940e 14ca 	CALL SUBOPT_0x65
                 ; 0000 0892         displaySensorBit();
                 ; 0000 0893         scanBlackLine();
                 ; 0000 0894         scanSudut();
                 ; 0000 0895         if((!sKa) && (!sKi) && (sensor=255))
000ee7 9998      	SBIC 0x13,0
000ee8 c006      	RJMP _0x220
000ee9 9999      	SBIC 0x13,1
000eea c004      	RJMP _0x220
000eeb efef      	LDI  R30,LOW(255)
000eec 2e9e      	MOV  R9,R30
000eed 30e0      	CPI  R30,0
000eee f409      	BRNE _0x221
                 _0x220:
000eef c00f      	RJMP _0x21F
                 _0x221:
                 ; 0000 0896         {
                 ; 0000 0897                 stop();
000ef0 940e 14d2 	CALL SUBOPT_0x66
                 ; 0000 0898                 indikatorPerempatan();
                 ; 0000 0899 
                 ; 0000 089A                 rpwm=MAXPWM;
000ef2 940e 14d6 	CALL SUBOPT_0x67
                 ; 0000 089B                 lpwm=0;
                 ; 0000 089C                 maju();
000ef4 d841      	RCALL _maju
                 ; 0000 089D                 delay_ms(5);
000ef5 940e 149c 	CALL SUBOPT_0x59
                 ; 0000 089E 
                 ; 0000 089F                 cek_tigaKi:
                 _0x222:
                 ; 0000 08A0 
                 ; 0000 08A1                 baca_sensor();
000ef7 940e 14a5 	CALL SUBOPT_0x5C
                 ; 0000 08A2                 if(sensor < 255)
000ef9 f420      	BRSH _0x223
                 ; 0000 08A3                 {
                 ; 0000 08A4                         delay_ms(10);
000efa 940e 14aa 	CALL SUBOPT_0x5D
                 ; 0000 08A5                         stop();
000efc d845      	RCALL _stop
                 ; 0000 08A6                         goto exitTigaKi;
000efd c002      	RJMP _0x224
                 ; 0000 08A7                 }
                 ; 0000 08A8 
                 ; 0000 08A9                 goto cek_tigaKi;
                 _0x223:
000efe cff8      	RJMP _0x222
                 ; 0000 08AA         }
                 ; 0000 08AB 
                 ; 0000 08AC         goto tigaKi;
                 _0x21F:
000eff cfe5      	RJMP _0x21E
                 ; 0000 08AD 
                 ; 0000 08AE         exitTigaKi:
                 _0x224:
                 ; 0000 08AF         maju();
000f00 c051      	RJMP _0x2080005
                 ; 0000 08B0 }
                 ;
                 ;/*
                 ;                |
                 ;                |
                 ;                |
                 ;                |
                 ;                |
                 ;                |------------------
                 ;                |
                 ;                |
                 ;                |
                 ;                |
                 ;                |
                 ;*/
                 ;
                 ;void cariPer3anKanan(void)
                 ; 0000 08C1 {
                 _cariPer3anKanan:
                 ; 0000 08C2         p3Ka:
                 _0x225:
                 ; 0000 08C3 
                 ; 0000 08C4         maju();
000f01 940e 14ca 	CALL SUBOPT_0x65
                 ; 0000 08C5         displaySensorBit();
                 ; 0000 08C6         scanBlackLine();
                 ; 0000 08C7         scanSudut();
                 ; 0000 08C8         if((!sKa) && (sensor<255))
000f03 9998      	SBIC 0x13,0
000f04 c003      	RJMP _0x227
000f05 efef      	LDI  R30,LOW(255)
000f06 169e      	CP   R9,R30
000f07 f008      	BRLO _0x228
                 _0x227:
000f08 c011      	RJMP _0x226
                 _0x228:
                 ; 0000 08C9         {
                 ; 0000 08CA                 stop();
000f09 940e 149f 	CALL SUBOPT_0x5A
                 ; 0000 08CB                 indikatorSudut();
                 ; 0000 08CC 
                 ; 0000 08CD                 lpwm=MAXPWM;
000f0b 940e 14a3 	CALL SUBOPT_0x5B
                 ; 0000 08CE                 rpwm=0;
000f0d 940e 134b 	CALL SUBOPT_0x2C
                 ; 0000 08CF                 maju();
000f0f d826      	RCALL _maju
                 ; 0000 08D0                 delay_ms(50);
000f10 940e 1345 	CALL SUBOPT_0x2B
                 ; 0000 08D1 
                 ; 0000 08D2                 cek_p3Ka:
                 _0x229:
                 ; 0000 08D3 
                 ; 0000 08D4                 baca_sensor();
000f12 940e 14a5 	CALL SUBOPT_0x5C
                 ; 0000 08D5                 if(sensor < 255)
000f14 f420      	BRSH _0x22A
                 ; 0000 08D6                 {
                 ; 0000 08D7                         delay_ms(10);
000f15 940e 14aa 	CALL SUBOPT_0x5D
                 ; 0000 08D8                         stop();
000f17 d82a      	RCALL _stop
                 ; 0000 08D9                         goto exitp3Ka;
000f18 c002      	RJMP _0x22B
                 ; 0000 08DA                 }
                 ; 0000 08DB 
                 ; 0000 08DC                 goto cek_p3Ka;
                 _0x22A:
000f19 cff8      	RJMP _0x229
                 ; 0000 08DD         }
                 ; 0000 08DE 
                 ; 0000 08DF         goto p3Ka;
                 _0x226:
000f1a cfe6      	RJMP _0x225
                 ; 0000 08E0 
                 ; 0000 08E1         exitp3Ka:
                 _0x22B:
                 ; 0000 08E2         maju();
000f1b c036      	RJMP _0x2080005
                 ; 0000 08E3 }
                 ;
                 ;void cariPer3anKiri(void)
                 ; 0000 08E6 {
                 _cariPer3anKiri:
                 ; 0000 08E7         p3Ki:
                 _0x22C:
                 ; 0000 08E8 
                 ; 0000 08E9         maju();
000f1c 940e 14ca 	CALL SUBOPT_0x65
                 ; 0000 08EA         displaySensorBit();
                 ; 0000 08EB         scanBlackLine();
                 ; 0000 08EC         scanSudut();
                 ; 0000 08ED         if((!sKi) && (sensor<255))
000f1e 9999      	SBIC 0x13,1
000f1f c003      	RJMP _0x22E
000f20 efef      	LDI  R30,LOW(255)
000f21 169e      	CP   R9,R30
000f22 f008      	BRLO _0x22F
                 _0x22E:
000f23 c00f      	RJMP _0x22D
                 _0x22F:
                 ; 0000 08EE         {
                 ; 0000 08EF                 stop();
000f24 940e 149f 	CALL SUBOPT_0x5A
                 ; 0000 08F0                 indikatorSudut();
                 ; 0000 08F1 
                 ; 0000 08F2                 rpwm=MAXPWM;
000f26 940e 14d6 	CALL SUBOPT_0x67
                 ; 0000 08F3                 lpwm=0;
                 ; 0000 08F4                 maju();
000f28 d80d      	RCALL _maju
                 ; 0000 08F5                 delay_ms(50);
000f29 940e 1345 	CALL SUBOPT_0x2B
                 ; 0000 08F6 
                 ; 0000 08F7                 cek_p3Ki:
                 _0x230:
                 ; 0000 08F8 
                 ; 0000 08F9                 baca_sensor();
000f2b 940e 14a5 	CALL SUBOPT_0x5C
                 ; 0000 08FA                 if(sensor < 255)
000f2d f420      	BRSH _0x231
                 ; 0000 08FB                 {
                 ; 0000 08FC                         delay_ms(10);
000f2e 940e 14aa 	CALL SUBOPT_0x5D
                 ; 0000 08FD                         stop();
000f30 d811      	RCALL _stop
                 ; 0000 08FE                         goto exitp3Ki;
000f31 c002      	RJMP _0x232
                 ; 0000 08FF                 }
                 ; 0000 0900 
                 ; 0000 0901                 goto cek_p3Ki;
                 _0x231:
000f32 cff8      	RJMP _0x230
                 ; 0000 0902         }
                 ; 0000 0903 
                 ; 0000 0904         goto p3Ki;
                 _0x22D:
000f33 cfe8      	RJMP _0x22C
                 ; 0000 0905 
                 ; 0000 0906         exitp3Ki:
                 _0x232:
                 ; 0000 0907         maju();
000f34 c01d      	RJMP _0x2080005
                 ; 0000 0908 }
                 ;
                 ;void cariPer3anLurus(void)
                 ; 0000 090B {
                 _cariPer3anLurus:
                 ; 0000 090C         p3Lu:
                 _0x233:
                 ; 0000 090D 
                 ; 0000 090E         maju();
000f35 940e 14ca 	CALL SUBOPT_0x65
                 ; 0000 090F         displaySensorBit();
                 ; 0000 0910         scanBlackLine();
                 ; 0000 0911         scanSudut();
                 ; 0000 0912         if(((!sKi) && (sensor<255)) || ((!sKa) && (sensor<255)))
000f37 9999      	SBIC 0x13,1
000f38 c003      	RJMP _0x235
000f39 efef      	LDI  R30,LOW(255)
000f3a 169e      	CP   R9,R30
000f3b f030      	BRLO _0x237
                 _0x235:
000f3c 9998      	SBIC 0x13,0
000f3d c003      	RJMP _0x238
000f3e efef      	LDI  R30,LOW(255)
000f3f 169e      	CP   R9,R30
000f40 f008      	BRLO _0x237
                 _0x238:
000f41 c00f      	RJMP _0x234
                 _0x237:
                 ; 0000 0913         {
                 ; 0000 0914                 stop();
000f42 940e 14d2 	CALL SUBOPT_0x66
                 ; 0000 0915                 indikatorPerempatan();
                 ; 0000 0916 
                 ; 0000 0917                 rpwm=MAXPWM;
000f44 940e 1484 	CALL SUBOPT_0x55
000f46 940e 147a 	CALL SUBOPT_0x53
                 ; 0000 0918                 lpwm=MAXPWM;
000f48 940e 14a3 	CALL SUBOPT_0x5B
                 ; 0000 0919                 maju();
000f4a 940e 0736 	CALL _maju
                 ; 0000 091A                 delay_ms(10);
000f4c 940e 14aa 	CALL SUBOPT_0x5D
                 ; 0000 091B                 stop();
000f4e 940e 0742 	CALL _stop
                 ; 0000 091C 
                 ; 0000 091D                 goto exitp3Lu;
000f50 c001      	RJMP _0x23B
                 ; 0000 091E         }
                 ; 0000 091F 
                 ; 0000 0920         goto p3Lu;
                 _0x234:
000f51 cfe3      	RJMP _0x233
                 ; 0000 0921 
                 ; 0000 0922         exitp3Lu:
                 _0x23B:
                 ; 0000 0923         maju();
                 _0x2080005:
000f52 940e 0736 	CALL _maju
                 ; 0000 0924 }
000f54 9508      	RET
                 ;
                 ;/////////////////////////////////////
                 ;
                 ;void cariYKanan(void)
                 ; 0000 0929 {
                 _cariYKanan:
                 ; 0000 092A         cariPertigaanKanan();
000f55 df71      	RCALL _cariPertigaanKanan
                 ; 0000 092B }
000f56 9508      	RET
                 ;
                 ;void cariYKiri(void)
                 ; 0000 092E {
                 _cariYKiri:
                 ; 0000 092F         cariPertigaanKiri();
000f57 df8d      	RCALL _cariPertigaanKiri
                 ; 0000 0930 }
000f58 9508      	RET
                 ;
                 ;/////////////////////////////////////
                 ;
                 ;void main(void)
                 ; 0000 0935 {
                 _main:
                 ; 0000 0936         PORTA=0x00;
000f59 e0e0      	LDI  R30,LOW(0)
000f5a bbeb      	OUT  0x1B,R30
                 ; 0000 0937         DDRA=0x00;
000f5b bbea      	OUT  0x1A,R30
                 ; 0000 0938         PORTB=0x00;
000f5c bbe8      	OUT  0x18,R30
                 ; 0000 0939         DDRB=0xFF;
000f5d efef      	LDI  R30,LOW(255)
000f5e bbe7      	OUT  0x17,R30
                 ; 0000 093A         PORTC=0x03;
000f5f e0e3      	LDI  R30,LOW(3)
000f60 bbe5      	OUT  0x15,R30
                 ; 0000 093B         DDRC=0xFC;
000f61 efec      	LDI  R30,LOW(252)
000f62 bbe4      	OUT  0x14,R30
                 ; 0000 093C         PORTD=0x78;
000f63 e7e8      	LDI  R30,LOW(120)
000f64 bbe2      	OUT  0x12,R30
                 ; 0000 093D         DDRD=0x00;
000f65 e0e0      	LDI  R30,LOW(0)
000f66 bbe1      	OUT  0x11,R30
                 ; 0000 093E 
                 ; 0000 093F         TCCR0=0x05;
000f67 e0e5      	LDI  R30,LOW(5)
000f68 bfe3      	OUT  0x33,R30
                 ; 0000 0940         TCNT0=0xFF;
000f69 efef      	LDI  R30,LOW(255)
000f6a bfe2      	OUT  0x32,R30
                 ; 0000 0941         OCR0=0x00;
000f6b e0e0      	LDI  R30,LOW(0)
000f6c bfec      	OUT  0x3C,R30
                 ; 0000 0942 
                 ; 0000 0943         TIMSK=0x01;
000f6d e0e1      	LDI  R30,LOW(1)
000f6e bfe9      	OUT  0x39,R30
                 ; 0000 0944 
                 ; 0000 0945         ACSR=0x80;
000f6f e8e0      	LDI  R30,LOW(128)
000f70 b9e8      	OUT  0x8,R30
                 ; 0000 0946         SFIOR=0x00;
000f71 e0e0      	LDI  R30,LOW(0)
000f72 bfe0      	OUT  0x30,R30
                 ; 0000 0947 
                 ; 0000 0948         ADMUX=ADC_VREF_TYPE & 0xff;
000f73 e2e0      	LDI  R30,LOW(32)
000f74 b9e7      	OUT  0x7,R30
                 ; 0000 0949         ADCSRA=0x87;
000f75 e8e7      	LDI  R30,LOW(135)
000f76 b9e6      	OUT  0x6,R30
                 ; 0000 094A 
                 ; 0000 094B         lcd_init(16);
000f77 e1e0      	LDI  R30,LOW(16)
000f78 93ea      	ST   -Y,R30
000f79 940e 1223 	CALL _lcd_init
                 ; 0000 094C 
                 ; 0000 094D         /* define user character 0 */
                 ; 0000 094E         define_char(char0,0);
000f7b e5e4      	LDI  R30,LOW(_char0*2)
000f7c e0f0      	LDI  R31,HIGH(_char0*2)
000f7d 93fa      	ST   -Y,R31
000f7e 93ea      	ST   -Y,R30
000f7f e0e0      	LDI  R30,LOW(0)
000f80 93ea      	ST   -Y,R30
000f81 940e 0238 	CALL _define_char
                 ; 0000 094F 
                 ; 0000 0950         indikatorSudut();
000f83 dee3      	RCALL _indikatorSudut
                 ; 0000 0951         delay_ms(500);
000f84 efe4      	LDI  R30,LOW(500)
000f85 e0f1      	LDI  R31,HIGH(500)
000f86 940e 1465 	CALL SUBOPT_0x4F
                 ; 0000 0952         backlight = 1;
000f88 9ac3      	SBI  0x18,3
                 ; 0000 0953 
                 ; 0000 0954         stop();
000f89 940e 0742 	CALL _stop
                 ; 0000 0955         TCCR0=0x05;
000f8b e0e5      	LDI  R30,LOW(5)
000f8c bfe3      	OUT  0x33,R30
                 ; 0000 0956         #asm("sei")
000f8d 9478      	sei
                 ; 0000 0957 
                 ; 0000 0958         showMenu();
000f8e 940e 038d 	CALL _showMenu
                 ; 0000 0959         backlight = 0;
000f90 98c3      	CBI  0x18,3
                 ; 0000 095A 
                 ; 0000 095B         var_Kp  = Kp;
000f91 e0a0      	LDI  R26,LOW(_Kp)
000f92 e0b0      	LDI  R27,HIGH(_Kp)
000f93 940e 14d9 	CALL SUBOPT_0x68
000f95 93e0 019f 	STS  _var_Kp,R30
000f97 93f0 01a0 	STS  _var_Kp+1,R31
                 ; 0000 095C         var_Ki  = Ki;
000f99 e0a1      	LDI  R26,LOW(_Ki)
000f9a e0b0      	LDI  R27,HIGH(_Ki)
000f9b 940e 14d9 	CALL SUBOPT_0x68
000f9d 93e0 01a1 	STS  _var_Ki,R30
000f9f 93f0 01a2 	STS  _var_Ki+1,R31
                 ; 0000 095D         var_Kd  = Kd;
000fa1 e0a2      	LDI  R26,LOW(_Kd)
000fa2 e0b0      	LDI  R27,HIGH(_Kd)
000fa3 940e 14d9 	CALL SUBOPT_0x68
000fa5 93e0 01a3 	STS  _var_Kd,R30
000fa7 93f0 01a4 	STS  _var_Kd+1,R31
                 ; 0000 095E         MAXPWM = (int)MAXSpeed;
000fa9 e0a3      	LDI  R26,LOW(_MAXSpeed)
000faa e0b0      	LDI  R27,HIGH(_MAXSpeed)
000fab 940e 14d9 	CALL SUBOPT_0x68
000fad 93e0 0189 	STS  _MAXPWM,R30
000faf 93f0 018a 	STS  _MAXPWM+1,R31
                 ; 0000 095F         MINPWM = MINSpeed;
000fb1 e0a4      	LDI  R26,LOW(_MINSpeed)
000fb2 e0b0      	LDI  R27,HIGH(_MINSpeed)
000fb3 940e 14d9 	CALL SUBOPT_0x68
000fb5 93e0 018b 	STS  _MINPWM,R30
000fb7 93f0 018c 	STS  _MINPWM+1,R31
                 ; 0000 0960 
                 ; 0000 0961         intervalPWM = (MAXSpeed - MINSpeed) / 8;
000fb9 e0a3      	LDI  R26,LOW(_MAXSpeed)
000fba e0b0      	LDI  R27,HIGH(_MAXSpeed)
000fbb 940e 158a 	CALL __EEPROMRDB
000fbd 2e0e      	MOV  R0,R30
000fbe 2411      	CLR  R1
000fbf e0a4      	LDI  R26,LOW(_MINSpeed)
000fc0 e0b0      	LDI  R27,HIGH(_MINSpeed)
000fc1 940e 14d9 	CALL SUBOPT_0x68
000fc3 01d0      	MOVW R26,R0
000fc4 1bae      	SUB  R26,R30
000fc5 0bbf      	SBC  R27,R31
000fc6 e0e8      	LDI  R30,LOW(8)
000fc7 e0f0      	LDI  R31,HIGH(8)
000fc8 940e 155c 	CALL __DIVW21
000fca 93e0 018d 	STS  _intervalPWM,R30
000fcc 93f0 018e 	STS  _intervalPWM+1,R31
                 ; 0000 0962         PV = 0;
000fce 940e 146f 	CALL SUBOPT_0x51
                 ; 0000 0963         error = 0;
000fd0 e0e0      	LDI  R30,LOW(0)
000fd1 93e0 0199 	STS  _error,R30
000fd3 93e0 019a 	STS  _error+1,R30
                 ; 0000 0964         last_error = 0;
000fd5 93e0 019b 	STS  _last_error,R30
000fd7 93e0 019c 	STS  _last_error+1,R30
                 ; 0000 0965 
                 ; 0000 0966         delay_ms(200);
000fd9 940e 1294 	CALL SUBOPT_0x7
                 ; 0000 0967         indikatorPerempatan();
000fdb de8c      	RCALL _indikatorPerempatan
                 ; 0000 0968 
                 ; 0000 0969         maju();
000fdc 940e 0736 	CALL _maju
                 ; 0000 096A 
                 ; 0000 096B         while (1)
                 _0x240:
                 ; 0000 096C         {
                 ; 0000 096D                 displaySensorBit();
000fde 940e 06f1 	CALL _displaySensorBit
                 ; 0000 096E                 scanBlackLine();
000fe0 db75      	RCALL _scanBlackLine
                 ; 0000 096F                 scanSudut();
000fe1 dcd7      	RCALL _scanSudut
                 ; 0000 0970 
                 ; 0000 0971                 // strategi
                 ; 0000 0972                 if(!sw_up)      // interupsi
000fe2 9984      	SBIC 0x10,4
000fe3 c007      	RJMP _0x243
                 ; 0000 0973                 {
                 ; 0000 0974                         delay_ms(125);
000fe4 940e 12b1 	CALL SUBOPT_0xC
                 ; 0000 0975                         stop();
000fe6 940e 0742 	CALL _stop
                 ; 0000 0976                         lcd_clear();
000fe8 940e 11d8 	CALL _lcd_clear
                 ; 0000 0977                         strategi();
000fea dcf0      	RCALL _strategi
                 ; 0000 0978                 }
                 ; 0000 0979         };
                 _0x243:
000feb cff2      	RJMP _0x240
                 ; 0000 097A }
                 _0x244:
000fec cfff      	RJMP _0x244
                 	#ifndef __SLEEP_DEFINED__
                 	#endif
                 
                 	.CSEG
                 _put_buff_G100:
000fed 931a      	ST   -Y,R17
000fee 930a      	ST   -Y,R16
000fef 81aa      	LDD  R26,Y+2
000ff0 81bb      	LDD  R27,Y+2+1
000ff1 9612      	ADIW R26,2
000ff2 940e 157d 	CALL __GETW1P
000ff4 9730      	SBIW R30,0
000ff5 f129      	BREQ _0x2000010
000ff6 81aa      	LDD  R26,Y+2
000ff7 81bb      	LDD  R27,Y+2+1
000ff8 9614      	ADIW R26,4
000ff9 940e 157d 	CALL __GETW1P
000ffb 018f      	MOVW R16,R30
000ffc 9730      	SBIW R30,0
000ffd f061      	BREQ _0x2000012
                +
000ffe 3002     +CPI R16 , LOW ( 2 )
000fff e0e0     +LDI R30 , HIGH ( 2 )
001000 071e     +CPC R17 , R30
                 	__CPWRN 16,17,2
001001 f0c0      	BRLO _0x2000013
001002 01f8      	MOVW R30,R16
001003 9731      	SBIW R30,1
001004 018f      	MOVW R16,R30
                +
001005 81aa     +LDD R26 , Y + 2
001006 81bb     +LDD R27 , Y + 2 + 1
001007 9614     +ADIW R26 , 4
001008 93ed     +ST X + , R30
001009 93fc     +ST X , R31
                 	__PUTW1SNS 2,4
                 _0x2000012:
00100a 81aa      	LDD  R26,Y+2
00100b 81bb      	LDD  R27,Y+2+1
00100c 9612      	ADIW R26,2
00100d 940e 1357 	CALL SUBOPT_0x2E
00100f 9731      	SBIW R30,1
001010 81ac      	LDD  R26,Y+4
001011 83a0      	STD  Z+0,R26
001012 81aa      	LDD  R26,Y+2
001013 81bb      	LDD  R27,Y+2+1
001014 940e 157d 	CALL __GETW1P
001016 23ff      	TST  R31
001017 f012      	BRMI _0x2000014
001018 940e 1357 	CALL SUBOPT_0x2E
                 _0x2000014:
                 _0x2000013:
00101a c006      	RJMP _0x2000015
                 _0x2000010:
00101b 81aa      	LDD  R26,Y+2
00101c 81bb      	LDD  R27,Y+2+1
00101d efef      	LDI  R30,LOW(65535)
00101e efff      	LDI  R31,HIGH(65535)
00101f 93ed      	ST   X+,R30
001020 93fc      	ST   X,R31
                 _0x2000015:
001021 8119      	LDD  R17,Y+1
001022 8108      	LDD  R16,Y+0
001023 9625      	ADIW R28,5
001024 9508      	RET
                 __print_G100:
001025 9726      	SBIW R28,6
001026 940e 15ab 	CALL __SAVELOCR6
001028 e010      	LDI  R17,0
001029 85ac      	LDD  R26,Y+12
00102a 85bd      	LDD  R27,Y+12+1
00102b e0e0      	LDI  R30,LOW(0)
00102c e0f0      	LDI  R31,HIGH(0)
00102d 93ed      	ST   X+,R30
00102e 93fc      	ST   X,R31
                 _0x2000016:
00102f 89ea      	LDD  R30,Y+18
001030 89fb      	LDD  R31,Y+18+1
001031 9631      	ADIW R30,1
001032 8bea      	STD  Y+18,R30
001033 8bfb      	STD  Y+18+1,R31
001034 9731      	SBIW R30,1
001035 91e4      	LPM  R30,Z
001036 2f2e      	MOV  R18,R30
001037 30e0      	CPI  R30,0
001038 f411      	BRNE PC+3
001039 940c 1152 	JMP _0x2000018
00103b 2fe1      	MOV  R30,R17
00103c 30e0      	CPI  R30,0
00103d f439      	BRNE _0x200001C
00103e 3225      	CPI  R18,37
00103f f411      	BRNE _0x200001D
001040 e011      	LDI  R17,LOW(1)
001041 c002      	RJMP _0x200001E
                 _0x200001D:
001042 940e 14dd 	CALL SUBOPT_0x69
                 _0x200001E:
001044 c10c      	RJMP _0x200001B
                 _0x200001C:
001045 30e1      	CPI  R30,LOW(0x1)
001046 f4a9      	BRNE _0x200001F
001047 3225      	CPI  R18,37
001048 f419      	BRNE _0x2000020
001049 940e 14dd 	CALL SUBOPT_0x69
00104b c104      	RJMP _0x20000C9
                 _0x2000020:
00104c e012      	LDI  R17,LOW(2)
00104d e040      	LDI  R20,LOW(0)
00104e e000      	LDI  R16,LOW(0)
00104f 322d      	CPI  R18,45
001050 f411      	BRNE _0x2000021
001051 e001      	LDI  R16,LOW(1)
001052 c0fe      	RJMP _0x200001B
                 _0x2000021:
001053 322b      	CPI  R18,43
001054 f411      	BRNE _0x2000022
001055 e24b      	LDI  R20,LOW(43)
001056 c0fa      	RJMP _0x200001B
                 _0x2000022:
001057 3220      	CPI  R18,32
001058 f411      	BRNE _0x2000023
001059 e240      	LDI  R20,LOW(32)
00105a c0f6      	RJMP _0x200001B
                 _0x2000023:
00105b c002      	RJMP _0x2000024
                 _0x200001F:
00105c 30e2      	CPI  R30,LOW(0x2)
00105d f439      	BRNE _0x2000025
                 _0x2000024:
00105e e050      	LDI  R21,LOW(0)
00105f e013      	LDI  R17,LOW(3)
001060 3320      	CPI  R18,48
001061 f411      	BRNE _0x2000026
001062 6800      	ORI  R16,LOW(128)
001063 c0ed      	RJMP _0x200001B
                 _0x2000026:
001064 c004      	RJMP _0x2000027
                 _0x2000025:
001065 30e3      	CPI  R30,LOW(0x3)
001066 f011      	BREQ PC+3
001067 940c 1151 	JMP _0x200001B
                 _0x2000027:
001069 3320      	CPI  R18,48
00106a f010      	BRLO _0x200002A
00106b 332a      	CPI  R18,58
00106c f008      	BRLO _0x200002B
                 _0x200002A:
00106d c007      	RJMP _0x2000029
                 _0x200002B:
00106e e0aa      	LDI  R26,LOW(10)
00106f 9f5a      	MUL  R21,R26
001070 2d50      	MOV  R21,R0
001071 2fe2      	MOV  R30,R18
001072 53e0      	SUBI R30,LOW(48)
001073 0f5e      	ADD  R21,R30
001074 c0dc      	RJMP _0x200001B
                 _0x2000029:
001075 2fe2      	MOV  R30,R18
001076 36e3      	CPI  R30,LOW(0x63)
001077 f449      	BRNE _0x200002F
001078 940e 14e6 	CALL SUBOPT_0x6A
00107a 89e8      	LDD  R30,Y+16
00107b 89f9      	LDD  R31,Y+16+1
00107c 81a4      	LDD  R26,Z+4
00107d 93aa      	ST   -Y,R26
00107e 940e 14ec 	CALL SUBOPT_0x6B
001080 c0cf      	RJMP _0x2000030
                 _0x200002F:
001081 37e3      	CPI  R30,LOW(0x73)
001082 f441      	BRNE _0x2000032
001083 940e 14e6 	CALL SUBOPT_0x6A
001085 940e 14f4 	CALL SUBOPT_0x6C
001087 940e 1257 	CALL _strlen
001089 2f1e      	MOV  R17,R30
00108a c00a      	RJMP _0x2000033
                 _0x2000032:
00108b 37e0      	CPI  R30,LOW(0x70)
00108c f461      	BRNE _0x2000035
00108d 940e 14e6 	CALL SUBOPT_0x6A
00108f 940e 14f4 	CALL SUBOPT_0x6C
001091 940e 1261 	CALL _strlenf
001093 2f1e      	MOV  R17,R30
001094 6008      	ORI  R16,LOW(8)
                 _0x2000033:
001095 6002      	ORI  R16,LOW(2)
001096 770f      	ANDI R16,LOW(127)
001097 e030      	LDI  R19,LOW(0)
001098 c035      	RJMP _0x2000036
                 _0x2000035:
001099 36e4      	CPI  R30,LOW(0x64)
00109a f011      	BREQ _0x2000039
00109b 36e9      	CPI  R30,LOW(0x69)
00109c f411      	BRNE _0x200003A
                 _0x2000039:
00109d 6004      	ORI  R16,LOW(4)
00109e c002      	RJMP _0x200003B
                 _0x200003A:
00109f 37e5      	CPI  R30,LOW(0x75)
0010a0 f431      	BRNE _0x200003C
                 _0x200003B:
0010a1 e5ec      	LDI  R30,LOW(_tbl10_G100*2)
0010a2 e0f0      	LDI  R31,HIGH(_tbl10_G100*2)
0010a3 83ee      	STD  Y+6,R30
0010a4 83ff      	STD  Y+6+1,R31
0010a5 e015      	LDI  R17,LOW(5)
0010a6 c00d      	RJMP _0x200003D
                 _0x200003C:
0010a7 35e8      	CPI  R30,LOW(0x58)
0010a8 f411      	BRNE _0x200003F
0010a9 6008      	ORI  R16,LOW(8)
0010aa c004      	RJMP _0x2000040
                 _0x200003F:
0010ab 37e8      	CPI  R30,LOW(0x78)
0010ac f011      	BREQ PC+3
0010ad 940c 1150 	JMP _0x2000071
                 _0x2000040:
0010af e6e6      	LDI  R30,LOW(_tbl16_G100*2)
0010b0 e0f0      	LDI  R31,HIGH(_tbl16_G100*2)
0010b1 83ee      	STD  Y+6,R30
0010b2 83ff      	STD  Y+6+1,R31
0010b3 e014      	LDI  R17,LOW(4)
                 _0x200003D:
0010b4 ff02      	SBRS R16,2
0010b5 c014      	RJMP _0x2000042
0010b6 940e 14e6 	CALL SUBOPT_0x6A
0010b8 940e 14fe 	CALL SUBOPT_0x6D
0010ba 85ab      	LDD  R26,Y+11
0010bb 23aa      	TST  R26
0010bc f43a      	BRPL _0x2000043
0010bd 85ea      	LDD  R30,Y+10
0010be 85fb      	LDD  R31,Y+10+1
0010bf 940e 1533 	CALL __ANEGW1
0010c1 87ea      	STD  Y+10,R30
0010c2 87fb      	STD  Y+10+1,R31
0010c3 e24d      	LDI  R20,LOW(45)
                 _0x2000043:
0010c4 3040      	CPI  R20,0
0010c5 f011      	BREQ _0x2000044
0010c6 5f1f      	SUBI R17,-LOW(1)
0010c7 c001      	RJMP _0x2000045
                 _0x2000044:
0010c8 7f0b      	ANDI R16,LOW(251)
                 _0x2000045:
0010c9 c004      	RJMP _0x2000046
                 _0x2000042:
0010ca 940e 14e6 	CALL SUBOPT_0x6A
0010cc 940e 14fe 	CALL SUBOPT_0x6D
                 _0x2000046:
                 _0x2000036:
0010ce fd00      	SBRC R16,0
0010cf c011      	RJMP _0x2000047
                 _0x2000048:
0010d0 1715      	CP   R17,R21
0010d1 f478      	BRSH _0x200004A
0010d2 ff07      	SBRS R16,7
0010d3 c008      	RJMP _0x200004B
0010d4 ff02      	SBRS R16,2
0010d5 c004      	RJMP _0x200004C
0010d6 7f0b      	ANDI R16,LOW(251)
0010d7 2f24      	MOV  R18,R20
0010d8 5011      	SUBI R17,LOW(1)
0010d9 c001      	RJMP _0x200004D
                 _0x200004C:
0010da e320      	LDI  R18,LOW(48)
                 _0x200004D:
0010db c001      	RJMP _0x200004E
                 _0x200004B:
0010dc e220      	LDI  R18,LOW(32)
                 _0x200004E:
0010dd 940e 14dd 	CALL SUBOPT_0x69
0010df 5051      	SUBI R21,LOW(1)
0010e0 cfef      	RJMP _0x2000048
                 _0x200004A:
                 _0x2000047:
0010e1 2f31      	MOV  R19,R17
0010e2 ff01      	SBRS R16,1
0010e3 c017      	RJMP _0x200004F
                 _0x2000050:
0010e4 3030      	CPI  R19,0
0010e5 f0a1      	BREQ _0x2000052
0010e6 ff03      	SBRS R16,3
0010e7 c006      	RJMP _0x2000053
0010e8 81ee      	LDD  R30,Y+6
0010e9 81ff      	LDD  R31,Y+6+1
0010ea 9125      	LPM  R18,Z+
0010eb 83ee      	STD  Y+6,R30
0010ec 83ff      	STD  Y+6+1,R31
0010ed c005      	RJMP _0x2000054
                 _0x2000053:
0010ee 81ae      	LDD  R26,Y+6
0010ef 81bf      	LDD  R27,Y+6+1
0010f0 912d      	LD   R18,X+
0010f1 83ae      	STD  Y+6,R26
0010f2 83bf      	STD  Y+6+1,R27
                 _0x2000054:
0010f3 940e 14dd 	CALL SUBOPT_0x69
0010f5 3050      	CPI  R21,0
0010f6 f009      	BREQ _0x2000055
0010f7 5051      	SUBI R21,LOW(1)
                 _0x2000055:
0010f8 5031      	SUBI R19,LOW(1)
0010f9 cfea      	RJMP _0x2000050
                 _0x2000052:
0010fa c04b      	RJMP _0x2000056
                 _0x200004F:
                 _0x2000058:
0010fb e320      	LDI  R18,LOW(48)
0010fc 81ee      	LDD  R30,Y+6
0010fd 81ff      	LDD  R31,Y+6+1
0010fe 940e 1581 	CALL __GETW1PF
001100 87e8      	STD  Y+8,R30
001101 87f9      	STD  Y+8+1,R31
001102 81ee      	LDD  R30,Y+6
001103 81ff      	LDD  R31,Y+6+1
001104 9632      	ADIW R30,2
001105 83ee      	STD  Y+6,R30
001106 83ff      	STD  Y+6+1,R31
                 _0x200005A:
001107 85e8      	LDD  R30,Y+8
001108 85f9      	LDD  R31,Y+8+1
001109 85aa      	LDD  R26,Y+10
00110a 85bb      	LDD  R27,Y+10+1
00110b 17ae      	CP   R26,R30
00110c 07bf      	CPC  R27,R31
00110d f050      	BRLO _0x200005C
00110e 5f2f      	SUBI R18,-LOW(1)
00110f 85a8      	LDD  R26,Y+8
001110 85b9      	LDD  R27,Y+8+1
001111 85ea      	LDD  R30,Y+10
001112 85fb      	LDD  R31,Y+10+1
001113 1bea      	SUB  R30,R26
001114 0bfb      	SBC  R31,R27
001115 87ea      	STD  Y+10,R30
001116 87fb      	STD  Y+10+1,R31
001117 cfef      	RJMP _0x200005A
                 _0x200005C:
001118 332a      	CPI  R18,58
001119 f028      	BRLO _0x200005D
00111a ff03      	SBRS R16,3
00111b c002      	RJMP _0x200005E
00111c 5f29      	SUBI R18,-LOW(7)
00111d c001      	RJMP _0x200005F
                 _0x200005E:
00111e 5d29      	SUBI R18,-LOW(39)
                 _0x200005F:
                 _0x200005D:
00111f fd04      	SBRC R16,4
001120 c01a      	RJMP _0x2000061
001121 3321      	CPI  R18,49
001122 f420      	BRSH _0x2000063
001123 85a8      	LDD  R26,Y+8
001124 85b9      	LDD  R27,Y+8+1
001125 9711      	SBIW R26,1
001126 f409      	BRNE _0x2000062
                 _0x2000063:
001127 c009      	RJMP _0x20000CA
                 _0x2000062:
001128 1753      	CP   R21,R19
001129 f010      	BRLO _0x2000067
00112a ff00      	SBRS R16,0
00112b c001      	RJMP _0x2000068
                 _0x2000067:
00112c c013      	RJMP _0x2000066
                 _0x2000068:
00112d e220      	LDI  R18,LOW(32)
00112e ff07      	SBRS R16,7
00112f c00b      	RJMP _0x2000069
001130 e320      	LDI  R18,LOW(48)
                 _0x20000CA:
001131 6100      	ORI  R16,LOW(16)
001132 ff02      	SBRS R16,2
001133 c007      	RJMP _0x200006A
001134 7f0b      	ANDI R16,LOW(251)
001135 934a      	ST   -Y,R20
001136 940e 14ec 	CALL SUBOPT_0x6B
001138 3050      	CPI  R21,0
001139 f009      	BREQ _0x200006B
00113a 5051      	SUBI R21,LOW(1)
                 _0x200006B:
                 _0x200006A:
                 _0x2000069:
                 _0x2000061:
00113b 940e 14dd 	CALL SUBOPT_0x69
00113d 3050      	CPI  R21,0
00113e f009      	BREQ _0x200006C
00113f 5051      	SUBI R21,LOW(1)
                 _0x200006C:
                 _0x2000066:
001140 5031      	SUBI R19,LOW(1)
001141 85a8      	LDD  R26,Y+8
001142 85b9      	LDD  R27,Y+8+1
001143 9712      	SBIW R26,2
001144 f008      	BRLO _0x2000059
001145 cfb5      	RJMP _0x2000058
                 _0x2000059:
                 _0x2000056:
001146 ff00      	SBRS R16,0
001147 c008      	RJMP _0x200006D
                 _0x200006E:
001148 3050      	CPI  R21,0
001149 f031      	BREQ _0x2000070
00114a 5051      	SUBI R21,LOW(1)
00114b e2e0      	LDI  R30,LOW(32)
00114c 93ea      	ST   -Y,R30
00114d 940e 14ec 	CALL SUBOPT_0x6B
00114f cff8      	RJMP _0x200006E
                 _0x2000070:
                 _0x200006D:
                 _0x2000071:
                 _0x2000030:
                 _0x20000C9:
001150 e010      	LDI  R17,LOW(0)
                 _0x200001B:
001151 cedd      	RJMP _0x2000016
                 _0x2000018:
001152 85ac      	LDD  R26,Y+12
001153 85bd      	LDD  R27,Y+12+1
001154 940e 157d 	CALL __GETW1P
001156 940e 15b2 	CALL __LOADLOCR6
001158 9664      	ADIW R28,20
001159 9508      	RET
                 _sprintf:
00115a 92ff      	PUSH R15
00115b 2ef8      	MOV  R15,R24
00115c 9726      	SBIW R28,6
00115d 940e 15ad 	CALL __SAVELOCR4
00115f 940e 1506 	CALL SUBOPT_0x6E
001161 9730      	SBIW R30,0
001162 f419      	BRNE _0x2000072
001163 efef      	LDI  R30,LOW(65535)
001164 efff      	LDI  R31,HIGH(65535)
001165 c025      	RJMP _0x2080004
                 _0x2000072:
001166 01de      	MOVW R26,R28
001167 9616      	ADIW R26,6
001168 940e 152f 	CALL __ADDW2R15
00116a 018d      	MOVW R16,R26
00116b 940e 1506 	CALL SUBOPT_0x6E
00116d 83ee      	STD  Y+6,R30
00116e 83ff      	STD  Y+6+1,R31
00116f e0e0      	LDI  R30,LOW(0)
001170 87e8      	STD  Y+8,R30
001171 87e9      	STD  Y+8+1,R30
001172 01de      	MOVW R26,R28
001173 961a      	ADIW R26,10
001174 940e 152f 	CALL __ADDW2R15
001176 940e 157d 	CALL __GETW1P
001178 93fa      	ST   -Y,R31
001179 93ea      	ST   -Y,R30
00117a 931a      	ST   -Y,R17
00117b 930a      	ST   -Y,R16
00117c eeed      	LDI  R30,LOW(_put_buff_G100)
00117d e0ff      	LDI  R31,HIGH(_put_buff_G100)
00117e 93fa      	ST   -Y,R31
00117f 93ea      	ST   -Y,R30
001180 01fe      	MOVW R30,R28
001181 963a      	ADIW R30,10
001182 93fa      	ST   -Y,R31
001183 93ea      	ST   -Y,R30
001184 dea0      	RCALL __print_G100
001185 019f      	MOVW R18,R30
001186 81ae      	LDD  R26,Y+6
001187 81bf      	LDD  R27,Y+6+1
001188 e0e0      	LDI  R30,LOW(0)
001189 93ec      	ST   X,R30
00118a 01f9      	MOVW R30,R18
                 _0x2080004:
00118b 940e 15b4 	CALL __LOADLOCR4
00118d 962a      	ADIW R28,10
00118e 90ff      	POP  R15
00118f 9508      	RET
                 	#ifndef __SLEEP_DEFINED__
                 	#endif
                 
                 	.DSEG
                 
                 	.CSEG
                 __lcd_write_nibble_G101:
001190 81e8      	LD   R30,Y
001191 71e0      	ANDI R30,LOW(0x10)
001192 f011      	BREQ _0x2020004
001193 9ac4      	SBI  0x18,4
001194 c001      	RJMP _0x2020005
                 _0x2020004:
001195 98c4      	CBI  0x18,4
                 _0x2020005:
001196 81e8      	LD   R30,Y
001197 72e0      	ANDI R30,LOW(0x20)
001198 f011      	BREQ _0x2020006
001199 9ac5      	SBI  0x18,5
00119a c001      	RJMP _0x2020007
                 _0x2020006:
00119b 98c5      	CBI  0x18,5
                 _0x2020007:
00119c 81e8      	LD   R30,Y
00119d 74e0      	ANDI R30,LOW(0x40)
00119e f011      	BREQ _0x2020008
00119f 9ac6      	SBI  0x18,6
0011a0 c001      	RJMP _0x2020009
                 _0x2020008:
0011a1 98c6      	CBI  0x18,6
                 _0x2020009:
0011a2 81e8      	LD   R30,Y
0011a3 78e0      	ANDI R30,LOW(0x80)
0011a4 f011      	BREQ _0x202000A
0011a5 9ac7      	SBI  0x18,7
0011a6 c001      	RJMP _0x202000B
                 _0x202000A:
0011a7 98c7      	CBI  0x18,7
                 _0x202000B:
                +
0011a8 e088     +LDI R24 , LOW ( 8 )
                +__DELAY_USB_LOOP :
0011a9 958a     +DEC R24
0011aa f7f1     +BRNE __DELAY_USB_LOOP
                 	__DELAY_USB 8
0011ab 9ac2      	SBI  0x18,2
                +
0011ac e184     +LDI R24 , LOW ( 20 )
                +__DELAY_USB_LOOP :
0011ad 958a     +DEC R24
0011ae f7f1     +BRNE __DELAY_USB_LOOP
                 	__DELAY_USB 20
0011af 98c2      	CBI  0x18,2
                +
0011b0 e184     +LDI R24 , LOW ( 20 )
                +__DELAY_USB_LOOP :
0011b1 958a     +DEC R24
0011b2 f7f1     +BRNE __DELAY_USB_LOOP
                 	__DELAY_USB 20
0011b3 c0a1      	RJMP _0x2080001
                 __lcd_write_data:
0011b4 81e8      	LD   R30,Y
0011b5 93ea      	ST   -Y,R30
0011b6 dfd9      	RCALL __lcd_write_nibble_G101
0011b7 81e8          ld    r30,y
0011b8 95e2          swap  r30
0011b9 83e8          st    y,r30
0011ba 81e8      	LD   R30,Y
0011bb 93ea      	ST   -Y,R30
0011bc dfd3      	RCALL __lcd_write_nibble_G101
                +
0011bd ec88     +LDI R24 , LOW ( 200 )
                +__DELAY_USB_LOOP :
0011be 958a     +DEC R24
0011bf f7f1     +BRNE __DELAY_USB_LOOP
                 	__DELAY_USB 200
0011c0 c094      	RJMP _0x2080001
                 _lcd_write_byte:
0011c1 81e9      	LDD  R30,Y+1
0011c2 93ea      	ST   -Y,R30
0011c3 dff0      	RCALL __lcd_write_data
0011c4 940e 150d 	CALL SUBOPT_0x6F
0011c6 c00f      	RJMP _0x2080003
                 _lcd_gotoxy:
0011c7 81e8      	LD   R30,Y
0011c8 e0f0      	LDI  R31,0
0011c9 55eb      	SUBI R30,LOW(-__base_y_G101)
0011ca 4ffe      	SBCI R31,HIGH(-__base_y_G101)
0011cb 81e0      	LD   R30,Z
0011cc 81a9      	LDD  R26,Y+1
0011cd 0fea      	ADD  R30,R26
0011ce 93ea      	ST   -Y,R30
0011cf dfe4      	RCALL __lcd_write_data
0011d0 81e9      	LDD  R30,Y+1
0011d1 93e0 01a9 	STS  __lcd_x,R30
0011d3 81e8      	LD   R30,Y
0011d4 93e0 01aa 	STS  __lcd_y,R30
                 _0x2080003:
0011d6 9622      	ADIW R28,2
0011d7 9508      	RET
                 _lcd_clear:
0011d8 e0e2      	LDI  R30,LOW(2)
0011d9 940e 1514 	CALL SUBOPT_0x70
0011db e0ec      	LDI  R30,LOW(12)
0011dc 93ea      	ST   -Y,R30
0011dd dfd6      	RCALL __lcd_write_data
0011de e0e1      	LDI  R30,LOW(1)
0011df 940e 1514 	CALL SUBOPT_0x70
0011e1 e0e0      	LDI  R30,LOW(0)
0011e2 93e0 01aa 	STS  __lcd_y,R30
0011e4 93e0 01a9 	STS  __lcd_x,R30
0011e6 9508      	RET
                 _lcd_putchar:
0011e7 81a8      	LD   R26,Y
0011e8 30aa      	CPI  R26,LOW(0xA)
0011e9 f031      	BREQ _0x2020011
0011ea 91e0 01ab 	LDS  R30,__lcd_maxx
0011ec 91a0 01a9 	LDS  R26,__lcd_x
0011ee 17ae      	CP   R26,R30
0011ef f068      	BRLO _0x2020010
                 _0x2020011:
0011f0 e0e0      	LDI  R30,LOW(0)
0011f1 93ea      	ST   -Y,R30
0011f2 91e0 01aa 	LDS  R30,__lcd_y
0011f4 5fef      	SUBI R30,-LOW(1)
0011f5 93e0 01aa 	STS  __lcd_y,R30
0011f7 93ea      	ST   -Y,R30
0011f8 dfce      	RCALL _lcd_gotoxy
0011f9 81a8      	LD   R26,Y
0011fa 30aa      	CPI  R26,LOW(0xA)
0011fb f409      	BRNE _0x2020013
0011fc c058      	RJMP _0x2080001
                 _0x2020013:
                 _0x2020010:
0011fd 91e0 01a9 	LDS  R30,__lcd_x
0011ff 5fef      	SUBI R30,-LOW(1)
001200 93e0 01a9 	STS  __lcd_x,R30
001202 940e 150d 	CALL SUBOPT_0x6F
001204 c050      	RJMP _0x2080001
                 _lcd_puts:
001205 931a      	ST   -Y,R17
                 _0x2020014:
001206 81a9      	LDD  R26,Y+1
001207 81ba      	LDD  R27,Y+1+1
001208 91ed      	LD   R30,X+
001209 83a9      	STD  Y+1,R26
00120a 83ba      	STD  Y+1+1,R27
00120b 2f1e      	MOV  R17,R30
00120c 30e0      	CPI  R30,0
00120d f019      	BREQ _0x2020016
00120e 931a      	ST   -Y,R17
00120f dfd7      	RCALL _lcd_putchar
001210 cff5      	RJMP _0x2020014
                 _0x2020016:
001211 c00e      	RJMP _0x2080002
                 _lcd_putsf:
001212 931a      	ST   -Y,R17
                 _0x2020017:
001213 81e9      	LDD  R30,Y+1
001214 81fa      	LDD  R31,Y+1+1
001215 9631      	ADIW R30,1
001216 83e9      	STD  Y+1,R30
001217 83fa      	STD  Y+1+1,R31
001218 9731      	SBIW R30,1
001219 91e4      	LPM  R30,Z
00121a 2f1e      	MOV  R17,R30
00121b 30e0      	CPI  R30,0
00121c f019      	BREQ _0x2020019
00121d 931a      	ST   -Y,R17
00121e dfc8      	RCALL _lcd_putchar
00121f cff3      	RJMP _0x2020017
                 _0x2020019:
                 _0x2080002:
001220 8118      	LDD  R17,Y+0
001221 9623      	ADIW R28,3
001222 9508      	RET
                 _lcd_init:
001223 9abc      	SBI  0x17,4
001224 9abd      	SBI  0x17,5
001225 9abe      	SBI  0x17,6
001226 9abf      	SBI  0x17,7
001227 9aba      	SBI  0x17,2
001228 9ab8      	SBI  0x17,0
001229 9ab9      	SBI  0x17,1
00122a 98c2      	CBI  0x18,2
00122b 98c0      	CBI  0x18,0
00122c 98c1      	CBI  0x18,1
00122d 81e8      	LD   R30,Y
00122e 93e0 01ab 	STS  __lcd_maxx,R30
001230 58e0      	SUBI R30,-LOW(128)
                +
001231 93e0 01a7+STS __base_y_G101 + ( 2 ) , R30
                 	__PUTB1MN __base_y_G101,2
001233 81e8      	LD   R30,Y
001234 54e0      	SUBI R30,-LOW(192)
                +
001235 93e0 01a8+STS __base_y_G101 + ( 3 ) , R30
                 	__PUTB1MN __base_y_G101,3
001237 e1e4      	LDI  R30,LOW(20)
001238 e0f0      	LDI  R31,HIGH(20)
001239 940e 1465 	CALL SUBOPT_0x4F
00123b 940e 151a 	CALL SUBOPT_0x71
00123d 940e 151a 	CALL SUBOPT_0x71
00123f 940e 151a 	CALL SUBOPT_0x71
001241 e2e0      	LDI  R30,LOW(32)
001242 93ea      	ST   -Y,R30
001243 df4c      	RCALL __lcd_write_nibble_G101
                +
001244 e28c     +LDI R24 , LOW ( 300 )
001245 e091     +LDI R25 , HIGH ( 300 )
                +__DELAY_USW_LOOP :
001246 9701     +SBIW R24 , 1
001247 f7f1     +BRNE __DELAY_USW_LOOP
                 	__DELAY_USW 300
001248 e2e8      	LDI  R30,LOW(40)
001249 93ea      	ST   -Y,R30
00124a df69      	RCALL __lcd_write_data
00124b e0e4      	LDI  R30,LOW(4)
00124c 93ea      	ST   -Y,R30
00124d df66      	RCALL __lcd_write_data
00124e e8e5      	LDI  R30,LOW(133)
00124f 93ea      	ST   -Y,R30
001250 df63      	RCALL __lcd_write_data
001251 e0e6      	LDI  R30,LOW(6)
001252 93ea      	ST   -Y,R30
001253 df60      	RCALL __lcd_write_data
001254 df83      	RCALL _lcd_clear
                 _0x2080001:
001255 9621      	ADIW R28,1
001256 9508      	RET
                 
                 	.CSEG
                 
                 	.CSEG
                 _strlen:
001257 91a9          ld   r26,y+
001258 91b9          ld   r27,y+
001259 27ee          clr  r30
00125a 27ff          clr  r31
                 strlen0:
00125b 916d          ld   r22,x+
00125c 2366          tst  r22
00125d f011          breq strlen1
00125e 9631          adiw r30,1
00125f cffb          rjmp strlen0
                 strlen1:
001260 9508          ret
                 _strlenf:
001261 27aa          clr  r26
001262 27bb          clr  r27
001263 91e9          ld   r30,y+
001264 91f9          ld   r31,y+
                 strlenf0:
001265 9005      	lpm  r0,z+
001266 2000          tst  r0
001267 f011          breq strlenf1
001268 9611          adiw r26,1
001269 cffb          rjmp strlenf0
                 strlenf1:
00126a 01fd          movw r30,r26
00126b 9508          ret
                 
                 	.DSEG
                 _lcd:
000160           	.BYTE 0x20
                 _adc5:
000180           	.BYTE 0x1
                 _adc6:
000181           	.BYTE 0x1
                 _adc7:
000182           	.BYTE 0x1
                 _xcount:
000183           	.BYTE 0x1
                 _SP:
000184           	.BYTE 0x1
                 _lpwm:
000185           	.BYTE 0x2
                 _rpwm:
000187           	.BYTE 0x2
                 _MAXPWM:
000189           	.BYTE 0x2
                 _MINPWM:
00018b           	.BYTE 0x2
                 _intervalPWM:
00018d           	.BYTE 0x2
                 _MV:
00018f           	.BYTE 0x2
                 _P:
000191           	.BYTE 0x2
                 _I:
000193           	.BYTE 0x2
                 _D:
000195           	.BYTE 0x2
                 _PV:
000197           	.BYTE 0x2
                 _error:
000199           	.BYTE 0x2
                 _last_error:
00019b           	.BYTE 0x2
                 _rate:
00019d           	.BYTE 0x2
                 _var_Kp:
00019f           	.BYTE 0x2
                 _var_Ki:
0001a1           	.BYTE 0x2
                 _var_Kd:
0001a3           	.BYTE 0x2
                 
                 	.ESEG
                 _Kp:
000000 0a        	.DB  0xA
                 _Ki:
000001 00        	.DB  0x0
                 _Kd:
000002 05        	.DB  0x5
                 _MAXSpeed:
000003 ff        	.DB  0xFF
                 _MINSpeed:
000004 00        	.DB  0x0
                 _WarnaGaris:
000005 01        	.DB  0x1
                 _SensLine:
000006 02        	.DB  0x2
                 _Skenario:
000007 02        	.DB  0x2
                 _Mode:
000008 01        	.DB  0x1
                 _NoStrategi:
000009 01        	.DB  0x1
                 _bt7:
00000a 07        	.DB  0x7
                 _bt6:
00000b 07        	.DB  0x7
                 _bt5:
00000c 07        	.DB  0x7
                 _bt4:
00000d 07        	.DB  0x7
                 _bt3:
00000e 07        	.DB  0x7
                 _bt2:
00000f 07        	.DB  0x7
                 _bt1:
000010 07        	.DB  0x7
                 _bt0:
000011 07        	.DB  0x7
                 _ba7:
000012 07        	.DB  0x7
                 _ba6:
000013 07        	.DB  0x7
                 _ba5:
000014 07        	.DB  0x7
                 _ba4:
000015 07        	.DB  0x7
                 _ba3:
000016 07        	.DB  0x7
                 _ba2:
000017 07        	.DB  0x7
                 _ba1:
000018 07        	.DB  0x7
                 _ba0:
000019 07        	.DB  0x7
                 _bb7:
00001a c8        	.DB  0xC8
                 _bb6:
00001b c8        	.DB  0xC8
                 _bb5:
00001c c8        	.DB  0xC8
                 _bb4:
00001d c8        	.DB  0xC8
                 _bb3:
00001e c8        	.DB  0xC8
                 _bb2:
00001f c8        	.DB  0xC8
                 _bb1:
000020 c8        	.DB  0xC8
                 _bb0:
000021 c8        	.DB  0xC8
                 
                 	.DSEG
                 __base_y_G101:
0001a5           	.BYTE 0x4
                 __lcd_x:
0001a9           	.BYTE 0x1
                 __lcd_y:
0001aa           	.BYTE 0x1
                 __lcd_maxx:
0001ab           	.BYTE 0x1
                 
                 	.CSEG
                 ;OPTIMIZER ADDED SUBROUTINE, CALLED 4 TIMES, CODE SIZE REDUCTION:3 WORDS
                 SUBOPT_0x0:
00126c 91e0 0185 	LDS  R30,_lpwm
00126e 91f0 0186 	LDS  R31,_lpwm+1
001270 9508      	RET
                 
                 ;OPTIMIZER ADDED SUBROUTINE, CALLED 2 TIMES, CODE SIZE REDUCTION:2 WORDS
                 SUBOPT_0x1:
001271 91a0 0183 	LDS  R26,_xcount
001273 e0b0      	LDI  R27,0
001274 17ea      	CP   R30,R26
001275 07fb      	CPC  R31,R27
001276 9508      	RET
                 
                 ;OPTIMIZER ADDED SUBROUTINE, CALLED 4 TIMES, CODE SIZE REDUCTION:3 WORDS
                 SUBOPT_0x2:
001277 91e0 0187 	LDS  R30,_rpwm
001279 91f0 0188 	LDS  R31,_rpwm+1
00127b 9508      	RET
                 
                 ;OPTIMIZER ADDED SUBROUTINE, CALLED 2 TIMES, CODE SIZE REDUCTION:4 WORDS
                 SUBOPT_0x3:
00127c 940e 155c 	CALL __DIVW21
00127e 2f1e      	MOV  R17,R30
00127f 5d10      	SUBI R17,-LOW(48)
001280 931a      	ST   -Y,R17
001281 940e 11e7 	CALL _lcd_putchar
001283 81a9      	LDD  R26,Y+1
001284 27bb      	CLR  R27
001285 9508      	RET
                 
                 ;OPTIMIZER ADDED SUBROUTINE, CALLED 42 TIMES, CODE SIZE REDUCTION:161 WORDS
                 SUBOPT_0x4:
001286 e0e0      	LDI  R30,LOW(0)
001287 93ea      	ST   -Y,R30
001288 93ea      	ST   -Y,R30
001289 940c 11c7 	JMP  _lcd_gotoxy
                 
                 ;OPTIMIZER ADDED SUBROUTINE, CALLED 64 TIMES, CODE SIZE REDUCTION:123 WORDS
                 SUBOPT_0x5:
00128b 93fa      	ST   -Y,R31
00128c 93ea      	ST   -Y,R30
00128d 940c 1212 	JMP  _lcd_putsf
                 
                 ;OPTIMIZER ADDED SUBROUTINE, CALLED 12 TIMES, CODE SIZE REDUCTION:41 WORDS
                 SUBOPT_0x6:
00128f e0f0      	LDI  R31,0
001290 30e1      	CPI  R30,LOW(0x1)
001291 e0a0      	LDI  R26,HIGH(0x1)
001292 07fa      	CPC  R31,R26
001293 9508      	RET
                 
                 ;OPTIMIZER ADDED SUBROUTINE, CALLED 6 TIMES, CODE SIZE REDUCTION:17 WORDS
                 SUBOPT_0x7:
001294 ece8      	LDI  R30,LOW(200)
001295 e0f0      	LDI  R31,HIGH(200)
001296 93fa      	ST   -Y,R31
001297 93ea      	ST   -Y,R30
001298 940c 1523 	JMP  _delay_ms
                 
                 ;OPTIMIZER ADDED SUBROUTINE, CALLED 17 TIMES, CODE SIZE REDUCTION:29 WORDS
                 SUBOPT_0x8:
00129a 940e 11d8 	CALL _lcd_clear
00129c cfe9      	RJMP SUBOPT_0x4
                 
                 ;OPTIMIZER ADDED SUBROUTINE, CALLED 13 TIMES, CODE SIZE REDUCTION:45 WORDS
                 SUBOPT_0x9:
00129d e9e6      	LDI  R30,LOW(150)
00129e e0f0      	LDI  R31,HIGH(150)
00129f 93fa      	ST   -Y,R31
0012a0 93ea      	ST   -Y,R30
0012a1 940c 1523 	JMP  _delay_ms
                 
                 ;OPTIMIZER ADDED SUBROUTINE, CALLED 26 TIMES, CODE SIZE REDUCTION:97 WORDS
                 SUBOPT_0xA:
0012a3 e0e0      	LDI  R30,LOW(0)
0012a4 93ea      	ST   -Y,R30
0012a5 e0e1      	LDI  R30,LOW(1)
0012a6 93ea      	ST   -Y,R30
0012a7 940c 11c7 	JMP  _lcd_gotoxy
                 
                 ;OPTIMIZER ADDED SUBROUTINE, CALLED 2 TIMES, CODE SIZE REDUCTION:3 WORDS
                 SUBOPT_0xB:
0012a9 e6e4      	LDI  R30,LOW(100)
0012aa e0f0      	LDI  R31,HIGH(100)
0012ab 93fa      	ST   -Y,R31
0012ac 93ea      	ST   -Y,R30
0012ad 940e 1523 	CALL _delay_ms
0012af 940c 11d8 	JMP  _lcd_clear
                 
                 ;OPTIMIZER ADDED SUBROUTINE, CALLED 17 TIMES, CODE SIZE REDUCTION:61 WORDS
                 SUBOPT_0xC:
0012b1 e7ed      	LDI  R30,LOW(125)
0012b2 e0f0      	LDI  R31,HIGH(125)
0012b3 93fa      	ST   -Y,R31
0012b4 93ea      	ST   -Y,R30
0012b5 940c 1523 	JMP  _delay_ms
                 
                 ;OPTIMIZER ADDED SUBROUTINE, CALLED 17 TIMES, CODE SIZE REDUCTION:29 WORDS
                 SUBOPT_0xD:
0012b7 e0e0      	LDI  R30,LOW(0)
0012b8 93ea      	ST   -Y,R30
0012b9 940c 11e7 	JMP  _lcd_putchar
                 
                 ;OPTIMIZER ADDED SUBROUTINE, CALLED 17 TIMES, CODE SIZE REDUCTION:29 WORDS
                 SUBOPT_0xE:
0012bb e2e0      	LDI  R30,LOW(32)
0012bc 93ea      	ST   -Y,R30
0012bd 940c 11e7 	JMP  _lcd_putchar
                 
                 ;OPTIMIZER ADDED SUBROUTINE, CALLED 5 TIMES, CODE SIZE REDUCTION:17 WORDS
                 SUBOPT_0xF:
0012bf 940e 158a 	CALL __EEPROMRDB
0012c1 93ea      	ST   -Y,R30
0012c2 940e 0255 	CALL _tampil
0012c4 cff6      	RJMP SUBOPT_0xE
                 
                 ;OPTIMIZER ADDED SUBROUTINE, CALLED 2 TIMES, CODE SIZE REDUCTION:1 WORDS
                 SUBOPT_0x10:
0012c5 e0e0      	LDI  R30,LOW(0)
0012c6 93ea      	ST   -Y,R30
0012c7 940e 11c7 	CALL _lcd_gotoxy
0012c9 cfed      	RJMP SUBOPT_0xD
                 
                 ;OPTIMIZER ADDED SUBROUTINE, CALLED 4 TIMES, CODE SIZE REDUCTION:3 WORDS
                 SUBOPT_0x11:
0012ca 940e 02d5 	CALL _setByte
0012cc cfc7      	RJMP SUBOPT_0x7
                 
                 ;OPTIMIZER ADDED SUBROUTINE, CALLED 11 TIMES, CODE SIZE REDUCTION:27 WORDS
                 SUBOPT_0x12:
0012cd 93ea      	ST   -Y,R30
0012ce e0e1      	LDI  R30,LOW(1)
0012cf 93ea      	ST   -Y,R30
0012d0 940c 11c7 	JMP  _lcd_gotoxy
                 
                 ;OPTIMIZER ADDED SUBROUTINE, CALLED 11 TIMES, CODE SIZE REDUCTION:17 WORDS
                 SUBOPT_0x13:
0012d2 e0a8      	LDI  R26,LOW(_Mode)
0012d3 e0b0      	LDI  R27,HIGH(_Mode)
0012d4 940e 158a 	CALL __EEPROMRDB
0012d6 9508      	RET
                 
                 ;OPTIMIZER ADDED SUBROUTINE, CALLED 6 TIMES, CODE SIZE REDUCTION:7 WORDS
                 SUBOPT_0x14:
                +
0012d7 eeeb     +LDI R30 , LOW ( 2 * _0x0 + ( 377 ) )
0012d8 e0f1     +LDI R31 , HIGH ( 2 * _0x0 + ( 377 ) )
                 	__POINTW1FN _0x0,377
0012d9 cfb1      	RJMP SUBOPT_0x5
                 
                 ;OPTIMIZER ADDED SUBROUTINE, CALLED 10 TIMES, CODE SIZE REDUCTION:24 WORDS
                 SUBOPT_0x15:
0012da 93ea      	ST   -Y,R30
0012db e0e0      	LDI  R30,LOW(0)
0012dc 93ea      	ST   -Y,R30
0012dd 940c 11c7 	JMP  _lcd_gotoxy
                 
                 ;OPTIMIZER ADDED SUBROUTINE, CALLED 28 TIMES, CODE SIZE REDUCTION:51 WORDS
                 SUBOPT_0x16:
0012df e6e0      	LDI  R30,LOW(_lcd)
0012e0 e0f1      	LDI  R31,HIGH(_lcd)
0012e1 93fa      	ST   -Y,R31
0012e2 93ea      	ST   -Y,R30
0012e3 9508      	RET
                 
                 ;OPTIMIZER ADDED SUBROUTINE, CALLED 4 TIMES, CODE SIZE REDUCTION:3 WORDS
                 SUBOPT_0x17:
0012e4 e0e3      	LDI  R30,LOW(3)
0012e5 93ea      	ST   -Y,R30
0012e6 940c 022b 	JMP  _read_adc
                 
                 ;OPTIMIZER ADDED SUBROUTINE, CALLED 40 TIMES, CODE SIZE REDUCTION:114 WORDS
                 SUBOPT_0x18:
0012e8 27ff      	CLR  R31
0012e9 2766      	CLR  R22
0012ea 2777      	CLR  R23
0012eb 940e 1585 	CALL __PUTPARD1
0012ed 9508      	RET
                 
                 ;OPTIMIZER ADDED SUBROUTINE, CALLED 4 TIMES, CODE SIZE REDUCTION:3 WORDS
                 SUBOPT_0x19:
0012ee e0e2      	LDI  R30,LOW(2)
0012ef 93ea      	ST   -Y,R30
0012f0 940c 022b 	JMP  _read_adc
                 
                 ;OPTIMIZER ADDED SUBROUTINE, CALLED 4 TIMES, CODE SIZE REDUCTION:3 WORDS
                 SUBOPT_0x1A:
0012f2 e0e1      	LDI  R30,LOW(1)
0012f3 93ea      	ST   -Y,R30
0012f4 940c 022b 	JMP  _read_adc
                 
                 ;OPTIMIZER ADDED SUBROUTINE, CALLED 4 TIMES, CODE SIZE REDUCTION:3 WORDS
                 SUBOPT_0x1B:
0012f6 e0e0      	LDI  R30,LOW(0)
0012f7 93ea      	ST   -Y,R30
0012f8 940c 022b 	JMP  _read_adc
                 
                 ;OPTIMIZER ADDED SUBROUTINE, CALLED 2 TIMES, CODE SIZE REDUCTION:1 WORDS
                 SUBOPT_0x1C:
0012fa e180      	LDI  R24,16
0012fb 940e 115a 	CALL _sprintf
0012fd 9664      	ADIW R28,20
0012fe cfe0      	RJMP SUBOPT_0x16
                 
                 ;OPTIMIZER ADDED SUBROUTINE, CALLED 4 TIMES, CODE SIZE REDUCTION:3 WORDS
                 SUBOPT_0x1D:
0012ff e0e7      	LDI  R30,LOW(7)
001300 93ea      	ST   -Y,R30
001301 940c 022b 	JMP  _read_adc
                 
                 ;OPTIMIZER ADDED SUBROUTINE, CALLED 4 TIMES, CODE SIZE REDUCTION:3 WORDS
                 SUBOPT_0x1E:
001303 e0e6      	LDI  R30,LOW(6)
001304 93ea      	ST   -Y,R30
001305 940c 022b 	JMP  _read_adc
                 
                 ;OPTIMIZER ADDED SUBROUTINE, CALLED 4 TIMES, CODE SIZE REDUCTION:3 WORDS
                 SUBOPT_0x1F:
001307 e0e5      	LDI  R30,LOW(5)
001308 93ea      	ST   -Y,R30
001309 940c 022b 	JMP  _read_adc
                 
                 ;OPTIMIZER ADDED SUBROUTINE, CALLED 4 TIMES, CODE SIZE REDUCTION:3 WORDS
                 SUBOPT_0x20:
00130b e0e4      	LDI  R30,LOW(4)
00130c 93ea      	ST   -Y,R30
00130d 940c 022b 	JMP  _read_adc
                 
                 ;OPTIMIZER ADDED SUBROUTINE, CALLED 3 TIMES, CODE SIZE REDUCTION:1 WORDS
                 SUBOPT_0x21:
00130f e1a1      	LDI  R26,LOW(_bt0)
001310 e0b0      	LDI  R27,HIGH(_bt0)
001311 940e 158a 	CALL __EEPROMRDB
001313 9508      	RET
                 
                 ;OPTIMIZER ADDED SUBROUTINE, CALLED 3 TIMES, CODE SIZE REDUCTION:1 WORDS
                 SUBOPT_0x22:
001314 e1a0      	LDI  R26,LOW(_bt1)
001315 e0b0      	LDI  R27,HIGH(_bt1)
001316 940e 158a 	CALL __EEPROMRDB
001318 9508      	RET
                 
                 ;OPTIMIZER ADDED SUBROUTINE, CALLED 3 TIMES, CODE SIZE REDUCTION:1 WORDS
                 SUBOPT_0x23:
001319 e0af      	LDI  R26,LOW(_bt2)
00131a e0b0      	LDI  R27,HIGH(_bt2)
00131b 940e 158a 	CALL __EEPROMRDB
00131d 9508      	RET
                 
                 ;OPTIMIZER ADDED SUBROUTINE, CALLED 3 TIMES, CODE SIZE REDUCTION:1 WORDS
                 SUBOPT_0x24:
00131e e0ae      	LDI  R26,LOW(_bt3)
00131f e0b0      	LDI  R27,HIGH(_bt3)
001320 940e 158a 	CALL __EEPROMRDB
001322 9508      	RET
                 
                 ;OPTIMIZER ADDED SUBROUTINE, CALLED 3 TIMES, CODE SIZE REDUCTION:1 WORDS
                 SUBOPT_0x25:
001323 e0ad      	LDI  R26,LOW(_bt4)
001324 e0b0      	LDI  R27,HIGH(_bt4)
001325 940e 158a 	CALL __EEPROMRDB
001327 9508      	RET
                 
                 ;OPTIMIZER ADDED SUBROUTINE, CALLED 3 TIMES, CODE SIZE REDUCTION:1 WORDS
                 SUBOPT_0x26:
001328 e0ac      	LDI  R26,LOW(_bt5)
001329 e0b0      	LDI  R27,HIGH(_bt5)
00132a 940e 158a 	CALL __EEPROMRDB
00132c 9508      	RET
                 
                 ;OPTIMIZER ADDED SUBROUTINE, CALLED 3 TIMES, CODE SIZE REDUCTION:1 WORDS
                 SUBOPT_0x27:
00132d e0ab      	LDI  R26,LOW(_bt6)
00132e e0b0      	LDI  R27,HIGH(_bt6)
00132f 940e 158a 	CALL __EEPROMRDB
001331 9508      	RET
                 
                 ;OPTIMIZER ADDED SUBROUTINE, CALLED 3 TIMES, CODE SIZE REDUCTION:1 WORDS
                 SUBOPT_0x28:
001332 e0aa      	LDI  R26,LOW(_bt7)
001333 e0b0      	LDI  R27,HIGH(_bt7)
001334 940e 158a 	CALL __EEPROMRDB
001336 9508      	RET
                 
                 ;OPTIMIZER ADDED SUBROUTINE, CALLED 2 TIMES, CODE SIZE REDUCTION:1 WORDS
                 SUBOPT_0x29:
001337 efef      	LDI  R30,LOW(255)
001338 e0f0      	LDI  R31,HIGH(255)
001339 93e0 0187 	STS  _rpwm,R30
00133b 93f0 0188 	STS  _rpwm+1,R31
00133d 9508      	RET
                 
                 ;OPTIMIZER ADDED SUBROUTINE, CALLED 2 TIMES, CODE SIZE REDUCTION:1 WORDS
                 SUBOPT_0x2A:
00133e efef      	LDI  R30,LOW(255)
00133f e0f0      	LDI  R31,HIGH(255)
001340 93e0 0185 	STS  _lpwm,R30
001342 93f0 0186 	STS  _lpwm+1,R31
001344 9508      	RET
                 
                 ;OPTIMIZER ADDED SUBROUTINE, CALLED 13 TIMES, CODE SIZE REDUCTION:45 WORDS
                 SUBOPT_0x2B:
001345 e3e2      	LDI  R30,LOW(50)
001346 e0f0      	LDI  R31,HIGH(50)
001347 93fa      	ST   -Y,R31
001348 93ea      	ST   -Y,R30
001349 940c 1523 	JMP  _delay_ms
                 
                 ;OPTIMIZER ADDED SUBROUTINE, CALLED 8 TIMES, CODE SIZE REDUCTION:18 WORDS
                 SUBOPT_0x2C:
00134b e0e0      	LDI  R30,LOW(0)
00134c 93e0 0187 	STS  _rpwm,R30
00134e 93e0 0188 	STS  _rpwm+1,R30
001350 9508      	RET
                 
                 ;OPTIMIZER ADDED SUBROUTINE, CALLED 8 TIMES, CODE SIZE REDUCTION:18 WORDS
                 SUBOPT_0x2D:
001351 e0e0      	LDI  R30,LOW(0)
001352 93e0 0185 	STS  _lpwm,R30
001354 93e0 0186 	STS  _lpwm+1,R30
001356 9508      	RET
                 
                 ;OPTIMIZER ADDED SUBROUTINE, CALLED 4 TIMES, CODE SIZE REDUCTION:6 WORDS
                 SUBOPT_0x2E:
001357 91ed      	LD   R30,X+
001358 91fd      	LD   R31,X+
001359 9631      	ADIW R30,1
00135a 93fe      	ST   -X,R31
00135b 93ee      	ST   -X,R30
00135c 9508      	RET
                 
                 ;OPTIMIZER ADDED SUBROUTINE, CALLED 2 TIMES, CODE SIZE REDUCTION:17 WORDS
                 SUBOPT_0x2F:
                +
00135d e5eb     +LDI R30 , LOW ( 2 * _0x0 + ( 489 ) )
00135e e0f2     +LDI R31 , HIGH ( 2 * _0x0 + ( 489 ) )
                 	__POINTW1FN _0x0,489
00135f 93fa      	ST   -Y,R31
001360 93ea      	ST   -Y,R30
001361 df0a      	RCALL SUBOPT_0x0
001362 940e 1537 	CALL __CWD1
001364 940e 1585 	CALL __PUTPARD1
001366 df10      	RCALL SUBOPT_0x2
001367 940e 1537 	CALL __CWD1
001369 940e 1585 	CALL __PUTPARD1
00136b e088      	LDI  R24,8
00136c 940e 115a 	CALL _sprintf
00136e 962c      	ADIW R28,12
00136f cf6f      	RJMP SUBOPT_0x16
                 
                 ;OPTIMIZER ADDED SUBROUTINE, CALLED 2 TIMES, CODE SIZE REDUCTION:77 WORDS
                 SUBOPT_0x30:
001370 931a      	ST   -Y,R17
001371 930a      	ST   -Y,R16
001372 e1a2      	LDI  R26,LOW(_ba7)
001373 e0b0      	LDI  R27,HIGH(_ba7)
001374 e0e7      	LDI  R30,LOW(7)
001375 940e 1596 	CALL __EEPROMWRB
001377 e1a3      	LDI  R26,LOW(_ba6)
001378 e0b0      	LDI  R27,HIGH(_ba6)
001379 940e 1596 	CALL __EEPROMWRB
00137b e1a4      	LDI  R26,LOW(_ba5)
00137c e0b0      	LDI  R27,HIGH(_ba5)
00137d 940e 1596 	CALL __EEPROMWRB
00137f e1a5      	LDI  R26,LOW(_ba4)
001380 e0b0      	LDI  R27,HIGH(_ba4)
001381 940e 1596 	CALL __EEPROMWRB
001383 e1a6      	LDI  R26,LOW(_ba3)
001384 e0b0      	LDI  R27,HIGH(_ba3)
001385 940e 1596 	CALL __EEPROMWRB
001387 e1a7      	LDI  R26,LOW(_ba2)
001388 e0b0      	LDI  R27,HIGH(_ba2)
001389 940e 1596 	CALL __EEPROMWRB
00138b e1a8      	LDI  R26,LOW(_ba1)
00138c e0b0      	LDI  R27,HIGH(_ba1)
00138d 940e 1596 	CALL __EEPROMWRB
00138f e1a9      	LDI  R26,LOW(_ba0)
001390 e0b0      	LDI  R27,HIGH(_ba0)
001391 940e 1596 	CALL __EEPROMWRB
001393 e1aa      	LDI  R26,LOW(_bb7)
001394 e0b0      	LDI  R27,HIGH(_bb7)
001395 ece8      	LDI  R30,LOW(200)
001396 940e 1596 	CALL __EEPROMWRB
001398 e1ab      	LDI  R26,LOW(_bb6)
001399 e0b0      	LDI  R27,HIGH(_bb6)
00139a 940e 1596 	CALL __EEPROMWRB
00139c e1ac      	LDI  R26,LOW(_bb5)
00139d e0b0      	LDI  R27,HIGH(_bb5)
00139e 940e 1596 	CALL __EEPROMWRB
0013a0 e1ad      	LDI  R26,LOW(_bb4)
0013a1 e0b0      	LDI  R27,HIGH(_bb4)
0013a2 940e 1596 	CALL __EEPROMWRB
0013a4 e1ae      	LDI  R26,LOW(_bb3)
0013a5 e0b0      	LDI  R27,HIGH(_bb3)
0013a6 940e 1596 	CALL __EEPROMWRB
0013a8 e1af      	LDI  R26,LOW(_bb2)
0013a9 e0b0      	LDI  R27,HIGH(_bb2)
0013aa 940e 1596 	CALL __EEPROMWRB
0013ac e2a0      	LDI  R26,LOW(_bb1)
0013ad e0b0      	LDI  R27,HIGH(_bb1)
0013ae 940e 1596 	CALL __EEPROMWRB
0013b0 e2a1      	LDI  R26,LOW(_bb0)
0013b1 e0b0      	LDI  R27,HIGH(_bb0)
0013b2 940e 1596 	CALL __EEPROMWRB
0013b4 9508      	RET
                 
                 ;OPTIMIZER ADDED SUBROUTINE, CALLED 2 TIMES, CODE SIZE REDUCTION:7 WORDS
                 SUBOPT_0x31:
0013b5 2f0e      	MOV  R16,R30
0013b6 2711      	CLR  R17
0013b7 e2a1      	LDI  R26,LOW(_bb0)
0013b8 e0b0      	LDI  R27,HIGH(_bb0)
0013b9 940e 158a 	CALL __EEPROMRDB
0013bb 01d8      	MOVW R26,R16
0013bc e0f0      	LDI  R31,0
0013bd 17ae      	CP   R26,R30
0013be 07bf      	CPC  R27,R31
0013bf 9508      	RET
                 
                 ;OPTIMIZER ADDED SUBROUTINE, CALLED 5 TIMES, CODE SIZE REDUCTION:5 WORDS
                 SUBOPT_0x32:
0013c0 e1a9      	LDI  R26,LOW(_ba0)
0013c1 e0b0      	LDI  R27,HIGH(_ba0)
0013c2 940e 158a 	CALL __EEPROMRDB
0013c4 9508      	RET
                 
                 ;OPTIMIZER ADDED SUBROUTINE, CALLED 30 TIMES, CODE SIZE REDUCTION:55 WORDS
                 SUBOPT_0x33:
0013c5 01d8      	MOVW R26,R16
0013c6 e0f0      	LDI  R31,0
0013c7 9508      	RET
                 
                 ;OPTIMIZER ADDED SUBROUTINE, CALLED 3 TIMES, CODE SIZE REDUCTION:1 WORDS
                 SUBOPT_0x34:
0013c8 e2a1      	LDI  R26,LOW(_bb0)
0013c9 e0b0      	LDI  R27,HIGH(_bb0)
0013ca 940e 158a 	CALL __EEPROMRDB
0013cc 9508      	RET
                 
                 ;OPTIMIZER ADDED SUBROUTINE, CALLED 16 TIMES, CODE SIZE REDUCTION:117 WORDS
                 SUBOPT_0x35:
0013cd e0f0      	LDI  R31,0
0013ce 01d0      	MOVW R26,R0
0013cf 0fae      	ADD  R26,R30
0013d0 1fbf      	ADC  R27,R31
0013d1 e0e2      	LDI  R30,LOW(2)
0013d2 e0f0      	LDI  R31,HIGH(2)
0013d3 940e 155c 	CALL __DIVW21
0013d5 9508      	RET
                 
                 ;OPTIMIZER ADDED SUBROUTINE, CALLED 9 TIMES, CODE SIZE REDUCTION:37 WORDS
                 SUBOPT_0x36:
0013d6 940e 1596 	CALL __EEPROMWRB
0013d8 940e 11d8 	CALL _lcd_clear
0013da e0e1      	LDI  R30,LOW(1)
0013db cefe      	RJMP SUBOPT_0x15
                 
                 ;OPTIMIZER ADDED SUBROUTINE, CALLED 8 TIMES, CODE SIZE REDUCTION:11 WORDS
                 SUBOPT_0x37:
                +
0013dc e8e2     +LDI R30 , LOW ( 2 * _0x0 + ( 528 ) )
0013dd e0f2     +LDI R31 , HIGH ( 2 * _0x0 + ( 528 ) )
                 	__POINTW1FN _0x0,528
0013de 93fa      	ST   -Y,R31
0013df 93ea      	ST   -Y,R30
0013e0 9508      	RET
                 
                 ;OPTIMIZER ADDED SUBROUTINE, CALLED 8 TIMES, CODE SIZE REDUCTION:25 WORDS
                 SUBOPT_0x38:
0013e1 e08c      	LDI  R24,12
0013e2 940e 115a 	CALL _sprintf
0013e4 9660      	ADIW R28,16
0013e5 cef9      	RJMP SUBOPT_0x16
                 
                 ;OPTIMIZER ADDED SUBROUTINE, CALLED 2 TIMES, CODE SIZE REDUCTION:3 WORDS
                 SUBOPT_0x39:
0013e6 2f0e      	MOV  R16,R30
0013e7 2711      	CLR  R17
0013e8 e2a0      	LDI  R26,LOW(_bb1)
0013e9 e0b0      	LDI  R27,HIGH(_bb1)
0013ea 940e 158a 	CALL __EEPROMRDB
0013ec cfd8      	RJMP SUBOPT_0x33
                 
                 ;OPTIMIZER ADDED SUBROUTINE, CALLED 5 TIMES, CODE SIZE REDUCTION:5 WORDS
                 SUBOPT_0x3A:
0013ed e1a8      	LDI  R26,LOW(_ba1)
0013ee e0b0      	LDI  R27,HIGH(_ba1)
0013ef 940e 158a 	CALL __EEPROMRDB
0013f1 9508      	RET
                 
                 ;OPTIMIZER ADDED SUBROUTINE, CALLED 3 TIMES, CODE SIZE REDUCTION:1 WORDS
                 SUBOPT_0x3B:
0013f2 e2a0      	LDI  R26,LOW(_bb1)
0013f3 e0b0      	LDI  R27,HIGH(_bb1)
0013f4 940e 158a 	CALL __EEPROMRDB
0013f6 9508      	RET
                 
                 ;OPTIMIZER ADDED SUBROUTINE, CALLED 2 TIMES, CODE SIZE REDUCTION:3 WORDS
                 SUBOPT_0x3C:
0013f7 2f0e      	MOV  R16,R30
0013f8 2711      	CLR  R17
0013f9 e1af      	LDI  R26,LOW(_bb2)
0013fa e0b0      	LDI  R27,HIGH(_bb2)
0013fb 940e 158a 	CALL __EEPROMRDB
0013fd cfc7      	RJMP SUBOPT_0x33
                 
                 ;OPTIMIZER ADDED SUBROUTINE, CALLED 5 TIMES, CODE SIZE REDUCTION:5 WORDS
                 SUBOPT_0x3D:
0013fe e1a7      	LDI  R26,LOW(_ba2)
0013ff e0b0      	LDI  R27,HIGH(_ba2)
001400 940e 158a 	CALL __EEPROMRDB
001402 9508      	RET
                 
                 ;OPTIMIZER ADDED SUBROUTINE, CALLED 3 TIMES, CODE SIZE REDUCTION:1 WORDS
                 SUBOPT_0x3E:
001403 e1af      	LDI  R26,LOW(_bb2)
001404 e0b0      	LDI  R27,HIGH(_bb2)
001405 940e 158a 	CALL __EEPROMRDB
001407 9508      	RET
                 
                 ;OPTIMIZER ADDED SUBROUTINE, CALLED 6 TIMES, CODE SIZE REDUCTION:27 WORDS
                 SUBOPT_0x3F:
001408 940e 1205 	CALL _lcd_puts
00140a e0ea      	LDI  R30,LOW(10)
00140b e0f0      	LDI  R31,HIGH(10)
00140c 93fa      	ST   -Y,R31
00140d 93ea      	ST   -Y,R30
00140e 940c 1523 	JMP  _delay_ms
                 
                 ;OPTIMIZER ADDED SUBROUTINE, CALLED 2 TIMES, CODE SIZE REDUCTION:3 WORDS
                 SUBOPT_0x40:
001410 2f0e      	MOV  R16,R30
001411 2711      	CLR  R17
001412 e1ae      	LDI  R26,LOW(_bb3)
001413 e0b0      	LDI  R27,HIGH(_bb3)
001414 940e 158a 	CALL __EEPROMRDB
001416 cfae      	RJMP SUBOPT_0x33
                 
                 ;OPTIMIZER ADDED SUBROUTINE, CALLED 5 TIMES, CODE SIZE REDUCTION:5 WORDS
                 SUBOPT_0x41:
001417 e1a6      	LDI  R26,LOW(_ba3)
001418 e0b0      	LDI  R27,HIGH(_ba3)
001419 940e 158a 	CALL __EEPROMRDB
00141b 9508      	RET
                 
                 ;OPTIMIZER ADDED SUBROUTINE, CALLED 3 TIMES, CODE SIZE REDUCTION:1 WORDS
                 SUBOPT_0x42:
00141c e1ae      	LDI  R26,LOW(_bb3)
00141d e0b0      	LDI  R27,HIGH(_bb3)
00141e 940e 158a 	CALL __EEPROMRDB
001420 9508      	RET
                 
                 ;OPTIMIZER ADDED SUBROUTINE, CALLED 2 TIMES, CODE SIZE REDUCTION:3 WORDS
                 SUBOPT_0x43:
001421 2f0e      	MOV  R16,R30
001422 2711      	CLR  R17
001423 e1ad      	LDI  R26,LOW(_bb4)
001424 e0b0      	LDI  R27,HIGH(_bb4)
001425 940e 158a 	CALL __EEPROMRDB
001427 cf9d      	RJMP SUBOPT_0x33
                 
                 ;OPTIMIZER ADDED SUBROUTINE, CALLED 5 TIMES, CODE SIZE REDUCTION:5 WORDS
                 SUBOPT_0x44:
001428 e1a5      	LDI  R26,LOW(_ba4)
001429 e0b0      	LDI  R27,HIGH(_ba4)
00142a 940e 158a 	CALL __EEPROMRDB
00142c 9508      	RET
                 
                 ;OPTIMIZER ADDED SUBROUTINE, CALLED 3 TIMES, CODE SIZE REDUCTION:1 WORDS
                 SUBOPT_0x45:
00142d e1ad      	LDI  R26,LOW(_bb4)
00142e e0b0      	LDI  R27,HIGH(_bb4)
00142f 940e 158a 	CALL __EEPROMRDB
001431 9508      	RET
                 
                 ;OPTIMIZER ADDED SUBROUTINE, CALLED 2 TIMES, CODE SIZE REDUCTION:3 WORDS
                 SUBOPT_0x46:
001432 2f0e      	MOV  R16,R30
001433 2711      	CLR  R17
001434 e1ac      	LDI  R26,LOW(_bb5)
001435 e0b0      	LDI  R27,HIGH(_bb5)
001436 940e 158a 	CALL __EEPROMRDB
001438 cf8c      	RJMP SUBOPT_0x33
                 
                 ;OPTIMIZER ADDED SUBROUTINE, CALLED 5 TIMES, CODE SIZE REDUCTION:5 WORDS
                 SUBOPT_0x47:
001439 e1a4      	LDI  R26,LOW(_ba5)
00143a e0b0      	LDI  R27,HIGH(_ba5)
00143b 940e 158a 	CALL __EEPROMRDB
00143d 9508      	RET
                 
                 ;OPTIMIZER ADDED SUBROUTINE, CALLED 3 TIMES, CODE SIZE REDUCTION:1 WORDS
                 SUBOPT_0x48:
00143e e1ac      	LDI  R26,LOW(_bb5)
00143f e0b0      	LDI  R27,HIGH(_bb5)
001440 940e 158a 	CALL __EEPROMRDB
001442 9508      	RET
                 
                 ;OPTIMIZER ADDED SUBROUTINE, CALLED 2 TIMES, CODE SIZE REDUCTION:3 WORDS
                 SUBOPT_0x49:
001443 2f0e      	MOV  R16,R30
001444 2711      	CLR  R17
001445 e1ab      	LDI  R26,LOW(_bb6)
001446 e0b0      	LDI  R27,HIGH(_bb6)
001447 940e 158a 	CALL __EEPROMRDB
001449 cf7b      	RJMP SUBOPT_0x33
                 
                 ;OPTIMIZER ADDED SUBROUTINE, CALLED 5 TIMES, CODE SIZE REDUCTION:5 WORDS
                 SUBOPT_0x4A:
00144a e1a3      	LDI  R26,LOW(_ba6)
00144b e0b0      	LDI  R27,HIGH(_ba6)
00144c 940e 158a 	CALL __EEPROMRDB
00144e 9508      	RET
                 
                 ;OPTIMIZER ADDED SUBROUTINE, CALLED 3 TIMES, CODE SIZE REDUCTION:1 WORDS
                 SUBOPT_0x4B:
00144f e1ab      	LDI  R26,LOW(_bb6)
001450 e0b0      	LDI  R27,HIGH(_bb6)
001451 940e 158a 	CALL __EEPROMRDB
001453 9508      	RET
                 
                 ;OPTIMIZER ADDED SUBROUTINE, CALLED 2 TIMES, CODE SIZE REDUCTION:3 WORDS
                 SUBOPT_0x4C:
001454 2f0e      	MOV  R16,R30
001455 2711      	CLR  R17
001456 e1aa      	LDI  R26,LOW(_bb7)
001457 e0b0      	LDI  R27,HIGH(_bb7)
001458 940e 158a 	CALL __EEPROMRDB
00145a cf6a      	RJMP SUBOPT_0x33
                 
                 ;OPTIMIZER ADDED SUBROUTINE, CALLED 5 TIMES, CODE SIZE REDUCTION:5 WORDS
                 SUBOPT_0x4D:
00145b e1a2      	LDI  R26,LOW(_ba7)
00145c e0b0      	LDI  R27,HIGH(_ba7)
00145d 940e 158a 	CALL __EEPROMRDB
00145f 9508      	RET
                 
                 ;OPTIMIZER ADDED SUBROUTINE, CALLED 3 TIMES, CODE SIZE REDUCTION:1 WORDS
                 SUBOPT_0x4E:
001460 e1aa      	LDI  R26,LOW(_bb7)
001461 e0b0      	LDI  R27,HIGH(_bb7)
001462 940e 158a 	CALL __EEPROMRDB
001464 9508      	RET
                 
                 ;OPTIMIZER ADDED SUBROUTINE, CALLED 54 TIMES, CODE SIZE REDUCTION:103 WORDS
                 SUBOPT_0x4F:
001465 93fa      	ST   -Y,R31
001466 93ea      	ST   -Y,R30
001467 940c 1523 	JMP  _delay_ms
                 
                 ;OPTIMIZER ADDED SUBROUTINE, CALLED 14 TIMES, CODE SIZE REDUCTION:49 WORDS
                 SUBOPT_0x50:
001469 93e0 0197 	STS  _PV,R30
00146b 93f0 0198 	STS  _PV+1,R31
00146d 940c 0736 	JMP  _maju
                 
                 ;OPTIMIZER ADDED SUBROUTINE, CALLED 3 TIMES, CODE SIZE REDUCTION:3 WORDS
                 SUBOPT_0x51:
00146f e0e0      	LDI  R30,LOW(0)
001470 93e0 0197 	STS  _PV,R30
001472 93e0 0198 	STS  _PV+1,R30
001474 9508      	RET
                 
                 ;OPTIMIZER ADDED SUBROUTINE, CALLED 10 TIMES, CODE SIZE REDUCTION:15 WORDS
                 SUBOPT_0x52:
001475 93e0 0185 	STS  _lpwm,R30
001477 93f0 0186 	STS  _lpwm+1,R31
001479 9508      	RET
                 
                 ;OPTIMIZER ADDED SUBROUTINE, CALLED 10 TIMES, CODE SIZE REDUCTION:15 WORDS
                 SUBOPT_0x53:
00147a 93e0 0187 	STS  _rpwm,R30
00147c 93f0 0188 	STS  _rpwm+1,R31
00147e 9508      	RET
                 
                 ;OPTIMIZER ADDED SUBROUTINE, CALLED 4 TIMES, CODE SIZE REDUCTION:3 WORDS
                 SUBOPT_0x54:
00147f 91a0 0197 	LDS  R26,_PV
001481 91b0 0198 	LDS  R27,_PV+1
001483 9508      	RET
                 
                 ;OPTIMIZER ADDED SUBROUTINE, CALLED 14 TIMES, CODE SIZE REDUCTION:23 WORDS
                 SUBOPT_0x55:
001484 91e0 0189 	LDS  R30,_MAXPWM
001486 91f0 018a 	LDS  R31,_MAXPWM+1
001488 9508      	RET
                 
                 ;OPTIMIZER ADDED SUBROUTINE, CALLED 2 TIMES, CODE SIZE REDUCTION:1 WORDS
                 SUBOPT_0x56:
001489 dfeb      	RCALL SUBOPT_0x52
00148a dff9      	RCALL SUBOPT_0x55
00148b cfee      	RJMP SUBOPT_0x53
                 
                 ;OPTIMIZER ADDED SUBROUTINE, CALLED 4 TIMES, CODE SIZE REDUCTION:3 WORDS
                 SUBOPT_0x57:
00148c 91e0 0199 	LDS  R30,_error
00148e 91f0 019a 	LDS  R31,_error+1
001490 9508      	RET
                 
                 ;OPTIMIZER ADDED SUBROUTINE, CALLED 2 TIMES, CODE SIZE REDUCTION:7 WORDS
                 SUBOPT_0x58:
001491 91e0 018d 	LDS  R30,_intervalPWM
001493 91f0 018e 	LDS  R31,_intervalPWM+1
001495 91a0 018b 	LDS  R26,_MINPWM
001497 91b0 018c 	LDS  R27,_MINPWM+1
001499 0fea      	ADD  R30,R26
00149a 1ffb      	ADC  R31,R27
00149b cfe3      	RJMP SUBOPT_0x54
                 
                 ;OPTIMIZER ADDED SUBROUTINE, CALLED 5 TIMES, CODE SIZE REDUCTION:5 WORDS
                 SUBOPT_0x59:
00149c e0e5      	LDI  R30,LOW(5)
00149d e0f0      	LDI  R31,HIGH(5)
00149e cfc6      	RJMP SUBOPT_0x4F
                 
                 ;OPTIMIZER ADDED SUBROUTINE, CALLED 4 TIMES, CODE SIZE REDUCTION:3 WORDS
                 SUBOPT_0x5A:
00149f 940e 0742 	CALL _stop
0014a1 940c 0e67 	JMP  _indikatorSudut
                 
                 ;OPTIMIZER ADDED SUBROUTINE, CALLED 5 TIMES, CODE SIZE REDUCTION:5 WORDS
                 SUBOPT_0x5B:
0014a3 dfe0      	RCALL SUBOPT_0x55
0014a4 cfd0      	RJMP SUBOPT_0x52
                 
                 ;OPTIMIZER ADDED SUBROUTINE, CALLED 8 TIMES, CODE SIZE REDUCTION:11 WORDS
                 SUBOPT_0x5C:
0014a5 940e 065d 	CALL _baca_sensor
0014a7 efef      	LDI  R30,LOW(255)
0014a8 169e      	CP   R9,R30
0014a9 9508      	RET
                 
                 ;OPTIMIZER ADDED SUBROUTINE, CALLED 10 TIMES, CODE SIZE REDUCTION:15 WORDS
                 SUBOPT_0x5D:
0014aa e0ea      	LDI  R30,LOW(10)
0014ab e0f0      	LDI  R31,HIGH(10)
0014ac cfb8      	RJMP SUBOPT_0x4F
                 
                 ;OPTIMIZER ADDED SUBROUTINE, CALLED 2 TIMES, CODE SIZE REDUCTION:1 WORDS
                 SUBOPT_0x5E:
0014ad dfd6      	RCALL SUBOPT_0x55
0014ae dfcb      	RCALL SUBOPT_0x53
0014af 940c 0756 	JMP  _rotkir
                 
                 ;OPTIMIZER ADDED SUBROUTINE, CALLED 7 TIMES, CODE SIZE REDUCTION:9 WORDS
                 SUBOPT_0x5F:
0014b1 e0a9      	LDI  R26,LOW(_NoStrategi)
0014b2 e0b0      	LDI  R27,HIGH(_NoStrategi)
0014b3 940e 158a 	CALL __EEPROMRDB
0014b5 9508      	RET
                 
                 ;OPTIMIZER ADDED SUBROUTINE, CALLED 8 TIMES, CODE SIZE REDUCTION:11 WORDS
                 SUBOPT_0x60:
0014b6 940e 1596 	CALL __EEPROMWRB
0014b8 ce8c      	RJMP SUBOPT_0x2B
                 
                 ;OPTIMIZER ADDED SUBROUTINE, CALLED 8 TIMES, CODE SIZE REDUCTION:11 WORDS
                 SUBOPT_0x61:
                +
0014b9 e3e5     +LDI R30 , LOW ( 2 * _0x0 + ( 707 ) )
0014ba e0f3     +LDI R31 , HIGH ( 2 * _0x0 + ( 707 ) )
                 	__POINTW1FN _0x0,707
0014bb cdcf      	RJMP SUBOPT_0x5
                 
                 ;OPTIMIZER ADDED SUBROUTINE, CALLED 32 TIMES, CODE SIZE REDUCTION:59 WORDS
                 SUBOPT_0x62:
0014bc efea      	LDI  R30,LOW(250)
0014bd e0f0      	LDI  R31,HIGH(250)
0014be cfa6      	RJMP SUBOPT_0x4F
                 
                 ;OPTIMIZER ADDED SUBROUTINE, CALLED 2 TIMES, CODE SIZE REDUCTION:2 WORDS
                 SUBOPT_0x63:
0014bf 98c3      	CBI  0x18,3
0014c0 940e 0e77 	CALL _cariPerempatanKanan
0014c2 940e 0e94 	CALL _cariPerempatanKiri
0014c4 940c 0e94 	JMP  _cariPerempatanKiri
                 
                 ;OPTIMIZER ADDED SUBROUTINE, CALLED 5 TIMES, CODE SIZE REDUCTION:5 WORDS
                 SUBOPT_0x64:
0014c6 940e 0e77 	CALL _cariPerempatanKanan
0014c8 940c 0e94 	JMP  _cariPerempatanKiri
                 
                 ;OPTIMIZER ADDED SUBROUTINE, CALLED 8 TIMES, CODE SIZE REDUCTION:39 WORDS
                 SUBOPT_0x65:
0014ca 940e 0736 	CALL _maju
0014cc 940e 06f1 	CALL _displaySensorBit
0014ce 940e 0b56 	CALL _scanBlackLine
0014d0 940c 0cb9 	JMP  _scanSudut
                 
                 ;OPTIMIZER ADDED SUBROUTINE, CALLED 6 TIMES, CODE SIZE REDUCTION:7 WORDS
                 SUBOPT_0x66:
0014d2 940e 0742 	CALL _stop
0014d4 940c 0e68 	JMP  _indikatorPerempatan
                 
                 ;OPTIMIZER ADDED SUBROUTINE, CALLED 2 TIMES, CODE SIZE REDUCTION:1 WORDS
                 SUBOPT_0x67:
0014d6 dfad      	RCALL SUBOPT_0x55
0014d7 dfa2      	RCALL SUBOPT_0x53
0014d8 ce78      	RJMP SUBOPT_0x2D
                 
                 ;OPTIMIZER ADDED SUBROUTINE, CALLED 6 TIMES, CODE SIZE REDUCTION:12 WORDS
                 SUBOPT_0x68:
0014d9 940e 158a 	CALL __EEPROMRDB
0014db e0f0      	LDI  R31,0
0014dc 9508      	RET
                 
                 ;OPTIMIZER ADDED SUBROUTINE, CALLED 5 TIMES, CODE SIZE REDUCTION:21 WORDS
                 SUBOPT_0x69:
0014dd 932a      	ST   -Y,R18
0014de 85ed      	LDD  R30,Y+13
0014df 85fe      	LDD  R31,Y+13+1
0014e0 93fa      	ST   -Y,R31
0014e1 93ea      	ST   -Y,R30
0014e2 89e9      	LDD  R30,Y+17
0014e3 89fa      	LDD  R31,Y+17+1
0014e4 9509      	ICALL
0014e5 9508      	RET
                 
                 ;OPTIMIZER ADDED SUBROUTINE, CALLED 5 TIMES, CODE SIZE REDUCTION:9 WORDS
                 SUBOPT_0x6A:
0014e6 89e8      	LDD  R30,Y+16
0014e7 89f9      	LDD  R31,Y+16+1
0014e8 9734      	SBIW R30,4
0014e9 8be8      	STD  Y+16,R30
0014ea 8bf9      	STD  Y+16+1,R31
0014eb 9508      	RET
                 
                 ;OPTIMIZER ADDED SUBROUTINE, CALLED 3 TIMES, CODE SIZE REDUCTION:7 WORDS
                 SUBOPT_0x6B:
0014ec 85ed      	LDD  R30,Y+13
0014ed 85fe      	LDD  R31,Y+13+1
0014ee 93fa      	ST   -Y,R31
0014ef 93ea      	ST   -Y,R30
0014f0 89e9      	LDD  R30,Y+17
0014f1 89fa      	LDD  R31,Y+17+1
0014f2 9509      	ICALL
0014f3 9508      	RET
                 
                 ;OPTIMIZER ADDED SUBROUTINE, CALLED 2 TIMES, CODE SIZE REDUCTION:6 WORDS
                 SUBOPT_0x6C:
0014f4 89a8      	LDD  R26,Y+16
0014f5 89b9      	LDD  R27,Y+16+1
0014f6 9614      	ADIW R26,4
0014f7 940e 157d 	CALL __GETW1P
0014f9 83ee      	STD  Y+6,R30
0014fa 83ff      	STD  Y+6+1,R31
0014fb 93fa      	ST   -Y,R31
0014fc 93ea      	ST   -Y,R30
0014fd 9508      	RET
                 
                 ;OPTIMIZER ADDED SUBROUTINE, CALLED 2 TIMES, CODE SIZE REDUCTION:2 WORDS
                 SUBOPT_0x6D:
0014fe 89a8      	LDD  R26,Y+16
0014ff 89b9      	LDD  R27,Y+16+1
001500 9614      	ADIW R26,4
001501 940e 157d 	CALL __GETW1P
001503 87ea      	STD  Y+10,R30
001504 87fb      	STD  Y+10+1,R31
001505 9508      	RET
                 
                 ;OPTIMIZER ADDED SUBROUTINE, CALLED 2 TIMES, CODE SIZE REDUCTION:1 WORDS
                 SUBOPT_0x6E:
001506 01de      	MOVW R26,R28
001507 961c      	ADIW R26,12
001508 940e 152f 	CALL __ADDW2R15
00150a 940e 157d 	CALL __GETW1P
00150c 9508      	RET
                 
                 ;OPTIMIZER ADDED SUBROUTINE, CALLED 2 TIMES, CODE SIZE REDUCTION:1 WORDS
                 SUBOPT_0x6F:
00150d 9ac0      	SBI  0x18,0
00150e 81e8      	LD   R30,Y
00150f 93ea      	ST   -Y,R30
001510 940e 11b4 	CALL __lcd_write_data
001512 98c0      	CBI  0x18,0
001513 9508      	RET
                 
                 ;OPTIMIZER ADDED SUBROUTINE, CALLED 2 TIMES, CODE SIZE REDUCTION:2 WORDS
                 SUBOPT_0x70:
001514 93ea      	ST   -Y,R30
001515 940e 11b4 	CALL __lcd_write_data
001517 e0e3      	LDI  R30,LOW(3)
001518 e0f0      	LDI  R31,HIGH(3)
001519 cf4b      	RJMP SUBOPT_0x4F
                 
                 ;OPTIMIZER ADDED SUBROUTINE, CALLED 3 TIMES, CODE SIZE REDUCTION:9 WORDS
                 SUBOPT_0x71:
00151a e3e0      	LDI  R30,LOW(48)
00151b 93ea      	ST   -Y,R30
00151c 940e 1190 	CALL __lcd_write_nibble_G101
                +
00151e e28c     +LDI R24 , LOW ( 300 )
00151f e091     +LDI R25 , HIGH ( 300 )
                +__DELAY_USW_LOOP :
001520 9701     +SBIW R24 , 1
001521 f7f1     +BRNE __DELAY_USW_LOOP
                 	__DELAY_USW 300
001522 9508      	RET
                 
                 
                 	.CSEG
                 _delay_ms:
001523 91e9      	ld   r30,y+
001524 91f9      	ld   r31,y+
001525 9630      	adiw r30,0
001526 f039      	breq __delay_ms1
                 __delay_ms0:
                +
001527 eb88     +LDI R24 , LOW ( 0xBB8 )
001528 e09b     +LDI R25 , HIGH ( 0xBB8 )
                +__DELAY_USW_LOOP :
001529 9701     +SBIW R24 , 1
00152a f7f1     +BRNE __DELAY_USW_LOOP
                 	__DELAY_USW 0xBB8
00152b 95a8      	wdr
00152c 9731      	sbiw r30,1
00152d f7c9      	brne __delay_ms0
                 __delay_ms1:
00152e 9508      	ret
                 
                 __ADDW2R15:
00152f 2400      	CLR  R0
001530 0daf      	ADD  R26,R15
001531 1db0      	ADC  R27,R0
001532 9508      	RET
                 
                 __ANEGW1:
001533 95f1      	NEG  R31
001534 95e1      	NEG  R30
001535 40f0      	SBCI R31,0
001536 9508      	RET
                 
                 __CWD1:
001537 2f6f      	MOV  R22,R31
001538 0f66      	ADD  R22,R22
001539 0b66      	SBC  R22,R22
00153a 2f76      	MOV  R23,R22
00153b 9508      	RET
                 
                 __MULW12U:
00153c 9ffa      	MUL  R31,R26
00153d 2df0      	MOV  R31,R0
00153e 9feb      	MUL  R30,R27
00153f 0df0      	ADD  R31,R0
001540 9fea      	MUL  R30,R26
001541 2de0      	MOV  R30,R0
001542 0df1      	ADD  R31,R1
001543 9508      	RET
                 
                 __MULW12:
001544 d02a      	RCALL __CHKSIGNW
001545 dff6      	RCALL __MULW12U
001546 f40e      	BRTC __MULW121
001547 dfeb      	RCALL __ANEGW1
                 __MULW121:
001548 9508      	RET
                 
                 __DIVW21U:
001549 2400      	CLR  R0
00154a 2411      	CLR  R1
00154b e190      	LDI  R25,16
                 __DIVW21U1:
00154c 0faa      	LSL  R26
00154d 1fbb      	ROL  R27
00154e 1c00      	ROL  R0
00154f 1c11      	ROL  R1
001550 1a0e      	SUB  R0,R30
001551 0a1f      	SBC  R1,R31
001552 f418      	BRCC __DIVW21U2
001553 0e0e      	ADD  R0,R30
001554 1e1f      	ADC  R1,R31
001555 c001      	RJMP __DIVW21U3
                 __DIVW21U2:
001556 60a1      	SBR  R26,1
                 __DIVW21U3:
001557 959a      	DEC  R25
001558 f799      	BRNE __DIVW21U1
001559 01fd      	MOVW R30,R26
00155a 01d0      	MOVW R26,R0
00155b 9508      	RET
                 
                 __DIVW21:
00155c d012      	RCALL __CHKSIGNW
00155d dfeb      	RCALL __DIVW21U
00155e f40e      	BRTC __DIVW211
00155f dfd3      	RCALL __ANEGW1
                 __DIVW211:
001560 9508      	RET
                 
                 __MODW21:
001561 94e8      	CLT
001562 ffb7      	SBRS R27,7
001563 c004      	RJMP __MODW211
001564 95a0      	COM  R26
001565 95b0      	COM  R27
001566 9611      	ADIW R26,1
001567 9468      	SET
                 __MODW211:
001568 fdf7      	SBRC R31,7
001569 dfc9      	RCALL __ANEGW1
00156a dfde      	RCALL __DIVW21U
00156b 01fd      	MOVW R30,R26
00156c f40e      	BRTC __MODW212
00156d dfc5      	RCALL __ANEGW1
                 __MODW212:
00156e 9508      	RET
                 
                 __CHKSIGNW:
00156f 94e8      	CLT
001570 fff7      	SBRS R31,7
001571 c002      	RJMP __CHKSW1
001572 dfc0      	RCALL __ANEGW1
001573 9468      	SET
                 __CHKSW1:
001574 ffb7      	SBRS R27,7
001575 c006      	RJMP __CHKSW2
001576 95a0      	COM  R26
001577 95b0      	COM  R27
001578 9611      	ADIW R26,1
001579 f800      	BLD  R0,0
00157a 9403      	INC  R0
00157b fa00      	BST  R0,0
                 __CHKSW2:
00157c 9508      	RET
                 
                 __GETW1P:
00157d 91ed      	LD   R30,X+
00157e 91fc      	LD   R31,X
00157f 9711      	SBIW R26,1
001580 9508      	RET
                 
                 __GETW1PF:
001581 9005      	LPM  R0,Z+
001582 91f4      	LPM  R31,Z
001583 2de0      	MOV  R30,R0
001584 9508      	RET
                 
                 __PUTPARD1:
001585 937a      	ST   -Y,R23
001586 936a      	ST   -Y,R22
001587 93fa      	ST   -Y,R31
001588 93ea      	ST   -Y,R30
001589 9508      	RET
                 
                 __EEPROMRDB:
00158a 99e1      	SBIC EECR,EEWE
00158b cffe      	RJMP __EEPROMRDB
00158c 93ff      	PUSH R31
00158d b7ff      	IN   R31,SREG
00158e 94f8      	CLI
00158f bbae      	OUT  EEARL,R26
001590 bbbf      	OUT  EEARH,R27
001591 9ae0      	SBI  EECR,EERE
001592 b3ed      	IN   R30,EEDR
001593 bfff      	OUT  SREG,R31
001594 91ff      	POP  R31
001595 9508      	RET
                 
                 __EEPROMWRB:
001596 9be1      	SBIS EECR,EEWE
001597 c002      	RJMP __EEPROMWRB1
001598 95a8      	WDR
001599 cffc      	RJMP __EEPROMWRB
                 __EEPROMWRB1:
00159a b79f      	IN   R25,SREG
00159b 94f8      	CLI
00159c bbae      	OUT  EEARL,R26
00159d bbbf      	OUT  EEARH,R27
00159e 9ae0      	SBI  EECR,EERE
00159f b38d      	IN   R24,EEDR
0015a0 17e8      	CP   R30,R24
0015a1 f019      	BREQ __EEPROMWRB0
0015a2 bbed      	OUT  EEDR,R30
0015a3 9ae2      	SBI  EECR,EEMWE
0015a4 9ae1      	SBI  EECR,EEWE
                 __EEPROMWRB0:
0015a5 bf9f      	OUT  SREG,R25
0015a6 9508      	RET
                 
                 __CPW02:
0015a7 2400      	CLR  R0
0015a8 160a      	CP   R0,R26
0015a9 060b      	CPC  R0,R27
0015aa 9508      	RET
                 
                 __SAVELOCR6:
0015ab 935a      	ST   -Y,R21
                 __SAVELOCR5:
0015ac 934a      	ST   -Y,R20
                 __SAVELOCR4:
0015ad 933a      	ST   -Y,R19
                 __SAVELOCR3:
0015ae 932a      	ST   -Y,R18
                 __SAVELOCR2:
0015af 931a      	ST   -Y,R17
0015b0 930a      	ST   -Y,R16
0015b1 9508      	RET
                 
                 __LOADLOCR6:
0015b2 815d      	LDD  R21,Y+5
                 __LOADLOCR5:
0015b3 814c      	LDD  R20,Y+4
                 __LOADLOCR4:
0015b4 813b      	LDD  R19,Y+3
                 __LOADLOCR3:
0015b5 812a      	LDD  R18,Y+2
                 __LOADLOCR2:
0015b6 8119      	LDD  R17,Y+1
0015b7 8108      	LD   R16,Y
0015b8 9508      	RET
                 
                 ;END OF CODE MARKER
                 __END_OF_CODE:


RESOURCE USE INFORMATION
------------------------

Notice:
The register and instruction counts are symbol table hit counts,
and hence implicitly used resources are not counted, eg, the
'lpm' instruction without operands implicitly uses r0 and z,
none of which are counted.

x,y,z are separate entities in the symbol table and are
counted separately from r26..r31 here.

.dseg memory usage only counts static data declared with .byte

ATmega16 register use summary:
r0 :  44 r1 :  23 r2 :  32 r3 :   0 r4 :   9 r5 :   1 r6 :   9 r7 :   9 
r8 :   2 r9 :  21 r10:   2 r11:   2 r12:   2 r13:   2 r14:   0 r15:   4 
r16: 102 r17:  83 r18:  29 r19:  16 r20:   9 r21:  17 r22:  12 r23:   3 
r24:  31 r25:   9 r26: 381 r27: 236 r28:  23 r29:   1 r30: 863 r31: 329 
x  :  27 y  : 322 z  :  17 
Registers used: 33 out of 35 (94.3%)

ATmega16 instruction use summary:
.lds  :   0 .lds.l:   0 .sts  :   0 .sts.l:   0 adc   :   9 add   :  14 
adiw  :  36 and   :   0 andi  :   8 asr   :   0 bclr  :   0 bld   :  17 
brbc  :   0 brbs  :   0 brcc  :   1 brcs  :   0 break :   0 breq  :  33 
brge  :  36 brhc  :   0 brhs  :   0 brid  :   0 brie  :   0 brlo  :  16 
brlt  :   2 brmi  :   1 brne  : 104 brpl  :   2 brsh  :  25 brtc  :   3 
brts  :   0 brvc  :   0 brvs  :   0 bset  :   0 bst   :   1 call  : 941 
cbi   :  37 cbr   :   0 clc   :   0 clh   :   0 cli   :   3 cln   :   0 
clr   :  40 cls   :   0 clt   :  10 clv   :   0 clz   :   0 com   :   5 
cp    :  61 cpc   :  84 cpi   : 109 cpse  :   0 dec   :  10 des   :   0 
eor   :   8 fmul  :   0 fmuls :   0 fmulsu:   0 icall :   2 ijmp  :   0 
in    :   6 inc   :   5 jmp   :  54 ld    :  51 ldd   :  95 ldi   : 793 
lds   :  45 lpm   :  18 lsl   :   4 lsr   :   0 mov   : 105 movw  :  22 
mul   :   4 muls  :   0 mulsu :   0 neg   :   2 nop   :   0 or    :   8 
ori   :   8 out   :  35 pop   :   2 push  :   2 rcall :  87 ret   : 104 
reti  :   1 rjmp  : 432 rol   :   3 ror   :   0 sbc   :   7 sbci  :   5 
sbi   :  40 sbic  :  96 sbis  :  10 sbiw  :  24 sbr   :   1 sbrc  :   3 
sbrs  :  21 sec   :   0 seh   :   0 sei   :   1 sen   :   0 ser   :   0 
ses   :   0 set   :  10 sev   :   0 sez   :   0 sleep :   0 spm   :   0 
st    : 169 std   :  37 sts   :  61 sub   :   6 subi  :  32 swap  :   1 
tst   :   5 wdr   :   2 
Instructions used: 70 out of 116 (60.3%)

ATmega16 memory use summary [bytes]:
Segment   Begin    End      Code   Data   Used    Size   Use%
---------------------------------------------------------------
[.cseg] 0x000000 0x002b72  10264    858  11122   16384  67.9%
[.dseg] 0x000060 0x0001ac      0     76     76    1119   6.8%
[.eseg] 0x000000 0x000022      0     34     34     512   6.6%

Assembly complete, 0 errors, 12 warnings
