
AVRASM ver. 2.1.17  C:\Documents and Settings\fishnrabbit\Desktop\pROGRAM\Dock_cart\List\Dock_Cart.asm Mon Nov 29 17:35:39 2010

C:\Documents and Settings\fishnrabbit\Desktop\pROGRAM\Dock_cart\List\Dock_Cart.asm(1026): warning: Register r4 already defined by the .DEF directive
C:\Documents and Settings\fishnrabbit\Desktop\pROGRAM\Dock_cart\List\Dock_Cart.asm(1027): warning: Register r6 already defined by the .DEF directive
C:\Documents and Settings\fishnrabbit\Desktop\pROGRAM\Dock_cart\List\Dock_Cart.asm(1028): warning: Register r8 already defined by the .DEF directive
C:\Documents and Settings\fishnrabbit\Desktop\pROGRAM\Dock_cart\List\Dock_Cart.asm(1029): warning: Register r10 already defined by the .DEF directive
C:\Documents and Settings\fishnrabbit\Desktop\pROGRAM\Dock_cart\List\Dock_Cart.asm(1030): warning: Register r12 already defined by the .DEF directive
                 
                 
                 ;CodeVisionAVR C Compiler V2.03.4 Standard
                 ;(C) Copyright 1998-2008 Pavel Haiduc, HP InfoTech s.r.l.
                 ;http://www.hpinfotech.com
                 
                 ;Chip type              : ATmega16
                 ;Program type           : Application
                 ;Clock frequency        : 8.000000 MHz
                 ;Memory model           : Small
                 ;Optimize for           : Size
                 ;(s)printf features     : int, width
                 ;(s)scanf features      : int, width
                 ;External RAM size      : 0
                 ;Data Stack size        : 256 byte(s)
                 ;Heap size              : 0 byte(s)
                 ;Promote char to int    : Yes
                 ;char is unsigned       : Yes
                 ;global const stored in FLASH  : No
                 ;8 bit enums            : Yes
                 ;Enhanced core instructions    : On
                 ;Smart register allocation : On
                 ;Automatic register allocation : On
                 
                 	#pragma AVRPART ADMIN PART_NAME ATmega16
                 	#pragma AVRPART MEMORY PROG_FLASH 16384
                 	#pragma AVRPART MEMORY EEPROM 512
                 	#pragma AVRPART MEMORY INT_SRAM SIZE 1024
                 	#pragma AVRPART MEMORY INT_SRAM START_ADDR 0x60
                 
                 	.LISTMAC
                 	.EQU UDRE=0x5
                 	.EQU RXC=0x7
                 	.EQU USR=0xB
                 	.EQU UDR=0xC
                 	.EQU SPSR=0xE
                 	.EQU SPDR=0xF
                 	.EQU EERE=0x0
                 	.EQU EEWE=0x1
                 	.EQU EEMWE=0x2
                 	.EQU EECR=0x1C
                 	.EQU EEDR=0x1D
                 	.EQU EEARL=0x1E
                 	.EQU EEARH=0x1F
                 	.EQU WDTCR=0x21
                 	.EQU MCUCR=0x35
                 	.EQU GICR=0x3B
                 	.EQU SPL=0x3D
                 	.EQU SPH=0x3E
                 	.EQU SREG=0x3F
                 
                 	.DEF R0X0=R0
                 	.DEF R0X1=R1
                 	.DEF R0X2=R2
                 	.DEF R0X3=R3
                 	.DEF R0X4=R4
                 	.DEF R0X5=R5
                 	.DEF R0X6=R6
                 	.DEF R0X7=R7
                 	.DEF R0X8=R8
                 	.DEF R0X9=R9
                 	.DEF R0XA=R10
                 	.DEF R0XB=R11
                 	.DEF R0XC=R12
                 	.DEF R0XD=R13
                 	.DEF R0XE=R14
                 	.DEF R0XF=R15
                 	.DEF R0X10=R16
                 	.DEF R0X11=R17
                 	.DEF R0X12=R18
                 	.DEF R0X13=R19
                 	.DEF R0X14=R20
                 	.DEF R0X15=R21
                 	.DEF R0X16=R22
                 	.DEF R0X17=R23
                 	.DEF R0X18=R24
                 	.DEF R0X19=R25
                 	.DEF R0X1A=R26
                 	.DEF R0X1B=R27
                 	.DEF R0X1C=R28
                 	.DEF R0X1D=R29
                 	.DEF R0X1E=R30
                 	.DEF R0X1F=R31
                 
                 	.MACRO __CPD1N
                 	CPI  R30,LOW(@0)
                 	LDI  R26,HIGH(@0)
                 	CPC  R31,R26
                 	LDI  R26,BYTE3(@0)
                 	CPC  R22,R26
                 	LDI  R26,BYTE4(@0)
                 	CPC  R23,R26
                 	.ENDM
                 
                 	.MACRO __CPD2N
                 	CPI  R26,LOW(@0)
                 	LDI  R30,HIGH(@0)
                 	CPC  R27,R30
                 	LDI  R30,BYTE3(@0)
                 	CPC  R24,R30
                 	LDI  R30,BYTE4(@0)
                 	CPC  R25,R30
                 	.ENDM
                 
                 	.MACRO __CPWRR
                 	CP   R@0,R@2
                 	CPC  R@1,R@3
                 	.ENDM
                 
                 	.MACRO __CPWRN
                 	CPI  R@0,LOW(@2)
                 	LDI  R30,HIGH(@2)
                 	CPC  R@1,R30
                 	.ENDM
                 
                 	.MACRO __ADDB1MN
                 	SUBI R30,LOW(-@0-(@1))
                 	.ENDM
                 
                 	.MACRO __ADDB2MN
                 	SUBI R26,LOW(-@0-(@1))
                 	.ENDM
                 
                 	.MACRO __ADDW1MN
                 	SUBI R30,LOW(-@0-(@1))
                 	SBCI R31,HIGH(-@0-(@1))
                 	.ENDM
                 
                 	.MACRO __ADDW2MN
                 	SUBI R26,LOW(-@0-(@1))
                 	SBCI R27,HIGH(-@0-(@1))
                 	.ENDM
                 
                 	.MACRO __ADDW1FN
                 	SUBI R30,LOW(-2*@0-(@1))
                 	SBCI R31,HIGH(-2*@0-(@1))
                 	.ENDM
                 
                 	.MACRO __ADDD1FN
                 	SUBI R30,LOW(-2*@0-(@1))
                 	SBCI R31,HIGH(-2*@0-(@1))
                 	SBCI R22,BYTE3(-2*@0-(@1))
                 	.ENDM
                 
                 	.MACRO __ADDD1N
                 	SUBI R30,LOW(-@0)
                 	SBCI R31,HIGH(-@0)
                 	SBCI R22,BYTE3(-@0)
                 	SBCI R23,BYTE4(-@0)
                 	.ENDM
                 
                 	.MACRO __ADDD2N
                 	SUBI R26,LOW(-@0)
                 	SBCI R27,HIGH(-@0)
                 	SBCI R24,BYTE3(-@0)
                 	SBCI R25,BYTE4(-@0)
                 	.ENDM
                 
                 	.MACRO __SUBD1N
                 	SUBI R30,LOW(@0)
                 	SBCI R31,HIGH(@0)
                 	SBCI R22,BYTE3(@0)
                 	SBCI R23,BYTE4(@0)
                 	.ENDM
                 
                 	.MACRO __SUBD2N
                 	SUBI R26,LOW(@0)
                 	SBCI R27,HIGH(@0)
                 	SBCI R24,BYTE3(@0)
                 	SBCI R25,BYTE4(@0)
                 	.ENDM
                 
                 	.MACRO __ANDBMNN
                 	LDS  R30,@0+@1
                 	ANDI R30,LOW(@2)
                 	STS  @0+@1,R30
                 	.ENDM
                 
                 	.MACRO __ANDWMNN
                 	LDS  R30,@0+@1
                 	ANDI R30,LOW(@2)
                 	STS  @0+@1,R30
                 	LDS  R30,@0+@1+1
                 	ANDI R30,HIGH(@2)
                 	STS  @0+@1+1,R30
                 	.ENDM
                 
                 	.MACRO __ANDD1N
                 	ANDI R30,LOW(@0)
                 	ANDI R31,HIGH(@0)
                 	ANDI R22,BYTE3(@0)
                 	ANDI R23,BYTE4(@0)
                 	.ENDM
                 
                 	.MACRO __ANDD2N
                 	ANDI R26,LOW(@0)
                 	ANDI R27,HIGH(@0)
                 	ANDI R24,BYTE3(@0)
                 	ANDI R25,BYTE4(@0)
                 	.ENDM
                 
                 	.MACRO __ORBMNN
                 	LDS  R30,@0+@1
                 	ORI  R30,LOW(@2)
                 	STS  @0+@1,R30
                 	.ENDM
                 
                 	.MACRO __ORWMNN
                 	LDS  R30,@0+@1
                 	ORI  R30,LOW(@2)
                 	STS  @0+@1,R30
                 	LDS  R30,@0+@1+1
                 	ORI  R30,HIGH(@2)
                 	STS  @0+@1+1,R30
                 	.ENDM
                 
                 	.MACRO __ORD1N
                 	ORI  R30,LOW(@0)
                 	ORI  R31,HIGH(@0)
                 	ORI  R22,BYTE3(@0)
                 	ORI  R23,BYTE4(@0)
                 	.ENDM
                 
                 	.MACRO __ORD2N
                 	ORI  R26,LOW(@0)
                 	ORI  R27,HIGH(@0)
                 	ORI  R24,BYTE3(@0)
                 	ORI  R25,BYTE4(@0)
                 	.ENDM
                 
                 	.MACRO __DELAY_USB
                 	LDI  R24,LOW(@0)
                 __DELAY_USB_LOOP:
                 	DEC  R24
                 	BRNE __DELAY_USB_LOOP
                 	.ENDM
                 
                 	.MACRO __DELAY_USW
                 	LDI  R24,LOW(@0)
                 	LDI  R25,HIGH(@0)
                 __DELAY_USW_LOOP:
                 	SBIW R24,1
                 	BRNE __DELAY_USW_LOOP
                 	.ENDM
                 
                 	.MACRO __CLRD1S
                 	LDI  R30,0
                 	STD  Y+@0,R30
                 	STD  Y+@0+1,R30
                 	STD  Y+@0+2,R30
                 	STD  Y+@0+3,R30
                 	.ENDM
                 
                 	.MACRO __GETD1S
                 	LDD  R30,Y+@0
                 	LDD  R31,Y+@0+1
                 	LDD  R22,Y+@0+2
                 	LDD  R23,Y+@0+3
                 	.ENDM
                 
                 	.MACRO __PUTD1S
                 	STD  Y+@0,R30
                 	STD  Y+@0+1,R31
                 	STD  Y+@0+2,R22
                 	STD  Y+@0+3,R23
                 	.ENDM
                 
                 	.MACRO __PUTD2S
                 	STD  Y+@0,R26
                 	STD  Y+@0+1,R27
                 	STD  Y+@0+2,R24
                 	STD  Y+@0+3,R25
                 	.ENDM
                 
                 	.MACRO __POINTB1MN
                 	LDI  R30,LOW(@0+@1)
                 	.ENDM
                 
                 	.MACRO __POINTW1MN
                 	LDI  R30,LOW(@0+@1)
                 	LDI  R31,HIGH(@0+@1)
                 	.ENDM
                 
                 	.MACRO __POINTD1M
                 	LDI  R30,LOW(@0)
                 	LDI  R31,HIGH(@0)
                 	LDI  R22,BYTE3(@0)
                 	LDI  R23,BYTE4(@0)
                 	.ENDM
                 
                 	.MACRO __POINTW1FN
                 	LDI  R30,LOW(2*@0+@1)
                 	LDI  R31,HIGH(2*@0+@1)
                 	.ENDM
                 
                 	.MACRO __POINTD1FN
                 	LDI  R30,LOW(2*@0+@1)
                 	LDI  R31,HIGH(2*@0+@1)
                 	LDI  R22,BYTE3(2*@0+@1)
                 	LDI  R23,BYTE4(2*@0+@1)
                 	.ENDM
                 
                 	.MACRO __POINTB2MN
                 	LDI  R26,LOW(@0+@1)
                 	.ENDM
                 
                 	.MACRO __POINTW2MN
                 	LDI  R26,LOW(@0+@1)
                 	LDI  R27,HIGH(@0+@1)
                 	.ENDM
                 
                 	.MACRO __POINTBRM
                 	LDI  R@0,LOW(@1)
                 	.ENDM
                 
                 	.MACRO __POINTWRM
                 	LDI  R@0,LOW(@2)
                 	LDI  R@1,HIGH(@2)
                 	.ENDM
                 
                 	.MACRO __POINTBRMN
                 	LDI  R@0,LOW(@1+@2)
                 	.ENDM
                 
                 	.MACRO __POINTWRMN
                 	LDI  R@0,LOW(@2+@3)
                 	LDI  R@1,HIGH(@2+@3)
                 	.ENDM
                 
                 	.MACRO __POINTWRFN
                 	LDI  R@0,LOW(@2*2+@3)
                 	LDI  R@1,HIGH(@2*2+@3)
                 	.ENDM
                 
                 	.MACRO __GETD1N
                 	LDI  R30,LOW(@0)
                 	LDI  R31,HIGH(@0)
                 	LDI  R22,BYTE3(@0)
                 	LDI  R23,BYTE4(@0)
                 	.ENDM
                 
                 	.MACRO __GETD2N
                 	LDI  R26,LOW(@0)
                 	LDI  R27,HIGH(@0)
                 	LDI  R24,BYTE3(@0)
                 	LDI  R25,BYTE4(@0)
                 	.ENDM
                 
                 	.MACRO __GETD2S
                 	LDD  R26,Y+@0
                 	LDD  R27,Y+@0+1
                 	LDD  R24,Y+@0+2
                 	LDD  R25,Y+@0+3
                 	.ENDM
                 
                 	.MACRO __GETB1MN
                 	LDS  R30,@0+@1
                 	.ENDM
                 
                 	.MACRO __GETB1HMN
                 	LDS  R31,@0+@1
                 	.ENDM
                 
                 	.MACRO __GETW1MN
                 	LDS  R30,@0+@1
                 	LDS  R31,@0+@1+1
                 	.ENDM
                 
                 	.MACRO __GETD1MN
                 	LDS  R30,@0+@1
                 	LDS  R31,@0+@1+1
                 	LDS  R22,@0+@1+2
                 	LDS  R23,@0+@1+3
                 	.ENDM
                 
                 	.MACRO __GETBRMN
                 	LDS  R@0,@1+@2
                 	.ENDM
                 
                 	.MACRO __GETWRMN
                 	LDS  R@0,@2+@3
                 	LDS  R@1,@2+@3+1
                 	.ENDM
                 
                 	.MACRO __GETWRZ
                 	LDD  R@0,Z+@2
                 	LDD  R@1,Z+@2+1
                 	.ENDM
                 
                 	.MACRO __GETD2Z
                 	LDD  R26,Z+@0
                 	LDD  R27,Z+@0+1
                 	LDD  R24,Z+@0+2
                 	LDD  R25,Z+@0+3
                 	.ENDM
                 
                 	.MACRO __GETB2MN
                 	LDS  R26,@0+@1
                 	.ENDM
                 
                 	.MACRO __GETW2MN
                 	LDS  R26,@0+@1
                 	LDS  R27,@0+@1+1
                 	.ENDM
                 
                 	.MACRO __GETD2MN
                 	LDS  R26,@0+@1
                 	LDS  R27,@0+@1+1
                 	LDS  R24,@0+@1+2
                 	LDS  R25,@0+@1+3
                 	.ENDM
                 
                 	.MACRO __PUTB1MN
                 	STS  @0+@1,R30
                 	.ENDM
                 
                 	.MACRO __PUTW1MN
                 	STS  @0+@1,R30
                 	STS  @0+@1+1,R31
                 	.ENDM
                 
                 	.MACRO __PUTD1MN
                 	STS  @0+@1,R30
                 	STS  @0+@1+1,R31
                 	STS  @0+@1+2,R22
                 	STS  @0+@1+3,R23
                 	.ENDM
                 
                 	.MACRO __PUTB1EN
                 	LDI  R26,LOW(@0+@1)
                 	LDI  R27,HIGH(@0+@1)
                 	CALL __EEPROMWRB
                 	.ENDM
                 
                 	.MACRO __PUTW1EN
                 	LDI  R26,LOW(@0+@1)
                 	LDI  R27,HIGH(@0+@1)
                 	CALL __EEPROMWRW
                 	.ENDM
                 
                 	.MACRO __PUTD1EN
                 	LDI  R26,LOW(@0+@1)
                 	LDI  R27,HIGH(@0+@1)
                 	CALL __EEPROMWRD
                 	.ENDM
                 
                 	.MACRO __PUTBR0MN
                 	STS  @0+@1,R0
                 	.ENDM
                 
                 	.MACRO __PUTDZ2
                 	STD  Z+@0,R26
                 	STD  Z+@0+1,R27
                 	STD  Z+@0+2,R24
                 	STD  Z+@0+3,R25
                 	.ENDM
                 
                 	.MACRO __PUTBMRN
                 	STS  @0+@1,R@2
                 	.ENDM
                 
                 	.MACRO __PUTWMRN
                 	STS  @0+@1,R@2
                 	STS  @0+@1+1,R@3
                 	.ENDM
                 
                 	.MACRO __PUTBZR
                 	STD  Z+@1,R@0
                 	.ENDM
                 
                 	.MACRO __PUTWZR
                 	STD  Z+@2,R@0
                 	STD  Z+@2+1,R@1
                 	.ENDM
                 
                 	.MACRO __GETW1R
                 	MOV  R30,R@0
                 	MOV  R31,R@1
                 	.ENDM
                 
                 	.MACRO __GETW2R
                 	MOV  R26,R@0
                 	MOV  R27,R@1
                 	.ENDM
                 
                 	.MACRO __GETWRN
                 	LDI  R@0,LOW(@2)
                 	LDI  R@1,HIGH(@2)
                 	.ENDM
                 
                 	.MACRO __PUTW1R
                 	MOV  R@0,R30
                 	MOV  R@1,R31
                 	.ENDM
                 
                 	.MACRO __PUTW2R
                 	MOV  R@0,R26
                 	MOV  R@1,R27
                 	.ENDM
                 
                 	.MACRO __ADDWRN
                 	SUBI R@0,LOW(-@2)
                 	SBCI R@1,HIGH(-@2)
                 	.ENDM
                 
                 	.MACRO __ADDWRR
                 	ADD  R@0,R@2
                 	ADC  R@1,R@3
                 	.ENDM
                 
                 	.MACRO __SUBWRN
                 	SUBI R@0,LOW(@2)
                 	SBCI R@1,HIGH(@2)
                 	.ENDM
                 
                 	.MACRO __SUBWRR
                 	SUB  R@0,R@2
                 	SBC  R@1,R@3
                 	.ENDM
                 
                 	.MACRO __ANDWRN
                 	ANDI R@0,LOW(@2)
                 	ANDI R@1,HIGH(@2)
                 	.ENDM
                 
                 	.MACRO __ANDWRR
                 	AND  R@0,R@2
                 	AND  R@1,R@3
                 	.ENDM
                 
                 	.MACRO __ORWRN
                 	ORI  R@0,LOW(@2)
                 	ORI  R@1,HIGH(@2)
                 	.ENDM
                 
                 	.MACRO __ORWRR
                 	OR   R@0,R@2
                 	OR   R@1,R@3
                 	.ENDM
                 
                 	.MACRO __EORWRR
                 	EOR  R@0,R@2
                 	EOR  R@1,R@3
                 	.ENDM
                 
                 	.MACRO __GETWRS
                 	LDD  R@0,Y+@2
                 	LDD  R@1,Y+@2+1
                 	.ENDM
                 
                 	.MACRO __PUTWSR
                 	STD  Y+@2,R@0
                 	STD  Y+@2+1,R@1
                 	.ENDM
                 
                 	.MACRO __MOVEWRR
                 	MOV  R@0,R@2
                 	MOV  R@1,R@3
                 	.ENDM
                 
                 	.MACRO __INWR
                 	IN   R@0,@2
                 	IN   R@1,@2+1
                 	.ENDM
                 
                 	.MACRO __OUTWR
                 	OUT  @2+1,R@1
                 	OUT  @2,R@0
                 	.ENDM
                 
                 	.MACRO __CALL1MN
                 	LDS  R30,@0+@1
                 	LDS  R31,@0+@1+1
                 	ICALL
                 	.ENDM
                 
                 	.MACRO __CALL1FN
                 	LDI  R30,LOW(2*@0+@1)
                 	LDI  R31,HIGH(2*@0+@1)
                 	CALL __GETW1PF
                 	ICALL
                 	.ENDM
                 
                 	.MACRO __CALL2EN
                 	LDI  R26,LOW(@0+@1)
                 	LDI  R27,HIGH(@0+@1)
                 	CALL __EEPROMRDW
                 	ICALL
                 	.ENDM
                 
                 	.MACRO __GETW1STACK
                 	IN   R26,SPL
                 	IN   R27,SPH
                 	ADIW R26,@0+1
                 	LD   R30,X+
                 	LD   R31,X
                 	.ENDM
                 
                 	.MACRO __NBST
                 	BST  R@0,@1
                 	IN   R30,SREG
                 	LDI  R31,0x40
                 	EOR  R30,R31
                 	OUT  SREG,R30
                 	.ENDM
                 
                 
                 	.MACRO __PUTB1SN
                 	LDD  R26,Y+@0
                 	LDD  R27,Y+@0+1
                 	SUBI R26,LOW(-@1)
                 	SBCI R27,HIGH(-@1)
                 	ST   X,R30
                 	.ENDM
                 
                 	.MACRO __PUTW1SN
                 	LDD  R26,Y+@0
                 	LDD  R27,Y+@0+1
                 	SUBI R26,LOW(-@1)
                 	SBCI R27,HIGH(-@1)
                 	ST   X+,R30
                 	ST   X,R31
                 	.ENDM
                 
                 	.MACRO __PUTD1SN
                 	LDD  R26,Y+@0
                 	LDD  R27,Y+@0+1
                 	SUBI R26,LOW(-@1)
                 	SBCI R27,HIGH(-@1)
                 	CALL __PUTDP1
                 	.ENDM
                 
                 	.MACRO __PUTB1SNS
                 	LDD  R26,Y+@0
                 	LDD  R27,Y+@0+1
                 	ADIW R26,@1
                 	ST   X,R30
                 	.ENDM
                 
                 	.MACRO __PUTW1SNS
                 	LDD  R26,Y+@0
                 	LDD  R27,Y+@0+1
                 	ADIW R26,@1
                 	ST   X+,R30
                 	ST   X,R31
                 	.ENDM
                 
                 	.MACRO __PUTD1SNS
                 	LDD  R26,Y+@0
                 	LDD  R27,Y+@0+1
                 	ADIW R26,@1
                 	CALL __PUTDP1
                 	.ENDM
                 
                 	.MACRO __PUTB1PMN
                 	LDS  R26,@0
                 	LDS  R27,@0+1
                 	SUBI R26,LOW(-@1)
                 	SBCI R27,HIGH(-@1)
                 	ST   X,R30
                 	.ENDM
                 
                 	.MACRO __PUTW1PMN
                 	LDS  R26,@0
                 	LDS  R27,@0+1
                 	SUBI R26,LOW(-@1)
                 	SBCI R27,HIGH(-@1)
                 	ST   X+,R30
                 	ST   X,R31
                 	.ENDM
                 
                 	.MACRO __PUTD1PMN
                 	LDS  R26,@0
                 	LDS  R27,@0+1
                 	SUBI R26,LOW(-@1)
                 	SBCI R27,HIGH(-@1)
                 	CALL __PUTDP1
                 	.ENDM
                 
                 	.MACRO __PUTB1PMNS
                 	LDS  R26,@0
                 	LDS  R27,@0+1
                 	ADIW R26,@1
                 	ST   X,R30
                 	.ENDM
                 
                 	.MACRO __PUTW1PMNS
                 	LDS  R26,@0
                 	LDS  R27,@0+1
                 	ADIW R26,@1
                 	ST   X+,R30
                 	ST   X,R31
                 	.ENDM
                 
                 	.MACRO __PUTD1PMNS
                 	LDS  R26,@0
                 	LDS  R27,@0+1
                 	ADIW R26,@1
                 	CALL __PUTDP1
                 	.ENDM
                 
                 	.MACRO __PUTB1RN
                 	MOVW R26,R@0
                 	SUBI R26,LOW(-@1)
                 	SBCI R27,HIGH(-@1)
                 	ST   X,R30
                 	.ENDM
                 
                 	.MACRO __PUTW1RN
                 	MOVW R26,R@0
                 	SUBI R26,LOW(-@1)
                 	SBCI R27,HIGH(-@1)
                 	ST   X+,R30
                 	ST   X,R31
                 	.ENDM
                 
                 	.MACRO __PUTD1RN
                 	MOVW R26,R@0
                 	SUBI R26,LOW(-@1)
                 	SBCI R27,HIGH(-@1)
                 	CALL __PUTDP1
                 	.ENDM
                 
                 	.MACRO __PUTB1RNS
                 	MOVW R26,R@0
                 	ADIW R26,@1
                 	ST   X,R30
                 	.ENDM
                 
                 	.MACRO __PUTW1RNS
                 	MOVW R26,R@0
                 	ADIW R26,@1
                 	ST   X+,R30
                 	ST   X,R31
                 	.ENDM
                 
                 	.MACRO __PUTD1RNS
                 	MOVW R26,R@0
                 	ADIW R26,@1
                 	CALL __PUTDP1
                 	.ENDM
                 
                 	.MACRO __PUTB1RON
                 	MOV  R26,R@0
                 	MOV  R27,R@1
                 	SUBI R26,LOW(-@2)
                 	SBCI R27,HIGH(-@2)
                 	ST   X,R30
                 	.ENDM
                 
                 	.MACRO __PUTW1RON
                 	MOV  R26,R@0
                 	MOV  R27,R@1
                 	SUBI R26,LOW(-@2)
                 	SBCI R27,HIGH(-@2)
                 	ST   X+,R30
                 	ST   X,R31
                 	.ENDM
                 
                 	.MACRO __PUTD1RON
                 	MOV  R26,R@0
                 	MOV  R27,R@1
                 	SUBI R26,LOW(-@2)
                 	SBCI R27,HIGH(-@2)
                 	CALL __PUTDP1
                 	.ENDM
                 
                 	.MACRO __PUTB1RONS
                 	MOV  R26,R@0
                 	MOV  R27,R@1
                 	ADIW R26,@2
                 	ST   X,R30
                 	.ENDM
                 
                 	.MACRO __PUTW1RONS
                 	MOV  R26,R@0
                 	MOV  R27,R@1
                 	ADIW R26,@2
                 	ST   X+,R30
                 	ST   X,R31
                 	.ENDM
                 
                 	.MACRO __PUTD1RONS
                 	MOV  R26,R@0
                 	MOV  R27,R@1
                 	ADIW R26,@2
                 	CALL __PUTDP1
                 	.ENDM
                 
                 
                 	.MACRO __GETB1SX
                 	MOVW R30,R28
                 	SUBI R30,LOW(-@0)
                 	SBCI R31,HIGH(-@0)
                 	LD   R30,Z
                 	.ENDM
                 
                 	.MACRO __GETB1HSX
                 	MOVW R30,R28
                 	SUBI R30,LOW(-@0)
                 	SBCI R31,HIGH(-@0)
                 	LD   R31,Z
                 	.ENDM
                 
                 	.MACRO __GETW1SX
                 	MOVW R30,R28
                 	SUBI R30,LOW(-@0)
                 	SBCI R31,HIGH(-@0)
                 	LD   R0,Z+
                 	LD   R31,Z
                 	MOV  R30,R0
                 	.ENDM
                 
                 	.MACRO __GETD1SX
                 	MOVW R30,R28
                 	SUBI R30,LOW(-@0)
                 	SBCI R31,HIGH(-@0)
                 	LD   R0,Z+
                 	LD   R1,Z+
                 	LD   R22,Z+
                 	LD   R23,Z
                 	MOVW R30,R0
                 	.ENDM
                 
                 	.MACRO __GETB2SX
                 	MOVW R26,R28
                 	SUBI R26,LOW(-@0)
                 	SBCI R27,HIGH(-@0)
                 	LD   R26,X
                 	.ENDM
                 
                 	.MACRO __GETW2SX
                 	MOVW R26,R28
                 	SUBI R26,LOW(-@0)
                 	SBCI R27,HIGH(-@0)
                 	LD   R0,X+
                 	LD   R27,X
                 	MOV  R26,R0
                 	.ENDM
                 
                 	.MACRO __GETD2SX
                 	MOVW R26,R28
                 	SUBI R26,LOW(-@0)
                 	SBCI R27,HIGH(-@0)
                 	LD   R0,X+
                 	LD   R1,X+
                 	LD   R24,X+
                 	LD   R25,X
                 	MOVW R26,R0
                 	.ENDM
                 
                 	.MACRO __GETBRSX
                 	MOVW R30,R28
                 	SUBI R30,LOW(-@1)
                 	SBCI R31,HIGH(-@1)
                 	LD   R@0,Z
                 	.ENDM
                 
                 	.MACRO __GETWRSX
                 	MOVW R30,R28
                 	SUBI R30,LOW(-@2)
                 	SBCI R31,HIGH(-@2)
                 	LD   R@0,Z+
                 	LD   R@1,Z
                 	.ENDM
                 
                 	.MACRO __LSLW8SX
                 	MOVW R30,R28
                 	SUBI R30,LOW(-@0)
                 	SBCI R31,HIGH(-@0)
                 	LD   R31,Z
                 	CLR  R30
                 	.ENDM
                 
                 	.MACRO __PUTB1SX
                 	MOVW R26,R28
                 	SUBI R26,LOW(-@0)
                 	SBCI R27,HIGH(-@0)
                 	ST   X,R30
                 	.ENDM
                 
                 	.MACRO __PUTW1SX
                 	MOVW R26,R28
                 	SUBI R26,LOW(-@0)
                 	SBCI R27,HIGH(-@0)
                 	ST   X+,R30
                 	ST   X,R31
                 	.ENDM
                 
                 	.MACRO __PUTD1SX
                 	MOVW R26,R28
                 	SUBI R26,LOW(-@0)
                 	SBCI R27,HIGH(-@0)
                 	ST   X+,R30
                 	ST   X+,R31
                 	ST   X+,R22
                 	ST   X,R23
                 	.ENDM
                 
                 	.MACRO __CLRW1SX
                 	MOVW R30,R28
                 	SUBI R30,LOW(-@0)
                 	SBCI R31,HIGH(-@0)
                 	CLR  R0
                 	ST   Z+,R0
                 	ST   Z,R0
                 	.ENDM
                 
                 	.MACRO __CLRD1SX
                 	MOVW R30,R28
                 	SUBI R30,LOW(-@0)
                 	SBCI R31,HIGH(-@0)
                 	CLR  R0
                 	ST   Z+,R0
                 	ST   Z+,R0
                 	ST   Z+,R0
                 	ST   Z,R0
                 	.ENDM
                 
                 	.MACRO __PUTB2SX
                 	MOVW R30,R28
                 	SUBI R30,LOW(-@0)
                 	SBCI R31,HIGH(-@0)
                 	ST   Z,R26
                 	.ENDM
                 
                 	.MACRO __PUTW2SX
                 	MOVW R30,R28
                 	SUBI R30,LOW(-@0)
                 	SBCI R31,HIGH(-@0)
                 	ST   Z+,R26
                 	ST   Z,R27
                 	.ENDM
                 
                 	.MACRO __PUTD2SX
                 	MOVW R30,R28
                 	SUBI R30,LOW(-@0)
                 	SBCI R31,HIGH(-@0)
                 	ST   Z+,R26
                 	ST   Z+,R27
                 	ST   Z+,R24
                 	ST   Z,R25
                 	.ENDM
                 
                 	.MACRO __PUTBSRX
                 	MOVW R30,R28
                 	SUBI R30,LOW(-@0)
                 	SBCI R31,HIGH(-@0)
                 	ST   Z,R@1
                 	.ENDM
                 
                 	.MACRO __PUTWSRX
                 	MOVW R30,R28
                 	SUBI R30,LOW(-@2)
                 	SBCI R31,HIGH(-@2)
                 	ST   Z+,R@0
                 	ST   Z,R@1
                 	.ENDM
                 
                 	.MACRO __PUTB1SNX
                 	MOVW R26,R28
                 	SUBI R26,LOW(-@0)
                 	SBCI R27,HIGH(-@0)
                 	LD   R0,X+
                 	LD   R27,X
                 	MOV  R26,R0
                 	SUBI R26,LOW(-@1)
                 	SBCI R27,HIGH(-@1)
                 	ST   X,R30
                 	.ENDM
                 
                 	.MACRO __PUTW1SNX
                 	MOVW R26,R28
                 	SUBI R26,LOW(-@0)
                 	SBCI R27,HIGH(-@0)
                 	LD   R0,X+
                 	LD   R27,X
                 	MOV  R26,R0
                 	SUBI R26,LOW(-@1)
                 	SBCI R27,HIGH(-@1)
                 	ST   X+,R30
                 	ST   X,R31
                 	.ENDM
                 
                 	.MACRO __PUTD1SNX
                 	MOVW R26,R28
                 	SUBI R26,LOW(-@0)
                 	SBCI R27,HIGH(-@0)
                 	LD   R0,X+
                 	LD   R27,X
                 	MOV  R26,R0
                 	SUBI R26,LOW(-@1)
                 	SBCI R27,HIGH(-@1)
                 	ST   X+,R30
                 	ST   X+,R31
                 	ST   X+,R22
                 	ST   X,R23
                 	.ENDM
                 
                 	.MACRO __MULBRR
                 	MULS R@0,R@1
                 	MOVW R30,R0
                 	.ENDM
                 
                 	.MACRO __MULBRRU
                 	MUL  R@0,R@1
                 	MOVW R30,R0
                 	.ENDM
                 
                 	.MACRO __MULBRR0
                 	MULS R@0,R@1
                 	.ENDM
                 
                 	.MACRO __MULBRRU0
                 	MUL  R@0,R@1
                 	.ENDM
                 
                 	.MACRO __MULBNWRU
                 	LDI  R26,@2
                 	MUL  R26,R@0
                 	MOVW R30,R0
                 	MUL  R26,R@1
                 	ADD  R31,R0
                 	.ENDM
                 
                 ;NAME DEFINITIONS FOR GLOBAL VARIABLES ALLOCATED TO REGISTERS
                 	.DEF _i_speed=R4
                 	.DEF _speed=R6
                 	.DEF _MV=R8
                 	.DEF _error=R10
                 	.DEF _error_before=R12
                 
                 	.CSEG
                 	.ORG 0x00
                 
                 ;INTERRUPT VECTORS
000000 940c 00e1 	JMP  __RESET
000002 940c 0a4e 	JMP  _ext_int0_isr
000004 940c 0000 	JMP  0x00
000006 940c 0000 	JMP  0x00
000008 940c 0000 	JMP  0x00
00000a 940c 0000 	JMP  0x00
00000c 940c 0000 	JMP  0x00
00000e 940c 0000 	JMP  0x00
000010 940c 0000 	JMP  0x00
000012 940c 0000 	JMP  0x00
000014 940c 09a8 	JMP  _timer0_comp_isr
000016 940c 0000 	JMP  0x00
000018 940c 0000 	JMP  0x00
00001a 940c 0000 	JMP  0x00
00001c 940c 0000 	JMP  0x00
00001e 940c 0000 	JMP  0x00
000020 940c 0000 	JMP  0x00
000022 940c 0000 	JMP  0x00
000024 940c 0000 	JMP  0x00
000026 940c 0000 	JMP  0x00
000028 940c 0000 	JMP  0x00
                 
                 _tbl10_G100:
00002a 2710
00002b 03e8
00002c 0064
00002d 000a      	.DB  0x10,0x27,0xE8,0x3,0x64,0x0,0xA,0x0
00002e 0001      	.DB  0x1,0x0
                 _tbl16_G100:
00002f 1000
000030 0100
000031 0010
000032 0001      	.DB  0x0,0x10,0x0,0x1,0x10,0x0,0x1,0x0
                 
                 ;REGISTER BIT VARIABLES INITIALIZATION
                 __REG_BIT_VARS:
000033 0008      	.DW  0x0008
                 
                 _0x3:
C:\Documents and Settings\fishnrabbit\Desktop\pROGRAM\Dock_cart\List\Dock_Cart.asm(1069): warning: .cseg .db misalignment - padding zero byte
000034 000d      	.DB  0xD
                 _0x0:
000035 6425
000036 2500
000037 2064
000038 6425      	.DB  0x25,0x64,0x0,0x25,0x64,0x20,0x25,0x64
000039 2520
00003a 2064
00003b 6425
00003c 0020      	.DB  0x20,0x25,0x64,0x20,0x25,0x64,0x20,0x0
00003d 6425
00003e 2520
00003f 2064
000040 6425      	.DB  0x25,0x64,0x20,0x25,0x64,0x20,0x25,0x64
000041 2520
000042 0064
000043 253d
000044 0064      	.DB  0x20,0x25,0x64,0x0,0x3D,0x25,0x64,0x0
000045 2020
000046 0020
000047 3c20
000048 202d      	.DB  0x20,0x20,0x20,0x0,0x20,0x3C,0x2D,0x20
000049 6425
00004a 3100
00004b 202e
00004c 7241      	.DB  0x25,0x64,0x0,0x31,0x2E,0x20,0x41,0x72
00004d 6861
00004e 5020
00004f 7265
000050 6134      	.DB  0x61,0x68,0x20,0x50,0x65,0x72,0x34,0x61
000051 206e
000052 0031
000053 2e32
000054 4120      	.DB  0x6E,0x20,0x31,0x0,0x32,0x2E,0x20,0x41
000055 6172
000056 2068
000057 6550
000058 3472      	.DB  0x72,0x61,0x68,0x20,0x50,0x65,0x72,0x34
000059 6e61
00005a 3220
00005b 3300
00005c 202e      	.DB  0x61,0x6E,0x20,0x32,0x0,0x33,0x2E,0x20
00005d 7241
00005e 6861
00005f 5020
000060 7265      	.DB  0x41,0x72,0x61,0x68,0x20,0x50,0x65,0x72
000061 6134
000062 206e
000063 0033
000064 2e34      	.DB  0x34,0x61,0x6E,0x20,0x33,0x0,0x34,0x2E
000065 4120
000066 6172
000067 2068
000068 6550      	.DB  0x20,0x41,0x72,0x61,0x68,0x20,0x50,0x65
000069 3472
00006a 6e61
00006b 3420
00006c 3500      	.DB  0x72,0x34,0x61,0x6E,0x20,0x34,0x0,0x35
00006d 202e
00006e 7241
00006f 6861
000070 5020      	.DB  0x2E,0x20,0x41,0x72,0x61,0x68,0x20,0x50
000071 7265
000072 6134
000073 206e
000074 0035      	.DB  0x65,0x72,0x34,0x61,0x6E,0x20,0x35,0x0
000075 656c
000076 7466
000077 7200
000078 6769      	.DB  0x6C,0x65,0x66,0x74,0x0,0x72,0x69,0x67
000079 7468
00007a 6c00
00007b 7275
00007c 7375      	.DB  0x68,0x74,0x0,0x6C,0x75,0x72,0x75,0x73
00007d 3c00
00007e 002d
00007f 524b
000080 003d      	.DB  0x0,0x3C,0x2D,0x0,0x4B,0x52,0x3D,0x0
000081 4e4b
000082 003d
000083 616c
000084 676e      	.DB  0x4B,0x4E,0x3D,0x0,0x6C,0x61,0x6E,0x67
000085 616b
000086 3d68
000087 3100
000088 202e      	.DB  0x6B,0x61,0x68,0x3D,0x0,0x31,0x2E,0x20
000089 6a55
00008a 2069
00008b 614c
00008c 676e      	.DB  0x55,0x6A,0x69,0x20,0x4C,0x61,0x6E,0x67
00008d 616b
00008e 2068
00008f 3200
000090 202e      	.DB  0x6B,0x61,0x68,0x20,0x0,0x32,0x2E,0x20
000091 7241
000092 6861
000093 5020
000094 7265      	.DB  0x41,0x72,0x61,0x68,0x20,0x50,0x65,0x72
000095 6134
000096 006e
000097 2e33
000098 5020      	.DB  0x34,0x61,0x6E,0x0,0x33,0x2E,0x20,0x50
000099 6d65
00009a 6162
00009b 6967
00009c 4b20      	.DB  0x65,0x6D,0x62,0x61,0x67,0x69,0x20,0x4B
00009d 0070
00009e 2e34
00009f 7420
0000a0 7365      	.DB  0x70,0x0,0x34,0x2E,0x20,0x74,0x65,0x73
0000a1 5f74
0000a2 7264
0000a3 7669
0000a4 0065      	.DB  0x74,0x5F,0x64,0x72,0x69,0x76,0x65,0x0
0000a5 2e31
0000a6 5320
0000a7 6570
0000a8 6465      	.DB  0x31,0x2E,0x20,0x53,0x70,0x65,0x65,0x64
0000a9 0020
0000aa 2e32
0000ab 4120
0000ac 7475      	.DB  0x20,0x0,0x32,0x2E,0x20,0x41,0x75,0x74
0000ad 206f
0000ae 6553
0000af 2074
0000b0 5200      	.DB  0x6F,0x20,0x53,0x65,0x74,0x20,0x0,0x52
0000b1 4e55
0000b2 003f
0000b3 4950
0000b4 0044      	.DB  0x55,0x4E,0x3F,0x0,0x50,0x49,0x44,0x0
0000b5 6544
0000b6 6574
0000b7 736b
0000b8 2069      	.DB  0x44,0x65,0x74,0x65,0x6B,0x73,0x69,0x20
0000b9 6550
0000ba 3472
0000bb 6e61
0000bc 4e00      	.DB  0x50,0x65,0x72,0x34,0x61,0x6E,0x0,0x4E
0000bd 534f
0000be 4e2d
0000bf 534f
0000c0 5500      	.DB  0x4F,0x53,0x2D,0x4E,0x4F,0x53,0x0,0x55
0000c1 6973
0000c2 676e
0000c3 4120
0000c4 0049      	.DB  0x73,0x69,0x6E,0x67,0x20,0x41,0x49,0x0
0000c5 4147
0000c6 5552
0000c7 4144
0000c8 4400      	.DB  0x47,0x41,0x52,0x55,0x44,0x41,0x0,0x44
0000c9 2049
0000ca 4144
0000cb 4144
0000cc 554b      	.DB  0x49,0x20,0x44,0x41,0x44,0x41,0x4B,0x55
0000cd 2121
0000ce 0021      	.DB  0x21,0x21,0x21,0x0
                 _0x204005F:
C:\Documents and Settings\fishnrabbit\Desktop\pROGRAM\Dock_cart\List\Dock_Cart.asm(1111): warning: .cseg .db misalignment - padding zero byte
0000cf 0001      	.DB  0x1
                 _0x2040000:
0000d0 4e2d
0000d1 4e41
C:\Documents and Settings\fishnrabbit\Desktop\pROGRAM\Dock_cart\List\Dock_Cart.asm(1113): warning: .cseg .db misalignment - padding zero byte
0000d2 0000      	.DB  0x2D,0x4E,0x41,0x4E,0x0
                 _0x2060003:
0000d3 c080      	.DB  0x80,0xC0
                 
                 __GLOBAL_INI_TBL:
0000d4 0002      	.DW  0x02
0000d5 0002      	.DW  0x02
0000d6 0066      	.DW  __REG_BIT_VARS*2
                 
0000d7 0001      	.DW  0x01
0000d8 0173      	.DW  _kp_div
0000d9 0068      	.DW  _0x3*2
                 
0000da 0001      	.DW  0x01
0000db 0213      	.DW  __seed_G102
0000dc 019e      	.DW  _0x204005F*2
                 
0000dd 0002      	.DW  0x02
0000de 0217      	.DW  __base_y_G103
0000df 01a6      	.DW  _0x2060003*2
                 
                 _0xFFFFFFFF:
0000e0 0000      	.DW  0
                 
                 __RESET:
0000e1 94f8      	CLI
0000e2 27ee      	CLR  R30
0000e3 bbec      	OUT  EECR,R30
                 
                 ;INTERRUPT VECTORS ARE PLACED
                 ;AT THE START OF FLASH
0000e4 e0f1      	LDI  R31,1
0000e5 bffb      	OUT  GICR,R31
0000e6 bfeb      	OUT  GICR,R30
0000e7 bfe5      	OUT  MCUCR,R30
                 
                 ;DISABLE WATCHDOG
0000e8 e1f8      	LDI  R31,0x18
0000e9 bdf1      	OUT  WDTCR,R31
0000ea bde1      	OUT  WDTCR,R30
                 
                 ;CLEAR R2-R14
0000eb e08d      	LDI  R24,(14-2)+1
0000ec e0a2      	LDI  R26,2
0000ed 27bb      	CLR  R27
                 __CLEAR_REG:
0000ee 93ed      	ST   X+,R30
0000ef 958a      	DEC  R24
0000f0 f7e9      	BRNE __CLEAR_REG
                 
                 ;CLEAR SRAM
0000f1 e080      	LDI  R24,LOW(0x400)
0000f2 e094      	LDI  R25,HIGH(0x400)
0000f3 e6a0      	LDI  R26,0x60
                 __CLEAR_SRAM:
0000f4 93ed      	ST   X+,R30
0000f5 9701      	SBIW R24,1
0000f6 f7e9      	BRNE __CLEAR_SRAM
                 
                 ;GLOBAL VARIABLES INITIALIZATION
0000f7 eae8      	LDI  R30,LOW(__GLOBAL_INI_TBL*2)
0000f8 e0f1      	LDI  R31,HIGH(__GLOBAL_INI_TBL*2)
                 __GLOBAL_INI_NEXT:
0000f9 9185      	LPM  R24,Z+
0000fa 9195      	LPM  R25,Z+
0000fb 9700      	SBIW R24,0
0000fc f061      	BREQ __GLOBAL_INI_END
0000fd 91a5      	LPM  R26,Z+
0000fe 91b5      	LPM  R27,Z+
0000ff 9005      	LPM  R0,Z+
000100 9015      	LPM  R1,Z+
000101 01bf      	MOVW R22,R30
000102 01f0      	MOVW R30,R0
                 __GLOBAL_INI_LOOP:
000103 9005      	LPM  R0,Z+
000104 920d      	ST   X+,R0
000105 9701      	SBIW R24,1
000106 f7e1      	BRNE __GLOBAL_INI_LOOP
000107 01fb      	MOVW R30,R22
000108 cff0      	RJMP __GLOBAL_INI_NEXT
                 __GLOBAL_INI_END:
                 
                 ;STACK POINTER INITIALIZATION
000109 e5ef      	LDI  R30,LOW(0x45F)
00010a bfed      	OUT  SPL,R30
00010b e0e4      	LDI  R30,HIGH(0x45F)
00010c bfee      	OUT  SPH,R30
                 
                 ;DATA STACK POINTER INITIALIZATION
00010d e6c0      	LDI  R28,LOW(0x160)
00010e e0d1      	LDI  R29,HIGH(0x160)
                 
00010f 940c 0907 	JMP  _main
                 
                 	.ESEG
                 	.ORG 0
                 
                 	.DSEG
                 	.ORG 0x160
                 
                 	.CSEG
                 ;/*****************************************************
                 ;This program was produced by the
                 ;CodeWizardAVR V1.25.9 Professional
                 ;Automatic Program Generator
                 ;© Copyright 1998-2008 Pavel Haiduc, HP InfoTech s.r.l.
                 ;http://www.hpinfotech.com
                 ;
                 ;Project :
                 ;Version :
                 ;Date    : 28/03/2009
                 ;Author  : aditya rifki
                 ;Company : TE UGM
                 ;Comments:
                 ;
                 ;
                 ;Chip type           : ATmega16
                 ;Program type        : Application
                 ;Clock frequency     : 8,000000 MHz
                 ;Memory model        : Small
                 ;External SRAM size  : 0
                 ;Data Stack size     : 256
                 ;*****************************************************/
                 ;
                 ;#include <mega32.h>
                 	#ifndef __SLEEP_DEFINED__
                 	#define __SLEEP_DEFINED__
                 	.EQU __se_bit=0x80
                 	.EQU __sm_mask=0x70
                 	.EQU __sm_powerdown=0x20
                 	.EQU __sm_powersave=0x30
                 	.EQU __sm_standby=0x60
                 	.EQU __sm_ext_standby=0x70
                 	.EQU __sm_adc_noise_red=0x10
                 	.SET power_ctrl_reg=mcucr
                 	#endif
                 ;#include <stdio.h>
                 ;#include <math.h>
                 ;#include <stdlib.h>
                 ;#include <lcd.h>
                 ;#include <delay.h>
                 ;#include <math.h>
                 ;
                 ;// Alphanumeric LCD Module functions
                 ;#asm
                    .equ __lcd_port=0x18 ;PORTB
                 ; 0000 0023 #endasm
                 ;
                 ;#define led           PORTC.7
                 ;#define backlight     PORTB.3
                 ;
                 ;#define ADC_VREF_TYPE 0x60
                 ;#define enter   PINC.0
                 ;#define back    PIND.7
                 ;
                 ;#define dir_ki   PORTD.1
                 ;#define dir_ka   PORTD.6
                 ;#define pwm_ki   OCR1B
                 ;#define pwm_ka   OCR1A
                 ;
                 ;bit status_error_lalu,status_error,pwm_en,black_line=1,per4an_enable=0,status_nos=0;
                 ;bit white_line,berhasil=0,flag_per4an=0,flag_siku;
                 ;int i_speed,speed,MV,error,error_before,d_d_error,d_error,min_kp,max_kp,kp,kd,speed_ka,speed_ki,temp_speed;
                 ;unsigned char  l, menu, kp_div=13, menu_slave, strategi,temp_adc_menu,;
                 
                 	.DSEG
                 ;unsigned char adc_result1[8],adc_result2[8],adc_tres1[8],adc_tres2[8],adc_menu,lcd[16];
                 ;unsigned char max_adc1[8],max_adc2[8],min_adc1[8],min_adc2[8];
                 ;unsigned int temp_langkah_nos[10],langkah_rem[10], langkah_cepat[10],langkah_nos[10];
                 ;unsigned char nos_speed,boleh_nos,i,j,n,front_sensor,rear_sensor,disp_sensor,backlight_on,led_on,right_back,left_back;
                 ;unsigned char set_per4an, per4an,siku,per4an_dir[6];
                 ;unsigned char sampling_blank=0,sampling_blank_black=0,temp_kp_div;
                 ;unsigned int siku_kiri=0, siku_kanan=0,time,count, nos, temp_langkah, langkah_kanan,langkah_kiri,langkah,step,sigma_langkah,k;
                 ;
                 ;eeprom int e_speed=200,e_min_kp=8,e_max_kp=30;
                 ;eeprom unsigned char e_adc_tres1[8]={100,100,100,100,100,100,100,100};
                 ;eeprom unsigned char e_adc_tres2[8]={100,100,100,100,100,100,100,100};
                 ;eeprom unsigned char e_kp_div=13;
                 ;eeprom unsigned char e_per4an_dir[6];
                 ;eeprom unsigned char e_per4an_enable=0;
                 ;eeprom unsigned int e_langkah_nos[10], e_langkah_cepat[10];
                 ;
                 ;
                 ;unsigned char read_adc(unsigned char adc_input)
                 ; 0000 0047 {
                 
                 	.CSEG
                 _read_adc:
                 ; 0000 0048     ADMUX=adc_input | (ADC_VREF_TYPE & 0xff);
                 ;	adc_input -> Y+0
000111 940e 0da8 	CALL SUBOPT_0x0
000113 66e0      	ORI  R30,LOW(0x60)
000114 b9e7      	OUT  0x7,R30
                 ; 0000 0049     // Delay needed for the stabilization of the ADC input voltage
                 ; 0000 004A     delay_us(10);
                +
000115 e18b     +LDI R24 , LOW ( 27 )
                +__DELAY_USB_LOOP :
000116 958a     +DEC R24
000117 f7f1     +BRNE __DELAY_USB_LOOP
                 	__DELAY_USB 27
                 ; 0000 004B     // Start the AD conversion
                 ; 0000 004C     ADCSRA|=0x40;
000118 940e 0dab 	CALL SUBOPT_0x1
00011a 64e0      	ORI  R30,0x40
00011b b9e6      	OUT  0x6,R30
                 ; 0000 004D     // Wait for the AD conversion to complete
                 ; 0000 004E     while ((ADCSRA & 0x10)==0);
                 _0x4:
00011c 940e 0dab 	CALL SUBOPT_0x1
00011e 71e0      	ANDI R30,LOW(0x10)
00011f f3e1      	BREQ _0x4
                 ; 0000 004F     ADCSRA|=0x10;
000120 940e 0dab 	CALL SUBOPT_0x1
000122 61e0      	ORI  R30,0x10
000123 b9e6      	OUT  0x6,R30
                 ; 0000 0050     return ADCH;
000124 b1e5      	IN   R30,0x5
000125 9621      	ADIW R28,1
000126 9508      	RET
                 ; 0000 0051 }
                 ;
                 ;void init_IO()
                 ; 0000 0054 {
                 _init_IO:
                 ; 0000 0055     unsigned char ;
                 ; 0000 0056     DDRA=0b00000000;
000127 e0e0      	LDI  R30,LOW(0)
000128 bbea      	OUT  0x1A,R30
                 ; 0000 0057     PORTA=0b00000000;
000129 bbeb      	OUT  0x1B,R30
                 ; 0000 0058 
                 ; 0000 0059     DDRB=0b11111111;
00012a efef      	LDI  R30,LOW(255)
00012b bbe7      	OUT  0x17,R30
                 ; 0000 005A     PORTB=0b00000000;
00012c e0e0      	LDI  R30,LOW(0)
00012d bbe8      	OUT  0x18,R30
                 ; 0000 005B 
                 ; 0000 005C     DDRC=0b11111100;
00012e efec      	LDI  R30,LOW(252)
00012f bbe4      	OUT  0x14,R30
                 ; 0000 005D     PORTC=0b10000011;
000130 e8e3      	LDI  R30,LOW(131)
000131 bbe5      	OUT  0x15,R30
                 ; 0000 005E 
                 ; 0000 005F     DDRD= 0b01110010;
000132 e7e2      	LDI  R30,LOW(114)
000133 bbe1      	OUT  0x11,R30
                 ; 0000 0060     PORTD=0b10001100;
000134 e8ec      	LDI  R30,LOW(140)
000135 bbe2      	OUT  0x12,R30
                 ; 0000 0061     ACSR=0x80;
000136 e8e0      	LDI  R30,LOW(128)
000137 b9e8      	OUT  0x8,R30
                 ; 0000 0062 }
000138 9508      	RET
                 ;
                 ;void init_ADC()
                 ; 0000 0065 {
                 _init_ADC:
                 ; 0000 0066     ADMUX=ADC_VREF_TYPE & 0xff;
000139 e6e0      	LDI  R30,LOW(96)
00013a b9e7      	OUT  0x7,R30
                 ; 0000 0067     ADCSRA=0x86;
00013b e8e6      	LDI  R30,LOW(134)
00013c b9e6      	OUT  0x6,R30
                 ; 0000 0068 }
00013d 9508      	RET
                 ;
                 ;void init_time_on()
                 ; 0000 006B {
                 _init_time_on:
                 ; 0000 006C     // Timer/Counter 0 initialization
                 ; 0000 006D     // Clock source: System Clock
                 ; 0000 006E     // Clock value: 7.813 kHz
                 ; 0000 006F     // Mode: ctc
                 ; 0000 0070     // OC0 output: Disconnected
                 ; 0000 0071 
                 ; 0000 0072     //OCR0 7,813 = 53 ms
                 ; 0000 0073     TCCR0=0x0D;
00013e e0ed      	LDI  R30,LOW(13)
00013f bfe3      	OUT  0x33,R30
                 ; 0000 0074     TCNT0=0x00;
000140 e0e0      	LDI  R30,LOW(0)
000141 bfe2      	OUT  0x32,R30
                 ; 0000 0075     TIMSK=0x02;
000142 e0e2      	LDI  R30,LOW(2)
000143 bfe9      	OUT  0x39,R30
                 ; 0000 0076     OCR0=30; //setiap 8 ms
000144 e1ee      	LDI  R30,LOW(30)
000145 bfec      	OUT  0x3C,R30
                 ; 0000 0077 
                 ; 0000 0078     //ASSR=0x00;
                 ; 0000 0079     //TCCR2=0x0F;
                 ; 0000 007A     //TCNT2=0x00;
                 ; 0000 007B     //OCR2=50;
                 ; 0000 007C 
                 ; 0000 007D     #asm ("sei")
000146 9478      	sei
                 ; 0000 007E }
000147 9508      	RET
                 ;
                 ;
                 ;
                 ;void init_time_off()
                 ; 0000 0083 {
                 _init_time_off:
                 ; 0000 0084     // Timer/Counter 0 initialization
                 ; 0000 0085     // Clock source: System Clock
                 ; 0000 0086     // Clock value: 7.813 kHz
                 ; 0000 0087     // Mode: Normal top=FFh
                 ; 0000 0088     // OC0 output: Disconnected
                 ; 0000 0089     TCCR0=0x00;
000148 e0e0      	LDI  R30,LOW(0)
000149 bfe3      	OUT  0x33,R30
                 ; 0000 008A     TCNT0=0x00;
00014a bfe2      	OUT  0x32,R30
                 ; 0000 008B     OCR0=0x00;
00014b bfec      	OUT  0x3C,R30
                 ; 0000 008C 
                 ; 0000 008D     TIMSK=0x00;
00014c bfe9      	OUT  0x39,R30
                 ; 0000 008E     #asm ("cli")
00014d 94f8      	cli
                 ; 0000 008F }
00014e 9508      	RET
                 ;
                 ;void pwm_on()
                 ; 0000 0092 {
                 _pwm_on:
                 ; 0000 0093     pwm_en=1;
00014f 9468      	SET
000150 f822      	BLD  R2,2
                 ; 0000 0094     TCCR1A=0xA1;
000151 eae1      	LDI  R30,LOW(161)
000152 bdef      	OUT  0x2F,R30
                 ; 0000 0095     TCCR1B=0x03;
000153 e0e3      	LDI  R30,LOW(3)
000154 c006      	RJMP _0x20C0006
                 ; 0000 0096 }
                 ;
                 ;void pwm_off()
                 ; 0000 0099 {
                 _pwm_off:
                 ; 0000 009A     pwm_en=0;
000155 94e8      	CLT
000156 f822      	BLD  R2,2
                 ; 0000 009B     dir_ki=0;
000157 9891      	CBI  0x12,1
                 ; 0000 009C     dir_ka=0;
000158 9896      	CBI  0x12,6
                 ; 0000 009D     TCCR1A=0x00;
000159 e0e0      	LDI  R30,LOW(0)
00015a bdef      	OUT  0x2F,R30
                 ; 0000 009E     TCCR1B=0x00;
                 _0x20C0006:
00015b bdee      	OUT  0x2E,R30
                 ; 0000 009F }
00015c 9508      	RET
                 ;
                 ;void intrpt_on()
                 ; 0000 00A2 {
                 _intrpt_on:
                 ; 0000 00A3     // External Interrupt(s) initialization
                 ; 0000 00A4     // INT0: On
                 ; 0000 00A5     // INT0 Mode: Falling Edge
                 ; 0000 00A6     // INT1: On
                 ; 0000 00A7     // INT1 Mode: Falling Edge
                 ; 0000 00A8     // INT2: Off
                 ; 0000 00A9 
                 ; 0000 00AA 
                 ; 0000 00AB     GICR|=0x40;
00015d b7eb      	IN   R30,0x3B
00015e e0f0      	LDI  R31,0
00015f 64e0      	ORI  R30,0x40
000160 bfeb      	OUT  0x3B,R30
                 ; 0000 00AC     MCUCR=0x02;
000161 e0e2      	LDI  R30,LOW(2)
000162 bfe5      	OUT  0x35,R30
                 ; 0000 00AD     MCUCSR=0x00;
000163 e0e0      	LDI  R30,LOW(0)
000164 bfe4      	OUT  0x34,R30
                 ; 0000 00AE     GIFR=0x40;
000165 e4e0      	LDI  R30,LOW(64)
000166 bfea      	OUT  0x3A,R30
                 ; 0000 00AF     TIFR=0x00;
000167 e0e0      	LDI  R30,LOW(0)
000168 bfe8      	OUT  0x38,R30
                 ; 0000 00B0     // Timer(s)/Counter(s) Interrupt(s) initialization
                 ; 0000 00B1     // Global enable interrupts
                 ; 0000 00B2     #asm("sei")
000169 9478      	sei
                 ; 0000 00B3 }
00016a 9508      	RET
                 ;
                 ;void intrpt_off()
                 ; 0000 00B6 {
                 _intrpt_off:
                 ; 0000 00B7     // External Interrupt(s) initialization
                 ; 0000 00B8     // INT0: On
                 ; 0000 00B9     // INT0 Mode: Falling Edge
                 ; 0000 00BA     // INT1: On
                 ; 0000 00BB     // INT1 Mode: Falling Edge
                 ; 0000 00BC     // INT2: Off
                 ; 0000 00BD     GICR|=0x00;
00016b b7eb      	IN   R30,0x3B
00016c e0f0      	LDI  R31,0
00016d bfeb      	OUT  0x3B,R30
                 ; 0000 00BE     MCUCR=0x00;
00016e e0e0      	LDI  R30,LOW(0)
00016f bfe5      	OUT  0x35,R30
                 ; 0000 00BF     MCUCSR=0x00;
000170 bfe4      	OUT  0x34,R30
                 ; 0000 00C0     GIFR=0x00;
000171 bfea      	OUT  0x3A,R30
                 ; 0000 00C1 
                 ; 0000 00C2     // Timer(s)/Counter(s) Interrupt(s) initialization
                 ; 0000 00C3     TIMSK=0x00;
000172 bfe9      	OUT  0x39,R30
                 ; 0000 00C4     langkah_kiri=0;
000173 940e 0dae 	CALL SUBOPT_0x2
                 ; 0000 00C5     langkah_kanan=0;
000175 940e 0db5 	CALL SUBOPT_0x3
                 ; 0000 00C6     langkah=0;
000177 940e 0dbc 	CALL SUBOPT_0x4
                 ; 0000 00C7     sigma_langkah=0;
000179 e0e0      	LDI  R30,LOW(0)
00017a e0f0      	LDI  R31,HIGH(0)
00017b 93e0 0211 	STS  _sigma_langkah,R30
00017d 93f0 0212 	STS  _sigma_langkah+1,R31
                 ; 0000 00C8     // Global enable interrupts
                 ; 0000 00C9     #asm("cli")
00017f 94f8      	cli
                 ; 0000 00CA }
000180 9508      	RET
                 ;
                 ;
                 ;void read_sensor()
                 ; 0000 00CE {
                 _read_sensor:
                 ; 0000 00CF     front_sensor=0;
000181 e0e0      	LDI  R30,LOW(0)
000182 93e0 01f4 	STS  _front_sensor,R30
                 ; 0000 00D0     rear_sensor=0;
000184 93e0 01f5 	STS  _rear_sensor,R30
                 ; 0000 00D1 
                 ; 0000 00D2     for(i=0;i<8;i++)
000186 93e0 01f1 	STS  _i,R30
                 _0xC:
000188 91a0 01f1 	LDS  R26,_i
00018a 30a8      	CPI  R26,LOW(0x8)
00018b f010      	BRLO PC+3
00018c 940c 01e3 	JMP _0xD
                 ; 0000 00D3         {
                 ; 0000 00D4             if     (i==0){PORTC.6=0;PORTC.5=0;PORTC.4=0;}
00018e 91e0 01f1 	LDS  R30,_i
000190 30e0      	CPI  R30,0
000191 f421      	BRNE _0xE
000192 98ae      	CBI  0x15,6
000193 98ad      	CBI  0x15,5
000194 98ac      	CBI  0x15,4
                 ; 0000 00D5             else if(i==1){PORTC.6=0;PORTC.5=0;PORTC.4=1;}
000195 c033      	RJMP _0x15
                 _0xE:
000196 91a0 01f1 	LDS  R26,_i
000198 30a1      	CPI  R26,LOW(0x1)
000199 f419      	BRNE _0x16
00019a 98ae      	CBI  0x15,6
00019b 98ad      	CBI  0x15,5
00019c c02b      	RJMP _0x2EB
                 ; 0000 00D6             else if(i==2){PORTC.6=0;PORTC.5=1;PORTC.4=0;}
                 _0x16:
00019d 91a0 01f1 	LDS  R26,_i
00019f 30a2      	CPI  R26,LOW(0x2)
0001a0 f421      	BRNE _0x1E
0001a1 98ae      	CBI  0x15,6
0001a2 9aad      	SBI  0x15,5
0001a3 98ac      	CBI  0x15,4
                 ; 0000 00D7             else if(i==3){PORTC.6=0;PORTC.5=1;PORTC.4=1;}
0001a4 c024      	RJMP _0x25
                 _0x1E:
0001a5 91a0 01f1 	LDS  R26,_i
0001a7 30a3      	CPI  R26,LOW(0x3)
0001a8 f411      	BRNE _0x26
0001a9 98ae      	CBI  0x15,6
0001aa c01c      	RJMP _0x2EC
                 ; 0000 00D8             else if(i==4){PORTC.6=1;PORTC.5=0;PORTC.4=0;}
                 _0x26:
0001ab 91a0 01f1 	LDS  R26,_i
0001ad 30a4      	CPI  R26,LOW(0x4)
0001ae f421      	BRNE _0x2E
0001af 9aae      	SBI  0x15,6
0001b0 98ad      	CBI  0x15,5
0001b1 98ac      	CBI  0x15,4
                 ; 0000 00D9             else if(i==5){PORTC.6=1;PORTC.5=0;PORTC.4=1;}
0001b2 c016      	RJMP _0x35
                 _0x2E:
0001b3 91a0 01f1 	LDS  R26,_i
0001b5 30a5      	CPI  R26,LOW(0x5)
0001b6 f419      	BRNE _0x36
0001b7 9aae      	SBI  0x15,6
0001b8 98ad      	CBI  0x15,5
0001b9 c00e      	RJMP _0x2EB
                 ; 0000 00DA             else if(i==6){PORTC.6=1;PORTC.5=1;PORTC.4=0;}
                 _0x36:
0001ba 91a0 01f1 	LDS  R26,_i
0001bc 30a6      	CPI  R26,LOW(0x6)
0001bd f421      	BRNE _0x3E
0001be 9aae      	SBI  0x15,6
0001bf 9aad      	SBI  0x15,5
0001c0 98ac      	CBI  0x15,4
                 ; 0000 00DB             else if(i==7){PORTC.6=1;PORTC.5=1;PORTC.4=1;}
0001c1 c007      	RJMP _0x45
                 _0x3E:
0001c2 91a0 01f1 	LDS  R26,_i
0001c4 30a7      	CPI  R26,LOW(0x7)
0001c5 f419      	BRNE _0x46
0001c6 9aae      	SBI  0x15,6
                 _0x2EC:
0001c7 9aad      	SBI  0x15,5
                 _0x2EB:
0001c8 9aac      	SBI  0x15,4
                 ; 0000 00DC             adc_result1[i]=read_adc(7);//depan
                 _0x46:
                 _0x45:
                 _0x35:
                 _0x25:
                 _0x15:
0001c9 940e 0dc3 	CALL SUBOPT_0x5
0001cb 58e9      	SUBI R30,LOW(-_adc_result1)
0001cc 4ffe      	SBCI R31,HIGH(-_adc_result1)
0001cd 93ff      	PUSH R31
0001ce 93ef      	PUSH R30
0001cf 940e 0dc7 	CALL SUBOPT_0x6
0001d1 91af      	POP  R26
0001d2 91bf      	POP  R27
0001d3 93ec      	ST   X,R30
                 ; 0000 00DD             adc_result2[i]=read_adc(6);//belakang
0001d4 940e 0dc3 	CALL SUBOPT_0x5
0001d6 58e1      	SUBI R30,LOW(-_adc_result2)
0001d7 4ffe      	SBCI R31,HIGH(-_adc_result2)
0001d8 93ff      	PUSH R31
0001d9 93ef      	PUSH R30
0001da e0e6      	LDI  R30,LOW(6)
0001db 93ea      	ST   -Y,R30
0001dc df34      	RCALL _read_adc
0001dd 91af      	POP  R26
0001de 91bf      	POP  R27
0001df 93ec      	ST   X,R30
                 ; 0000 00DE         }
0001e0 940e 0dcb 	CALL SUBOPT_0x7
0001e2 cfa5      	RJMP _0xC
                 _0xD:
                 ; 0000 00DF     //adc_result_top=read_adc(1);
                 ; 0000 00E0 
                 ; 0000 00E1     for(i=0;i<8;i++)
0001e3 e0e0      	LDI  R30,LOW(0)
0001e4 93e0 01f1 	STS  _i,R30
                 _0x4E:
0001e6 91a0 01f1 	LDS  R26,_i
0001e8 30a8      	CPI  R26,LOW(0x8)
0001e9 f590      	BRSH _0x4F
                 ; 0000 00E2         {
                 ; 0000 00E3             if      (adc_result1[i]>adc_tres1[i]){front_sensor=front_sensor|1<<i;}
0001ea 940e 0dc3 	CALL SUBOPT_0x5
0001ec 940e 0dd1 	CALL SUBOPT_0x8
0001ee 17ea      	CP   R30,R26
0001ef f418      	BRSH _0x50
0001f0 940e 0ddb 	CALL SUBOPT_0x9
0001f2 c008      	RJMP _0x2ED
                 ; 0000 00E4             else if (adc_result1[i]<adc_tres1[i]){front_sensor=front_sensor|0<<i;}
                 _0x50:
0001f3 940e 0dc3 	CALL SUBOPT_0x5
0001f5 940e 0dd1 	CALL SUBOPT_0x8
0001f7 17ae      	CP   R26,R30
0001f8 f420      	BRSH _0x52
0001f9 940e 0de7 	CALL SUBOPT_0xA
                 _0x2ED:
0001fb 93e0 01f4 	STS  _front_sensor,R30
                 ; 0000 00E5 
                 ; 0000 00E6             if      (adc_result2[i]>adc_tres2[i]){rear_sensor=rear_sensor|1<<i;}
                 _0x52:
0001fd 940e 0dc3 	CALL SUBOPT_0x5
0001ff 940e 0deb 	CALL SUBOPT_0xB
000201 17ea      	CP   R30,R26
000202 f460      	BRSH _0x53
000203 9160 01f5 	LDS  R22,_rear_sensor
000205 2777      	CLR  R23
000206 91e0 01f1 	LDS  R30,_i
000208 e0a1      	LDI  R26,LOW(1)
000209 940e 0fe4 	CALL __LSLB12
00020b e0f0      	LDI  R31,0
00020c 01db      	MOVW R26,R22
00020d 2bea      	OR   R30,R26
00020e c008      	RJMP _0x2EE
                 ; 0000 00E7             else if (adc_result2[i]<adc_tres2[i]){rear_sensor=rear_sensor|0<<i;}
                 _0x53:
00020f 940e 0dc3 	CALL SUBOPT_0x5
000211 940e 0deb 	CALL SUBOPT_0xB
000213 17ae      	CP   R26,R30
000214 f420      	BRSH _0x55
000215 940e 0df5 	CALL SUBOPT_0xC
                 _0x2EE:
000217 93e0 01f5 	STS  _rear_sensor,R30
                 ; 0000 00E8         }
                 _0x55:
000219 940e 0dcb 	CALL SUBOPT_0x7
00021b cfca      	RJMP _0x4E
                 _0x4F:
                 ; 0000 00E9 
                 ; 0000 00EA     rear_sensor=0b01111110&rear_sensor;
00021c 940e 0df5 	CALL SUBOPT_0xC
00021e 77ee      	ANDI R30,LOW(0x7E)
00021f 70f0      	ANDI R31,HIGH(0x7E)
000220 93e0 01f5 	STS  _rear_sensor,R30
                 ; 0000 00EB }
000222 9508      	RET
                 ;
                 ;void read_rear_sensor()
                 ; 0000 00EE {
                 ; 0000 00EF     front_sensor=0;
                 ; 0000 00F0     rear_sensor=0;
                 ; 0000 00F1 
                 ; 0000 00F2     for(i=0;i<8;i++)
                 ; 0000 00F3     {
                 ; 0000 00F4         if     (i==0){PORTC.6=0;PORTC.5=0;PORTC.4=0;}
                 ; 0000 00F5         else if(i==1){PORTC.6=0;PORTC.5=0;PORTC.4=1;}
                 ; 0000 00F6         else if(i==2){PORTC.6=0;PORTC.5=1;PORTC.4=0;}
                 ; 0000 00F7         else if(i==3){PORTC.6=0;PORTC.5=1;PORTC.4=1;}
                 ; 0000 00F8         else if(i==4){PORTC.6=1;PORTC.5=0;PORTC.4=0;}
                 ; 0000 00F9         else if(i==5){PORTC.6=1;PORTC.5=0;PORTC.4=1;}
                 ; 0000 00FA         else if(i==6){PORTC.6=1;PORTC.5=1;PORTC.4=0;}
                 ; 0000 00FB         else if(i==7){PORTC.6=1;PORTC.5=1;PORTC.4=1;}
                 ; 0000 00FC        // adc_result1[i]=read_adc(7);//depan
                 ; 0000 00FD         adc_result2[i]=read_adc(6);//belakang
                 ; 0000 00FE     }
                 ; 0000 00FF     //adc_result_top=read_adc(1);
                 ; 0000 0100 
                 ; 0000 0101     for(i=0;i<8;i++)
                 ; 0000 0102     {
                 ; 0000 0103         if      (adc_result2[i]>adc_tres2[i]){rear_sensor=rear_sensor|1<<i;}
                 ; 0000 0104         else if (adc_result2[i]<adc_tres2[i]){rear_sensor=rear_sensor|0<<i;}
                 ; 0000 0105     }
                 ; 0000 0106 
                 ; 0000 0107     rear_sensor=0b01111110&rear_sensor;
                 ; 0000 0108 }
                 ;
                 ;void read_front_sensor()
                 ; 0000 010B {
                 _read_front_sensor:
                 ; 0000 010C     front_sensor=0;
000223 e0e0      	LDI  R30,LOW(0)
000224 93e0 01f4 	STS  _front_sensor,R30
                 ; 0000 010D 
                 ; 0000 010E     for(i=0;i<8;i++)
000226 93e0 01f1 	STS  _i,R30
                 _0x9F:
000228 91a0 01f1 	LDS  R26,_i
00022a 30a8      	CPI  R26,LOW(0x8)
00022b f010      	BRLO PC+3
00022c 940c 0277 	JMP _0xA0
                 ; 0000 010F     {
                 ; 0000 0110         if     (i==0){PORTC.6=0;PORTC.5=0;PORTC.4=0;}
00022e 91e0 01f1 	LDS  R30,_i
000230 30e0      	CPI  R30,0
000231 f421      	BRNE _0xA1
000232 98ae      	CBI  0x15,6
000233 98ad      	CBI  0x15,5
000234 98ac      	CBI  0x15,4
                 ; 0000 0111         else if(i==1){PORTC.6=0;PORTC.5=0;PORTC.4=1;}
000235 c033      	RJMP _0xA8
                 _0xA1:
000236 91a0 01f1 	LDS  R26,_i
000238 30a1      	CPI  R26,LOW(0x1)
000239 f419      	BRNE _0xA9
00023a 98ae      	CBI  0x15,6
00023b 98ad      	CBI  0x15,5
00023c c02b      	RJMP _0x2F2
                 ; 0000 0112         else if(i==2){PORTC.6=0;PORTC.5=1;PORTC.4=0;}
                 _0xA9:
00023d 91a0 01f1 	LDS  R26,_i
00023f 30a2      	CPI  R26,LOW(0x2)
000240 f421      	BRNE _0xB1
000241 98ae      	CBI  0x15,6
000242 9aad      	SBI  0x15,5
000243 98ac      	CBI  0x15,4
                 ; 0000 0113         else if(i==3){PORTC.6=0;PORTC.5=1;PORTC.4=1;}
000244 c024      	RJMP _0xB8
                 _0xB1:
000245 91a0 01f1 	LDS  R26,_i
000247 30a3      	CPI  R26,LOW(0x3)
000248 f411      	BRNE _0xB9
000249 98ae      	CBI  0x15,6
00024a c01c      	RJMP _0x2F3
                 ; 0000 0114         else if(i==4){PORTC.6=1;PORTC.5=0;PORTC.4=0;}
                 _0xB9:
00024b 91a0 01f1 	LDS  R26,_i
00024d 30a4      	CPI  R26,LOW(0x4)
00024e f421      	BRNE _0xC1
00024f 9aae      	SBI  0x15,6
000250 98ad      	CBI  0x15,5
000251 98ac      	CBI  0x15,4
                 ; 0000 0115         else if(i==5){PORTC.6=1;PORTC.5=0;PORTC.4=1;}
000252 c016      	RJMP _0xC8
                 _0xC1:
000253 91a0 01f1 	LDS  R26,_i
000255 30a5      	CPI  R26,LOW(0x5)
000256 f419      	BRNE _0xC9
000257 9aae      	SBI  0x15,6
000258 98ad      	CBI  0x15,5
000259 c00e      	RJMP _0x2F2
                 ; 0000 0116         else if(i==6){PORTC.6=1;PORTC.5=1;PORTC.4=0;}
                 _0xC9:
00025a 91a0 01f1 	LDS  R26,_i
00025c 30a6      	CPI  R26,LOW(0x6)
00025d f421      	BRNE _0xD1
00025e 9aae      	SBI  0x15,6
00025f 9aad      	SBI  0x15,5
000260 98ac      	CBI  0x15,4
                 ; 0000 0117         else if(i==7){PORTC.6=1;PORTC.5=1;PORTC.4=1;}
000261 c007      	RJMP _0xD8
                 _0xD1:
000262 91a0 01f1 	LDS  R26,_i
000264 30a7      	CPI  R26,LOW(0x7)
000265 f419      	BRNE _0xD9
000266 9aae      	SBI  0x15,6
                 _0x2F3:
000267 9aad      	SBI  0x15,5
                 _0x2F2:
000268 9aac      	SBI  0x15,4
                 ; 0000 0118         adc_result1[i]=read_adc(7);//depan
                 _0xD9:
                 _0xD8:
                 _0xC8:
                 _0xB8:
                 _0xA8:
000269 940e 0dc3 	CALL SUBOPT_0x5
00026b 58e9      	SUBI R30,LOW(-_adc_result1)
00026c 4ffe      	SBCI R31,HIGH(-_adc_result1)
00026d 93ff      	PUSH R31
00026e 93ef      	PUSH R30
00026f 940e 0dc7 	CALL SUBOPT_0x6
000271 91af      	POP  R26
000272 91bf      	POP  R27
000273 93ec      	ST   X,R30
                 ; 0000 0119     }
000274 940e 0dcb 	CALL SUBOPT_0x7
000276 cfb1      	RJMP _0x9F
                 _0xA0:
                 ; 0000 011A     //adc_result_top=read_adc(1);
                 ; 0000 011B 
                 ; 0000 011C     for(i=0;i<8;i++)
000277 e0e0      	LDI  R30,LOW(0)
000278 93e0 01f1 	STS  _i,R30
                 _0xE1:
00027a 91a0 01f1 	LDS  R26,_i
00027c 30a8      	CPI  R26,LOW(0x8)
00027d f4b0      	BRSH _0xE2
                 ; 0000 011D     {
                 ; 0000 011E         if      (adc_result1[i]>adc_tres1[i]){front_sensor=front_sensor|1<<i;}
00027e 940e 0dc3 	CALL SUBOPT_0x5
000280 940e 0dd1 	CALL SUBOPT_0x8
000282 17ea      	CP   R30,R26
000283 f418      	BRSH _0xE3
000284 940e 0ddb 	CALL SUBOPT_0x9
000286 c008      	RJMP _0x2F4
                 ; 0000 011F         else if (adc_result1[i]<adc_tres1[i]){front_sensor=front_sensor|0<<i;}
                 _0xE3:
000287 940e 0dc3 	CALL SUBOPT_0x5
000289 940e 0dd1 	CALL SUBOPT_0x8
00028b 17ae      	CP   R26,R30
00028c f420      	BRSH _0xE5
00028d 940e 0de7 	CALL SUBOPT_0xA
                 _0x2F4:
00028f 93e0 01f4 	STS  _front_sensor,R30
                 ; 0000 0120     }
                 _0xE5:
000291 940e 0dcb 	CALL SUBOPT_0x7
000293 cfe6      	RJMP _0xE1
                 _0xE2:
                 ; 0000 0121 }
000294 9508      	RET
                 ;
                 ;void ka_maju()
                 ; 0000 0124 {
                 _ka_maju:
                 ; 0000 0125     dir_ka=0;
000295 9896      	CBI  0x12,6
                 ; 0000 0126     pwm_ka=speed_ka;
000296 c00e      	RJMP _0x20C0005
                 ; 0000 0127 }
                 ;
                 ;void ka_mund()
                 ; 0000 012A {
                 _ka_mund:
                 ; 0000 012B     if(pwm_en==1)dir_ka  =1;
000297 e0a0      	LDI  R26,0
000298 fc22      	SBRC R2,2
000299 e0a1      	LDI  R26,1
00029a 30a1      	CPI  R26,LOW(0x1)
00029b f409      	BRNE _0xE8
00029c 9a96      	SBI  0x12,6
                 ; 0000 012C     speed_ka=255+speed_ka;
                 _0xE8:
00029d 91e0 016c 	LDS  R30,_speed_ka
00029f 91f0 016d 	LDS  R31,_speed_ka+1
0002a1 50e1      	SUBI R30,LOW(-255)
0002a2 4fff      	SBCI R31,HIGH(-255)
0002a3 940e 0df9 	CALL SUBOPT_0xD
                 ; 0000 012D     pwm_ka  =speed_ka;
                 _0x20C0005:
0002a5 91e0 016c 	LDS  R30,_speed_ka
0002a7 91f0 016d 	LDS  R31,_speed_ka+1
0002a9 bdfb      	OUT  0x2A+1,R31
0002aa bdea      	OUT  0x2A,R30
                 ; 0000 012E }
0002ab 9508      	RET
                 ;
                 ;void ki_maju()
                 ; 0000 0131 {
                 _ki_maju:
                 ; 0000 0132     dir_ki=0;
0002ac 9891      	CBI  0x12,1
                 ; 0000 0133     pwm_ki=speed_ki;
0002ad c00e      	RJMP _0x20C0004
                 ; 0000 0134 }
                 ;
                 ;void ki_mund()
                 ; 0000 0137 {
                 _ki_mund:
                 ; 0000 0138     if(pwm_en==1)dir_ki  =1;
0002ae e0a0      	LDI  R26,0
0002af fc22      	SBRC R2,2
0002b0 e0a1      	LDI  R26,1
0002b1 30a1      	CPI  R26,LOW(0x1)
0002b2 f409      	BRNE _0xED
0002b3 9a91      	SBI  0x12,1
                 ; 0000 0139     speed_ki=255+speed_ki;
                 _0xED:
0002b4 91e0 016e 	LDS  R30,_speed_ki
0002b6 91f0 016f 	LDS  R31,_speed_ki+1
0002b8 50e1      	SUBI R30,LOW(-255)
0002b9 4fff      	SBCI R31,HIGH(-255)
0002ba 940e 0dfe 	CALL SUBOPT_0xE
                 ; 0000 013A     pwm_ki  =speed_ki;
                 _0x20C0004:
0002bc 91e0 016e 	LDS  R30,_speed_ki
0002be 91f0 016f 	LDS  R31,_speed_ki+1
0002c0 bdf9      	OUT  0x28+1,R31
0002c1 bde8      	OUT  0x28,R30
                 ; 0000 013B }
0002c2 9508      	RET
                 ;
                 ;void pwm_out()
                 ; 0000 013E {
                 _pwm_out:
                 ; 0000 013F     if      (speed_ka>255)  speed_ka  =255;
0002c3 91a0 016c 	LDS  R26,_speed_ka
0002c5 91b0 016d 	LDS  R27,_speed_ka+1
0002c7 30a0      	CPI  R26,LOW(0x100)
0002c8 e0e1      	LDI  R30,HIGH(0x100)
0002c9 07be      	CPC  R27,R30
0002ca f01c      	BRLT _0xF0
0002cb efef      	LDI  R30,LOW(255)
0002cc e0f0      	LDI  R31,HIGH(255)
0002cd c00a      	RJMP _0x2F5
                 ; 0000 0140     else if (speed_ka<-255) speed_ka  =-255;
                 _0xF0:
0002ce 91a0 016c 	LDS  R26,_speed_ka
0002d0 91b0 016d 	LDS  R27,_speed_ka+1
0002d2 30a1      	CPI  R26,LOW(0xFF01)
0002d3 efef      	LDI  R30,HIGH(0xFF01)
0002d4 07be      	CPC  R27,R30
0002d5 f434      	BRGE _0xF2
0002d6 e0e1      	LDI  R30,LOW(65281)
0002d7 efff      	LDI  R31,HIGH(65281)
                 _0x2F5:
0002d8 93e0 016c 	STS  _speed_ka,R30
0002da 93f0 016d 	STS  _speed_ka+1,R31
                 ; 0000 0141 
                 ; 0000 0142     if      (speed_ki>255)  speed_ki  =255;
                 _0xF2:
0002dc 91a0 016e 	LDS  R26,_speed_ki
0002de 91b0 016f 	LDS  R27,_speed_ki+1
0002e0 30a0      	CPI  R26,LOW(0x100)
0002e1 e0e1      	LDI  R30,HIGH(0x100)
0002e2 07be      	CPC  R27,R30
0002e3 f01c      	BRLT _0xF3
0002e4 efef      	LDI  R30,LOW(255)
0002e5 e0f0      	LDI  R31,HIGH(255)
0002e6 c00a      	RJMP _0x2F6
                 ; 0000 0143     else if (speed_ki<-255) speed_ki  =-255;
                 _0xF3:
0002e7 91a0 016e 	LDS  R26,_speed_ki
0002e9 91b0 016f 	LDS  R27,_speed_ki+1
0002eb 30a1      	CPI  R26,LOW(0xFF01)
0002ec efef      	LDI  R30,HIGH(0xFF01)
0002ed 07be      	CPC  R27,R30
0002ee f434      	BRGE _0xF5
0002ef e0e1      	LDI  R30,LOW(65281)
0002f0 efff      	LDI  R31,HIGH(65281)
                 _0x2F6:
0002f1 93e0 016e 	STS  _speed_ki,R30
0002f3 93f0 016f 	STS  _speed_ki+1,R31
                 ; 0000 0144 
                 ; 0000 0145 
                 ; 0000 0146     for(i=0;i<8;i++)
                 _0xF5:
0002f5 e0e0      	LDI  R30,LOW(0)
0002f6 93e0 01f1 	STS  _i,R30
                 _0xF7:
0002f8 91a0 01f1 	LDS  R26,_i
0002fa 30a8      	CPI  R26,LOW(0x8)
0002fb f480      	BRSH _0xF8
                 ; 0000 0147     {
                 ; 0000 0148         disp_sensor=0;
0002fc e0e0      	LDI  R30,LOW(0)
0002fd 93e0 01f6 	STS  _disp_sensor,R30
                 ; 0000 0149         disp_sensor=front_sensor>>i;
0002ff 940e 0de7 	CALL SUBOPT_0xA
000301 940e 0e03 	CALL SUBOPT_0xF
                 ; 0000 014A         disp_sensor=(disp_sensor)&(0b00000001);
                 ; 0000 014B         n=7-i;
000303 940e 0e0f 	CALL SUBOPT_0x10
                 ; 0000 014C         lcd_gotoxy(n,0);
000305 940e 0e18 	CALL SUBOPT_0x11
                 ; 0000 014D         sprintf(lcd,"%d",disp_sensor);
000307 940e 0e25 	CALL SUBOPT_0x12
                 ; 0000 014E         lcd_puts(lcd);
                 ; 0000 014F     }
000309 940e 0dcb 	CALL SUBOPT_0x7
00030b cfec      	RJMP _0xF7
                 _0xF8:
                 ; 0000 0150 
                 ; 0000 0151     for(i=0;i<8;i++)
00030c e0e0      	LDI  R30,LOW(0)
00030d 93e0 01f1 	STS  _i,R30
                 _0xFA:
00030f 91a0 01f1 	LDS  R26,_i
000311 30a8      	CPI  R26,LOW(0x8)
000312 f480      	BRSH _0xFB
                 ; 0000 0152     {
                 ; 0000 0153         disp_sensor=0;
000313 e0e0      	LDI  R30,LOW(0)
000314 93e0 01f6 	STS  _disp_sensor,R30
                 ; 0000 0154         disp_sensor=rear_sensor>>i;
000316 940e 0df5 	CALL SUBOPT_0xC
000318 940e 0e03 	CALL SUBOPT_0xF
                 ; 0000 0155         disp_sensor=(disp_sensor)&(0b00000001);
                 ; 0000 0156         n=7-i;
00031a 940e 0e0f 	CALL SUBOPT_0x10
                 ; 0000 0157         lcd_gotoxy(n,1);
00031c 940e 0e36 	CALL SUBOPT_0x13
                 ; 0000 0158         sprintf(lcd,"%d",disp_sensor);
00031e 940e 0e25 	CALL SUBOPT_0x12
                 ; 0000 0159         lcd_puts(lcd);
                 ; 0000 015A     }
000320 940e 0dcb 	CALL SUBOPT_0x7
000322 cfec      	RJMP _0xFA
                 _0xFB:
                 ; 0000 015B 
                 ; 0000 015C     lcd_gotoxy(9,0);
000323 e0e9      	LDI  R30,LOW(9)
000324 93ea      	ST   -Y,R30
000325 940e 0e18 	CALL SUBOPT_0x11
                 ; 0000 015D     sprintf(lcd,"%d",error);
000327 01f5      	MOVW R30,R10
000328 940e 0e43 	CALL SUBOPT_0x14
                 ; 0000 015E     lcd_puts(lcd);
                 ; 0000 015F 
                 ; 0000 0160     lcd_gotoxy(12,0);
00032a e0ec      	LDI  R30,LOW(12)
00032b 93ea      	ST   -Y,R30
00032c 940e 0e18 	CALL SUBOPT_0x11
                 ; 0000 0161     sprintf(lcd,"%d",langkah);
00032e 91e0 020d 	LDS  R30,_langkah
000330 91f0 020e 	LDS  R31,_langkah+1
000332 940e 0e51 	CALL SUBOPT_0x15
                 ; 0000 0162     lcd_puts(lcd);
                 ; 0000 0163 
                 ; 0000 0164     lcd_gotoxy(15,0);
000334 e0ef      	LDI  R30,LOW(15)
000335 93ea      	ST   -Y,R30
000336 940e 0e18 	CALL SUBOPT_0x11
                 ; 0000 0165     sprintf(lcd,"%d",per4an);
000338 91e0 01fc 	LDS  R30,_per4an
00033a 940e 0e5f 	CALL SUBOPT_0x16
00033c 940e 0e65 	CALL SUBOPT_0x17
                 ; 0000 0166     lcd_puts(lcd);
                 ; 0000 0167 
                 ; 0000 0168     lcd_gotoxy(8,1);
00033e e0e8      	LDI  R30,LOW(8)
00033f 93ea      	ST   -Y,R30
000340 940e 0e36 	CALL SUBOPT_0x13
                 ; 0000 0169     sprintf(lcd,"%d",speed_ki);
000342 91e0 016e 	LDS  R30,_speed_ki
000344 91f0 016f 	LDS  R31,_speed_ki+1
000346 940e 0e43 	CALL SUBOPT_0x14
                 ; 0000 016A     lcd_puts(lcd);
                 ; 0000 016B 
                 ; 0000 016C     lcd_gotoxy(13,1);
000348 e0ed      	LDI  R30,LOW(13)
000349 93ea      	ST   -Y,R30
00034a 940e 0e36 	CALL SUBOPT_0x13
                 ; 0000 016D     sprintf(lcd,"%d",speed_ka);
00034c 91e0 016c 	LDS  R30,_speed_ka
00034e 91f0 016d 	LDS  R31,_speed_ka+1
000350 940e 0e43 	CALL SUBOPT_0x14
                 ; 0000 016E     lcd_puts(lcd);
                 ; 0000 016F 
                 ; 0000 0170     if      (speed_ka >=0)  ka_maju();
000352 91a0 016d 	LDS  R26,_speed_ka+1
000354 23aa      	TST  R26
000355 f012      	BRMI _0xFC
000356 df3e      	RCALL _ka_maju
                 ; 0000 0171     else if (speed_ka <0)   ka_mund();
000357 c005      	RJMP _0xFD
                 _0xFC:
000358 91a0 016d 	LDS  R26,_speed_ka+1
00035a 23aa      	TST  R26
00035b f40a      	BRPL _0xFE
00035c df3a      	RCALL _ka_mund
                 ; 0000 0172 
                 ; 0000 0173     if      (speed_ki >=0)  ki_maju();
                 _0xFE:
                 _0xFD:
00035d 91a0 016f 	LDS  R26,_speed_ki+1
00035f 23aa      	TST  R26
000360 f012      	BRMI _0xFF
000361 df4a      	RCALL _ki_maju
                 ; 0000 0174     else if (speed_ki <0)   ki_mund();
000362 c005      	RJMP _0x100
                 _0xFF:
000363 91a0 016f 	LDS  R26,_speed_ki+1
000365 23aa      	TST  R26
000366 f40a      	BRPL _0x101
000367 df46      	RCALL _ki_mund
                 ; 0000 0175 }
                 _0x101:
                 _0x100:
000368 9508      	RET
                 ;
                 ;void komp_pid()
                 ; 0000 0178 {
                 _komp_pid:
                 ; 0000 0179     d_error =error-error_before;
000369 01f5      	MOVW R30,R10
00036a 19ec      	SUB  R30,R12
00036b 09fd      	SBC  R31,R13
00036c 93e0 0162 	STS  _d_error,R30
00036e 93f0 0163 	STS  _d_error+1,R31
                 ; 0000 017A     MV      =(kp*error)+(kd*d_error);
000370 01f5      	MOVW R30,R10
000371 91a0 0168 	LDS  R26,_kp
000373 91b0 0169 	LDS  R27,_kp+1
000375 940e 100d 	CALL __MULW12
000377 01bf      	MOVW R22,R30
000378 91e0 0162 	LDS  R30,_d_error
00037a 91f0 0163 	LDS  R31,_d_error+1
00037c 91a0 016a 	LDS  R26,_kd
00037e 91b0 016b 	LDS  R27,_kd+1
000380 940e 100d 	CALL __MULW12
000382 0fe6      	ADD  R30,R22
000383 1ff7      	ADC  R31,R23
000384 014f      	MOVW R8,R30
                 ; 0000 017B 
                 ; 0000 017C     speed_ka=i_speed+MV;
000385 01f4      	MOVW R30,R8
000386 0de4      	ADD  R30,R4
000387 1df5      	ADC  R31,R5
000388 940e 0df9 	CALL SUBOPT_0xD
                 ; 0000 017D     speed_ki=i_speed-MV;
00038a 01f2      	MOVW R30,R4
00038b 19e8      	SUB  R30,R8
00038c 09f9      	SBC  R31,R9
00038d 940e 0dfe 	CALL SUBOPT_0xE
                 ; 0000 017E 
                 ; 0000 017F     error_before=error;
00038f 0165      	MOVW R12,R10
                 ; 0000 0180     d_d_error=error-d_error;
000390 91a0 0162 	LDS  R26,_d_error
000392 91b0 0163 	LDS  R27,_d_error+1
000394 01f5      	MOVW R30,R10
000395 1bea      	SUB  R30,R26
000396 0bfb      	SBC  R31,R27
000397 93e0 0160 	STS  _d_d_error,R30
000399 93f0 0161 	STS  _d_d_error+1,R31
                 ; 0000 0181 }
00039b 9508      	RET
                 ;
                 ;void giving_weight10()
                 ; 0000 0184 {
                 _giving_weight10:
                 ; 0000 0185     switch(front_sensor)
00039c 940e 0de7 	CALL SUBOPT_0xA
                 ; 0000 0186     {
                 ; 0000 0187     case 0b00000001:error=  16;white_line=0;break;
00039e 30e1      	CPI  R30,LOW(0x1)
00039f e0a0      	LDI  R26,HIGH(0x1)
0003a0 07fa      	CPC  R31,R26
0003a1 f419      	BRNE _0x105
0003a2 e1e0      	LDI  R30,LOW(16)
0003a3 e0f0      	LDI  R31,HIGH(16)
0003a4 c034      	RJMP _0x2F7
                 ; 0000 0188     case 0b00000010:error=  10;white_line=0;break;
                 _0x105:
0003a5 30e2      	CPI  R30,LOW(0x2)
0003a6 e0a0      	LDI  R26,HIGH(0x2)
0003a7 07fa      	CPC  R31,R26
0003a8 f419      	BRNE _0x106
0003a9 e0ea      	LDI  R30,LOW(10)
0003aa e0f0      	LDI  R31,HIGH(10)
0003ab c02d      	RJMP _0x2F7
                 ; 0000 0189     case 0b00000100:error=   5;white_line=0;break;
                 _0x106:
0003ac 30e4      	CPI  R30,LOW(0x4)
0003ad e0a0      	LDI  R26,HIGH(0x4)
0003ae 07fa      	CPC  R31,R26
0003af f419      	BRNE _0x107
0003b0 e0e5      	LDI  R30,LOW(5)
0003b1 e0f0      	LDI  R31,HIGH(5)
0003b2 c026      	RJMP _0x2F7
                 ; 0000 018A     case 0b00001000:error=   1;white_line=0;kp=speed/20;kd=6*kp;break;
                 _0x107:
0003b3 30e8      	CPI  R30,LOW(0x8)
0003b4 e0a0      	LDI  R26,HIGH(0x8)
0003b5 07fa      	CPC  R31,R26
0003b6 f429      	BRNE _0x108
0003b7 e0e1      	LDI  R30,LOW(1)
0003b8 e0f0      	LDI  R31,HIGH(1)
0003b9 940e 0e6f 	CALL SUBOPT_0x18
0003bb c020      	RJMP _0x104
                 ; 0000 018B     case 0b00010000:error=  -1;white_line=0;kp=speed/20;kd=6*kp;;break;
                 _0x108:
0003bc 31e0      	CPI  R30,LOW(0x10)
0003bd e0a0      	LDI  R26,HIGH(0x10)
0003be 07fa      	CPC  R31,R26
0003bf f429      	BRNE _0x109
0003c0 efef      	LDI  R30,LOW(65535)
0003c1 efff      	LDI  R31,HIGH(65535)
0003c2 940e 0e6f 	CALL SUBOPT_0x18
0003c4 c017      	RJMP _0x104
                 ; 0000 018C     case 0b00100000:error=  -5;white_line=0;break;
                 _0x109:
0003c5 32e0      	CPI  R30,LOW(0x20)
0003c6 e0a0      	LDI  R26,HIGH(0x20)
0003c7 07fa      	CPC  R31,R26
0003c8 f419      	BRNE _0x10A
0003c9 efeb      	LDI  R30,LOW(65531)
0003ca efff      	LDI  R31,HIGH(65531)
0003cb c00d      	RJMP _0x2F7
                 ; 0000 018D     case 0b01000000:error= -10;white_line=0;break;
                 _0x10A:
0003cc 34e0      	CPI  R30,LOW(0x40)
0003cd e0a0      	LDI  R26,HIGH(0x40)
0003ce 07fa      	CPC  R31,R26
0003cf f419      	BRNE _0x10B
0003d0 efe6      	LDI  R30,LOW(65526)
0003d1 efff      	LDI  R31,HIGH(65526)
0003d2 c006      	RJMP _0x2F7
                 ; 0000 018E     case 0b10000000:error= -16;white_line=0;break;
                 _0x10B:
0003d3 38e0      	CPI  R30,LOW(0x80)
0003d4 e0a0      	LDI  R26,HIGH(0x80)
0003d5 07fa      	CPC  R31,R26
0003d6 f429      	BRNE _0x104
0003d7 efe0      	LDI  R30,LOW(65520)
0003d8 efff      	LDI  R31,HIGH(65520)
                 _0x2F7:
0003d9 015f      	MOVW R10,R30
0003da 94e8      	CLT
0003db f826      	BLD  R2,6
                 ; 0000 018F     }
                 _0x104:
                 ; 0000 0190 }
0003dc 9508      	RET
                 ;
                 ;
                 ;void giving_weight20()
                 ; 0000 0194 {
                 _giving_weight20:
                 ; 0000 0195     switch(front_sensor)
0003dd 940e 0de7 	CALL SUBOPT_0xA
                 ; 0000 0196     {
                 ; 0000 0197         case 0b00000011:error=  13;white_line=0;break;
0003df 30e3      	CPI  R30,LOW(0x3)
0003e0 e0a0      	LDI  R26,HIGH(0x3)
0003e1 07fa      	CPC  R31,R26
0003e2 f419      	BRNE _0x110
0003e3 e0ed      	LDI  R30,LOW(13)
0003e4 e0f0      	LDI  R31,HIGH(13)
0003e5 c032      	RJMP _0x2F8
                 ; 0000 0198         case 0b00000110:error=   7;white_line=0;break;
                 _0x110:
0003e6 30e6      	CPI  R30,LOW(0x6)
0003e7 e0a0      	LDI  R26,HIGH(0x6)
0003e8 07fa      	CPC  R31,R26
0003e9 f419      	BRNE _0x111
0003ea e0e7      	LDI  R30,LOW(7)
0003eb e0f0      	LDI  R31,HIGH(7)
0003ec c02b      	RJMP _0x2F8
                 ; 0000 0199         case 0b00001100:error=   3;white_line=0;break;
                 _0x111:
0003ed 30ec      	CPI  R30,LOW(0xC)
0003ee e0a0      	LDI  R26,HIGH(0xC)
0003ef 07fa      	CPC  R31,R26
0003f0 f419      	BRNE _0x112
0003f1 e0e3      	LDI  R30,LOW(3)
0003f2 e0f0      	LDI  R31,HIGH(3)
0003f3 c024      	RJMP _0x2F8
                 ; 0000 019A         case 0b00011000:error=   0;kp=speed/20;kd=6*kp;white_line=0;break;
                 _0x112:
0003f4 31e8      	CPI  R30,LOW(0x18)
0003f5 e0a0      	LDI  R26,HIGH(0x18)
0003f6 07fa      	CPC  R31,R26
0003f7 f461      	BRNE _0x113
0003f8 24aa      	CLR  R10
0003f9 24bb      	CLR  R11
0003fa 01d3      	MOVW R26,R6
0003fb e1e4      	LDI  R30,LOW(20)
0003fc e0f0      	LDI  R31,HIGH(20)
0003fd 940e 0e84 	CALL SUBOPT_0x19
0003ff e0a6      	LDI  R26,LOW(6)
000400 e0b0      	LDI  R27,HIGH(6)
000401 940e 0e8b 	CALL SUBOPT_0x1A
000403 c015      	RJMP _0x2F9
                 ; 0000 019B         case 0b00110000:error=  -3;white_line=0;break;
                 _0x113:
000404 33e0      	CPI  R30,LOW(0x30)
000405 e0a0      	LDI  R26,HIGH(0x30)
000406 07fa      	CPC  R31,R26
000407 f419      	BRNE _0x114
000408 efed      	LDI  R30,LOW(65533)
000409 efff      	LDI  R31,HIGH(65533)
00040a c00d      	RJMP _0x2F8
                 ; 0000 019C         case 0b01100000:error=  -7;white_line=0;break;
                 _0x114:
00040b 36e0      	CPI  R30,LOW(0x60)
00040c e0a0      	LDI  R26,HIGH(0x60)
00040d 07fa      	CPC  R31,R26
00040e f419      	BRNE _0x115
00040f efe9      	LDI  R30,LOW(65529)
000410 efff      	LDI  R31,HIGH(65529)
000411 c006      	RJMP _0x2F8
                 ; 0000 019D         case 0b11000000:error= -13;white_line=0;break;
                 _0x115:
000412 3ce0      	CPI  R30,LOW(0xC0)
000413 e0a0      	LDI  R26,HIGH(0xC0)
000414 07fa      	CPC  R31,R26
000415 f429      	BRNE _0x10F
000416 efe3      	LDI  R30,LOW(65523)
000417 efff      	LDI  R31,HIGH(65523)
                 _0x2F8:
000418 015f      	MOVW R10,R30
                 _0x2F9:
000419 94e8      	CLT
00041a f826      	BLD  R2,6
                 ; 0000 019E     }
                 _0x10F:
                 ; 0000 019F }
00041b 9508      	RET
                 ;
                 ;void giving_weight11()
                 ; 0000 01A2 {
                 ; 0000 01A3     switch(front_sensor)
                 ; 0000 01A4     {
                 ; 0000 01A5         case 0b11111110:error=  16; backlight_on=10;white_line=1;break;
                 ; 0000 01A6         case 0b11111101:error=  10;backlight_on=10;white_line=1;break;
                 ; 0000 01A7     case 0b11111011:error=   5;backlight_on=10;white_line=1;break;
                 ; 0000 01A8     case 0b11110111:error=   1;backlight_on=10;white_line=1;kp=speed/20;kd=6*kp;break;
                 ; 0000 01A9     case 0b11101111:error=  -1;backlight_on=10;white_line=1;kp=speed/20;kd=6*kp;break;
                 ; 0000 01AA     case 0b11011111:error=  -5;backlight_on=10;white_line=1;break;
                 ; 0000 01AB     case 0b10111111:error= -10;backlight_on=10;white_line=1;break;
                 ; 0000 01AC     case 0b01111111:error= -16;backlight_on=10;white_line=1;break;
                 ; 0000 01AD     }
                 ; 0000 01AE }
                 ;
                 ;
                 ;void giving_weight21()
                 ; 0000 01B2 {
                 ; 0000 01B3 switch(front_sensor)
                 ; 0000 01B4     {
                 ; 0000 01B5     case 0b11111100:error=  13;backlight_on=10;white_line=1;break;
                 ; 0000 01B6     case 0b11111001:error=   7;backlight_on=10;white_line=1;break;
                 ; 0000 01B7     case 0b11110011:error=   3;backlight_on=10;white_line=1;break;
                 ; 0000 01B8     case 0b11100111:error=   0;backlight_on=10;white_line=1;kp=speed/20;kd=6*kp;break;
                 ; 0000 01B9     case 0b11001111:error=  -3;backlight_on=10;white_line=1;break;
                 ; 0000 01BA     case 0b10011111:error=  -7;backlight_on=10;white_line=1;break;
                 ; 0000 01BB     case 0b00111111:error= -13;backlight_on=10;white_line=1;break;
                 ; 0000 01BC }
                 ; 0000 01BD }
                 ;
                 ;
                 ;
                 ;void per4an_handler()
                 ; 0000 01C2 {
                 _per4an_handler:
                 ; 0000 01C3    #asm("cli")
00041c 94f8      	cli
                 ; 0000 01C4    if(per4an>=4) goto selesai;
00041d 91a0 01fc 	LDS  R26,_per4an
00041f 30a4      	CPI  R26,LOW(0x4)
000420 f008      	BRLO _0x12C
000421 c0a7      	RJMP _0x12D
                 ; 0000 01C5    per4an++;
                 _0x12C:
000422 91e0 01fc 	LDS  R30,_per4an
000424 5fef      	SUBI R30,-LOW(1)
000425 93e0 01fc 	STS  _per4an,R30
                 ; 0000 01C6 
                 ; 0000 01C7 
                 ; 0000 01C8     if(per4an_dir[per4an]==0) //pilih kiri
000427 940e 0e92 	CALL SUBOPT_0x1B
000429 30e0      	CPI  R30,0
00042a f011      	BREQ PC+3
00042b 940c 046b 	JMP _0x12E
                 ; 0000 01C9     {
                 ; 0000 01CA       berhasil=1;
00042d 9468      	SET
00042e f827      	BLD  R2,7
                 ; 0000 01CB       error=15;
00042f e0ef      	LDI  R30,LOW(15)
000430 e0f0      	LDI  R31,HIGH(15)
000431 940e 0e99 	CALL SUBOPT_0x1C
                 ; 0000 01CC       speed_ki=-150;
                 ; 0000 01CD       speed_ka=-150;
                 ; 0000 01CE       pwm_out();
                 ; 0000 01CF       delay_ms(40);
000433 e2e8      	LDI  R30,LOW(40)
000434 e0f0      	LDI  R31,HIGH(40)
000435 940e 0ea2 	CALL SUBOPT_0x1D
                 ; 0000 01D0       if(per4an==4)
000437 91a0 01fc 	LDS  R26,_per4an
000439 30a4      	CPI  R26,LOW(0x4)
00043a f439      	BRNE _0x12F
                 ; 0000 01D1       {
                 ; 0000 01D2          speed_ki=-200;
00043b e3e8      	LDI  R30,LOW(65336)
00043c efff      	LDI  R31,HIGH(65336)
00043d 940e 0dfe 	CALL SUBOPT_0xE
                 ; 0000 01D3          speed_ka=80;
00043f e5e0      	LDI  R30,LOW(80)
000440 e0f0      	LDI  R31,HIGH(80)
000441 c006      	RJMP _0x2FC
                 ; 0000 01D4       }
                 ; 0000 01D5       else
                 _0x12F:
                 ; 0000 01D6       {
                 ; 0000 01D7       speed_ki=-200;
000442 e3e8      	LDI  R30,LOW(65336)
000443 efff      	LDI  R31,HIGH(65336)
000444 940e 0dfe 	CALL SUBOPT_0xE
                 ; 0000 01D8       speed_ka=120;
000446 e7e8      	LDI  R30,LOW(120)
000447 e0f0      	LDI  R31,HIGH(120)
                 _0x2FC:
000448 93e0 016c 	STS  _speed_ka,R30
00044a 93f0 016d 	STS  _speed_ka+1,R31
                 ; 0000 01D9     }
                 ; 0000 01DA       pwm_out();
00044c de76      	RCALL _pwm_out
                 ; 0000 01DB       //error=7;
                 ; 0000 01DC       for(;;){read_front_sensor();if(front_sensor==0b00000011||front_sensor==0b00000001||front_sensor==0b00000010)break;}
                 _0x132:
00044d ddd5      	RCALL _read_front_sensor
00044e 91a0 01f4 	LDS  R26,_front_sensor
000450 30a3      	CPI  R26,LOW(0x3)
000451 f021      	BREQ _0x135
000452 30a1      	CPI  R26,LOW(0x1)
000453 f011      	BREQ _0x135
000454 30a2      	CPI  R26,LOW(0x2)
000455 f409      	BRNE _0x134
                 _0x135:
000456 c001      	RJMP _0x133
                 _0x134:
000457 cff5      	RJMP _0x132
                 _0x133:
                 ; 0000 01DD 
                 ; 0000 01DE       for(;;){i_speed=-100;read_sensor();giving_weight10();giving_weight20();kp_div=kp_div+3;
                 _0x138:
000458 e9ec      	LDI  R30,LOW(65436)
000459 efff      	LDI  R31,HIGH(65436)
00045a 940e 0ea6 	CALL SUBOPT_0x1E
                 ; 0000 01DF       kp=speed/kp_div;kd=4*kp;komp_pid();pwm_out();if(-3<=error<=3){i_speed=130;speed=temp_speed; break;}}
00045c 940e 0eb6 	CALL SUBOPT_0x1F
00045e 940e 0ebd 	CALL SUBOPT_0x20
000460 940e 0ec1 	CALL SUBOPT_0x21
000462 f430      	BRSH _0x13A
000463 e8e2      	LDI  R30,LOW(130)
000464 e0f0      	LDI  R31,HIGH(130)
000465 012f      	MOVW R4,R30
000466 940e 0ec8 	CALL SUBOPT_0x22
000468 c001      	RJMP _0x139
                 _0x13A:
000469 cfee      	RJMP _0x138
                 _0x139:
                 ; 0000 01E0     }
                 ; 0000 01E1     else if (per4an_dir[per4an]==1) //pilih kanan
00046a c04d      	RJMP _0x13B
                 _0x12E:
00046b 940e 0e92 	CALL SUBOPT_0x1B
00046d 30e1      	CPI  R30,LOW(0x1)
00046e f011      	BREQ PC+3
00046f 940c 04b4 	JMP _0x13C
                 ; 0000 01E2     {
                 ; 0000 01E3       berhasil=1;
000471 9468      	SET
000472 f827      	BLD  R2,7
                 ; 0000 01E4       error=-15;
000473 efe1      	LDI  R30,LOW(65521)
000474 efff      	LDI  R31,HIGH(65521)
000475 940e 0e99 	CALL SUBOPT_0x1C
                 ; 0000 01E5       speed_ki=-150;
                 ; 0000 01E6       speed_ka=-150;
                 ; 0000 01E7       pwm_out();
                 ; 0000 01E8       delay_ms(50);
000477 940e 0ecd 	CALL SUBOPT_0x23
                 ; 0000 01E9       speed_ki=120;
000479 e7e8      	LDI  R30,LOW(120)
00047a e0f0      	LDI  R31,HIGH(120)
00047b 940e 0dfe 	CALL SUBOPT_0xE
                 ; 0000 01EA       speed_ka=-200;
00047d e3e8      	LDI  R30,LOW(65336)
00047e efff      	LDI  R31,HIGH(65336)
00047f 940e 0df9 	CALL SUBOPT_0xD
                 ; 0000 01EB       pwm_out();
000481 de41      	RCALL _pwm_out
                 ; 0000 01EC       //error=-7;
                 ; 0000 01ED       for(;;){read_front_sensor();delay_ms(2);if(front_sensor==0b10000000||front_sensor==0b11000000||front_sensor==0b01000000)break;}
                 _0x13E:
000482 dda0      	RCALL _read_front_sensor
000483 e0e2      	LDI  R30,LOW(2)
000484 e0f0      	LDI  R31,HIGH(2)
000485 940e 0ea2 	CALL SUBOPT_0x1D
000487 91a0 01f4 	LDS  R26,_front_sensor
000489 38a0      	CPI  R26,LOW(0x80)
00048a f021      	BREQ _0x141
00048b 3ca0      	CPI  R26,LOW(0xC0)
00048c f011      	BREQ _0x141
00048d 34a0      	CPI  R26,LOW(0x40)
00048e f409      	BRNE _0x140
                 _0x141:
00048f c001      	RJMP _0x13F
                 _0x140:
000490 cff1      	RJMP _0x13E
                 _0x13F:
                 ; 0000 01EE       kp_div=kp_div+3;
000491 940e 0ed0 	CALL SUBOPT_0x24
000493 9633      	ADIW R30,3
000494 93e0 0173 	STS  _kp_div,R30
                 ; 0000 01EF       kp=speed/kp_div;
000496 940e 0ed0 	CALL SUBOPT_0x24
000498 01d3      	MOVW R26,R6
000499 940e 0e84 	CALL SUBOPT_0x19
                 ; 0000 01F0       kd=4*kp;
00049b 940e 0eb6 	CALL SUBOPT_0x1F
                 ; 0000 01F1       for(;;){i_speed=-120;read_sensor();giving_weight10();giving_weight20();kp_div=kp_div+3;
                 _0x144:
00049d e8e8      	LDI  R30,LOW(65416)
00049e efff      	LDI  R31,HIGH(65416)
00049f 940e 0ea6 	CALL SUBOPT_0x1E
                 ; 0000 01F2       kp=speed/kp_div;kd=4*kp;komp_pid();pwm_out();delay_ms(2);if(-3<=error<=3){i_speed=180;speed=temp_speed; break;}}
0004a1 940e 0eb6 	CALL SUBOPT_0x1F
0004a3 940e 0ebd 	CALL SUBOPT_0x20
0004a5 e0e2      	LDI  R30,LOW(2)
0004a6 e0f0      	LDI  R31,HIGH(2)
0004a7 940e 0ea2 	CALL SUBOPT_0x1D
0004a9 940e 0ec1 	CALL SUBOPT_0x21
0004ab f430      	BRSH _0x146
0004ac ebe4      	LDI  R30,LOW(180)
0004ad e0f0      	LDI  R31,HIGH(180)
0004ae 012f      	MOVW R4,R30
0004af 940e 0ec8 	CALL SUBOPT_0x22
0004b1 c001      	RJMP _0x145
                 _0x146:
0004b2 cfea      	RJMP _0x144
                 _0x145:
                 ; 0000 01F3     }
                 ; 0000 01F4     else delay_ms(30);
0004b3 c004      	RJMP _0x147
                 _0x13C:
0004b4 e1ee      	LDI  R30,LOW(30)
0004b5 e0f0      	LDI  R31,HIGH(30)
0004b6 940e 0ea2 	CALL SUBOPT_0x1D
                 ; 0000 01F5     if(per4an<5)speed=130;
                 _0x147:
                 _0x13B:
0004b8 91a0 01fc 	LDS  R26,_per4an
0004ba 30a5      	CPI  R26,LOW(0x5)
0004bb f420      	BRSH _0x148
0004bc e8e2      	LDI  R30,LOW(130)
0004bd e0f0      	LDI  R31,HIGH(130)
0004be 013f      	MOVW R6,R30
                 ; 0000 01F6     else speed=temp_speed;
0004bf c002      	RJMP _0x149
                 _0x148:
0004c0 940e 0ec8 	CALL SUBOPT_0x22
                 ; 0000 01F7 
                 ; 0000 01F8    flag_per4an=1; right_back=0;left_back=0;
                 _0x149:
0004c2 9468      	SET
0004c3 f830      	BLD  R3,0
0004c4 e0e0      	LDI  R30,LOW(0)
0004c5 93e0 01f9 	STS  _right_back,R30
0004c7 93e0 01fa 	STS  _left_back,R30
                 ; 0000 01F9    selesai:
                 _0x12D:
                 ; 0000 01FA    #asm("sei")
0004c9 9478      	sei
                 ; 0000 01FB }
0004ca 9508      	RET
                 ;
                 ;void line_following()
                 ; 0000 01FE {
                 _line_following:
                 ; 0000 01FF read_sensor();
0004cb dcb5      	RCALL _read_sensor
                 ; 0000 0200 lcd_clear();
0004cc 940e 0cec 	CALL _lcd_clear
                 ; 0000 0201 led=1;
0004ce 9aaf      	SBI  0x15,7
                 ; 0000 0202 backlight=0;
0004cf 98c3      	CBI  0x18,3
                 ; 0000 0203 if(time<=230)time++;
0004d0 91a0 0205 	LDS  R26,_time
0004d2 91b0 0206 	LDS  R27,_time+1
0004d4 3ea7      	CPI  R26,LOW(0xE7)
0004d5 e0e0      	LDI  R30,HIGH(0xE7)
0004d6 07be      	CPC  R27,R30
0004d7 f420      	BRSH _0x14E
0004d8 e0a5      	LDI  R26,LOW(_time)
0004d9 e0b2      	LDI  R27,HIGH(_time)
0004da 940e 0ed4 	CALL SUBOPT_0x25
                 ; 0000 0204 
                 ; 0000 0205 if(backlight_on>0){backlight_on--;backlight=1;}
                 _0x14E:
0004dc 91a0 01f7 	LDS  R26,_backlight_on
0004de 30a1      	CPI  R26,LOW(0x1)
0004df f038      	BRLO _0x14F
0004e0 91e0 01f7 	LDS  R30,_backlight_on
0004e2 50e1      	SUBI R30,LOW(1)
0004e3 93e0 01f7 	STS  _backlight_on,R30
0004e5 9ac3      	SBI  0x18,3
                 ; 0000 0206 else               backlight=0;
0004e6 c001      	RJMP _0x152
                 _0x14F:
0004e7 98c3      	CBI  0x18,3
                 ; 0000 0207 
                 ; 0000 0208 if(led_on>0){led_on--;led=0;}
                 _0x152:
0004e8 91a0 01f8 	LDS  R26,_led_on
0004ea 30a1      	CPI  R26,LOW(0x1)
0004eb f038      	BRLO _0x155
0004ec 91e0 01f8 	LDS  R30,_led_on
0004ee 50e1      	SUBI R30,LOW(1)
0004ef 93e0 01f8 	STS  _led_on,R30
0004f1 98af      	CBI  0x15,7
                 ; 0000 0209 else         led=1;
0004f2 c001      	RJMP _0x158
                 _0x155:
0004f3 9aaf      	SBI  0x15,7
                 ; 0000 020A 
                 ; 0000 020B if(i_speed<speed)   i_speed=i_speed+10;
                 _0x158:
                +
0004f4 1446     +CP R4 , R6
0004f5 0457     +CPC R5 , R7
                 	__CPWRR 4,5,6,7
0004f6 f424      	BRGE _0x15B
0004f7 01f2      	MOVW R30,R4
0004f8 963a      	ADIW R30,10
0004f9 012f      	MOVW R4,R30
                 ; 0000 020C else                i_speed=speed;
0004fa c001      	RJMP _0x15C
                 _0x15B:
0004fb 0123      	MOVW R4,R6
                 ; 0000 020D kp=i_speed/kp_div;
                 _0x15C:
0004fc 940e 0ed0 	CALL SUBOPT_0x24
0004fe 01d2      	MOVW R26,R4
0004ff 940e 0e84 	CALL SUBOPT_0x19
                 ; 0000 020E //kp=kp+0.15* abs(d_error)* abs(d_d_error);
                 ; 0000 020F //if(kp>=30)kp=30;
                 ; 0000 0210 //kd=60-(1.5*kp);
                 ; 0000 0211 kd=3*kp;
000501 e0a3      	LDI  R26,LOW(3)
000502 e0b0      	LDI  R27,HIGH(3)
000503 940e 0e8b 	CALL SUBOPT_0x1A
                 ; 0000 0212 //if(time<240)kp=speed/30;
                 ; 0000 0213 
                 ; 0000 0214 
                 ; 0000 0215 
                 ; 0000 0216 giving_weight10();
000505 de96      	RCALL _giving_weight10
                 ; 0000 0217 giving_weight20();
000506 ded6      	RCALL _giving_weight20
                 ; 0000 0218 
                 ; 0000 0219 
                 ; 0000 021A komp_pid();
000507 940e 0ebd 	CALL SUBOPT_0x20
                 ; 0000 021B 
                 ; 0000 021C 
                 ; 0000 021D //-----------------kondisi khusus menggunakan sensor belakang-----------------//
                 ; 0000 021E 
                 ; 0000 021F pwm_out();
                 ; 0000 0220 }
000509 9508      	RET
                 ;
                 ;
                 ;
                 ;
                 ;
                 ;//--------------------------------------------------------------------------------//
                 ;
                 ;void action()
                 ; 0000 0229 {
                 _action:
                 ; 0000 022A j=0;
00050a e0e0      	LDI  R30,LOW(0)
00050b 93e0 01f2 	STS  _j,R30
                 ; 0000 022B init_time_on();
00050d dc30      	RCALL _init_time_on
                 ; 0000 022C // if(strategi==3)
                 ; 0000 022D // {
                 ; 0000 022E // intrpt_on();
                 ; 0000 022F // step=90;
                 ; 0000 0230 // }
                 ; 0000 0231 if(strategi==4)
00050e 91a0 0175 	LDS  R26,_strategi
000510 30a4      	CPI  R26,LOW(0x4)
000511 f419      	BRNE _0x15D
                 ; 0000 0232 {
                 ; 0000 0233    per4an=2;
000512 e0e2      	LDI  R30,LOW(2)
000513 93e0 01fc 	STS  _per4an,R30
                 ; 0000 0234 }
                 ; 0000 0235 for(;;)
                 _0x15D:
                 _0x15F:
                 ; 0000 0236     {
                 ; 0000 0237     line_following();
000515 dfb5      	RCALL _line_following
                 ; 0000 0238         //if(enter==0){lcd_clear();init_time_off();break;}
                 ; 0000 0239     if(back==0) {lcd_clear();intrpt_off();init_time_off();break;}
000516 9987      	SBIC 0x10,7
000517 c005      	RJMP _0x161
000518 940e 0cec 	CALL _lcd_clear
00051a dc50      	RCALL _intrpt_off
00051b dc2c      	RCALL _init_time_off
00051c c001      	RJMP _0x160
                 ; 0000 023A     //delay_ms(2);
                 ; 0000 023B     }
                 _0x161:
00051d cff7      	RJMP _0x15F
                 _0x160:
                 ; 0000 023C pwm_off();
00051e dc36      	RCALL _pwm_off
                 ; 0000 023D intrpt_off();
00051f dc4b      	RCALL _intrpt_off
                 ; 0000 023E backlight=0;
000520 98c3      	CBI  0x18,3
                 ; 0000 023F 
                 ; 0000 0240 
                 ; 0000 0241 
                 ; 0000 0242 led=1;
000521 9aaf      	SBI  0x15,7
                 ; 0000 0243 backlight=0;
000522 98c3      	CBI  0x18,3
                 ; 0000 0244 delay_ms(250);
000523 c155      	RJMP _0x20C0003
                 ; 0000 0245 }
                 ;
                 ;void tampil_auto_set()
                 ; 0000 0248 {
                 _tampil_auto_set:
                 ; 0000 0249 lcd_gotoxy(0,0);
000524 940e 0eda 	CALL SUBOPT_0x26
                 ; 0000 024A sprintf(lcd,"%d %d %d %d ",adc_tres1[0],adc_tres1[1],adc_tres1[2],adc_tres1[3]);
                +
000526 e6ed     +LDI R30 , LOW ( 2 * _0x0 + 3 )
000527 e0f0     +LDI R31 , HIGH ( 2 * _0x0 + 3 )
                 	__POINTW1FN _0x0,3
000528 93fa      	ST   -Y,R31
000529 93ea      	ST   -Y,R30
00052a 91e0 0187 	LDS  R30,_adc_tres1
00052c 940e 0e5f 	CALL SUBOPT_0x16
                +
00052e 91e0 0188+LDS R30 , _adc_tres1 + 1
                 	__GETB1MN _adc_tres1,1
000530 940e 0e5f 	CALL SUBOPT_0x16
                +
000532 91e0 0189+LDS R30 , _adc_tres1 + 2
                 	__GETB1MN _adc_tres1,2
000534 940e 0e5f 	CALL SUBOPT_0x16
                +
000536 91e0 018a+LDS R30 , _adc_tres1 + 3
                 	__GETB1MN _adc_tres1,3
000538 940e 0e5f 	CALL SUBOPT_0x16
00053a 940e 0ee4 	CALL SUBOPT_0x27
                 ; 0000 024B lcd_puts(lcd);
                 ; 0000 024C 
                 ; 0000 024D lcd_gotoxy(0,1);
00053c 940e 0eee 	CALL SUBOPT_0x28
                 ; 0000 024E sprintf(lcd,"%d %d %d %d",adc_tres1[4],adc_tres1[5],adc_tres1[6],adc_tres1[7]);
                +
00053e e7ea     +LDI R30 , LOW ( 2 * _0x0 + 16 )
00053f e0f0     +LDI R31 , HIGH ( 2 * _0x0 + 16 )
                 	__POINTW1FN _0x0,16
000540 93fa      	ST   -Y,R31
000541 93ea      	ST   -Y,R30
                +
000542 91e0 018b+LDS R30 , _adc_tres1 + 4
                 	__GETB1MN _adc_tres1,4
000544 940e 0e5f 	CALL SUBOPT_0x16
                +
000546 91e0 018c+LDS R30 , _adc_tres1 + 5
                 	__GETB1MN _adc_tres1,5
000548 940e 0e5f 	CALL SUBOPT_0x16
                +
00054a 91e0 018d+LDS R30 , _adc_tres1 + 6
                 	__GETB1MN _adc_tres1,6
00054c 940e 0e5f 	CALL SUBOPT_0x16
                +
00054e 91e0 018e+LDS R30 , _adc_tres1 + 7
                 	__GETB1MN _adc_tres1,7
000550 940e 0e5f 	CALL SUBOPT_0x16
000552 940e 0ee4 	CALL SUBOPT_0x27
                 ; 0000 024F lcd_puts(lcd);
                 ; 0000 0250 
                 ; 0000 0251 
                 ; 0000 0252 for(;;)
                 _0x169:
                 ; 0000 0253     {
                 ; 0000 0254     lcd_clear();
000554 940e 0cec 	CALL _lcd_clear
                 ; 0000 0255     for(i=0;i<8;i++)
000556 e0e0      	LDI  R30,LOW(0)
000557 93e0 01f1 	STS  _i,R30
                 _0x16C:
000559 91a0 01f1 	LDS  R26,_i
00055b 30a8      	CPI  R26,LOW(0x8)
00055c f010      	BRLO PC+3
00055d 940c 05a8 	JMP _0x16D
                 ; 0000 0256         {
                 ; 0000 0257         if     (i==0){PORTC.6=0;PORTC.5=0;PORTC.4=0;}
00055f 91e0 01f1 	LDS  R30,_i
000561 30e0      	CPI  R30,0
000562 f421      	BRNE _0x16E
000563 98ae      	CBI  0x15,6
000564 98ad      	CBI  0x15,5
000565 98ac      	CBI  0x15,4
                 ; 0000 0258         else if(i==1){PORTC.6=0;PORTC.5=0;PORTC.4=1;}
000566 c033      	RJMP _0x175
                 _0x16E:
000567 91a0 01f1 	LDS  R26,_i
000569 30a1      	CPI  R26,LOW(0x1)
00056a f419      	BRNE _0x176
00056b 98ae      	CBI  0x15,6
00056c 98ad      	CBI  0x15,5
00056d c02b      	RJMP _0x2FD
                 ; 0000 0259         else if(i==2){PORTC.6=0;PORTC.5=1;PORTC.4=0;}
                 _0x176:
00056e 91a0 01f1 	LDS  R26,_i
000570 30a2      	CPI  R26,LOW(0x2)
000571 f421      	BRNE _0x17E
000572 98ae      	CBI  0x15,6
000573 9aad      	SBI  0x15,5
000574 98ac      	CBI  0x15,4
                 ; 0000 025A         else if(i==3){PORTC.6=0;PORTC.5=1;PORTC.4=1;}
000575 c024      	RJMP _0x185
                 _0x17E:
000576 91a0 01f1 	LDS  R26,_i
000578 30a3      	CPI  R26,LOW(0x3)
000579 f411      	BRNE _0x186
00057a 98ae      	CBI  0x15,6
00057b c01c      	RJMP _0x2FE
                 ; 0000 025B         else if(i==4){PORTC.6=1;PORTC.5=0;PORTC.4=0;}
                 _0x186:
00057c 91a0 01f1 	LDS  R26,_i
00057e 30a4      	CPI  R26,LOW(0x4)
00057f f421      	BRNE _0x18E
000580 9aae      	SBI  0x15,6
000581 98ad      	CBI  0x15,5
000582 98ac      	CBI  0x15,4
                 ; 0000 025C         else if(i==5){PORTC.6=1;PORTC.5=0;PORTC.4=1;}
000583 c016      	RJMP _0x195
                 _0x18E:
000584 91a0 01f1 	LDS  R26,_i
000586 30a5      	CPI  R26,LOW(0x5)
000587 f419      	BRNE _0x196
000588 9aae      	SBI  0x15,6
000589 98ad      	CBI  0x15,5
00058a c00e      	RJMP _0x2FD
                 ; 0000 025D         else if(i==6){PORTC.6=1;PORTC.5=1;PORTC.4=0;}
                 _0x196:
00058b 91a0 01f1 	LDS  R26,_i
00058d 30a6      	CPI  R26,LOW(0x6)
00058e f421      	BRNE _0x19E
00058f 9aae      	SBI  0x15,6
000590 9aad      	SBI  0x15,5
000591 98ac      	CBI  0x15,4
                 ; 0000 025E         else if(i==7){PORTC.6=1;PORTC.5=1;PORTC.4=1;}
000592 c007      	RJMP _0x1A5
                 _0x19E:
000593 91a0 01f1 	LDS  R26,_i
000595 30a7      	CPI  R26,LOW(0x7)
000596 f419      	BRNE _0x1A6
000597 9aae      	SBI  0x15,6
                 _0x2FE:
000598 9aad      	SBI  0x15,5
                 _0x2FD:
000599 9aac      	SBI  0x15,4
                 ; 0000 025F         adc_result1[i]=read_adc(7);//depan
                 _0x1A6:
                 _0x1A5:
                 _0x195:
                 _0x185:
                 _0x175:
00059a 940e 0dc3 	CALL SUBOPT_0x5
00059c 58e9      	SUBI R30,LOW(-_adc_result1)
00059d 4ffe      	SBCI R31,HIGH(-_adc_result1)
00059e 93ff      	PUSH R31
00059f 93ef      	PUSH R30
0005a0 940e 0dc7 	CALL SUBOPT_0x6
0005a2 91af      	POP  R26
0005a3 91bf      	POP  R27
0005a4 93ec      	ST   X,R30
                 ; 0000 0260         //adc_result2[i]=read_adc(6);//belakang
                 ; 0000 0261         }
0005a5 940e 0dcb 	CALL SUBOPT_0x7
0005a7 cfb1      	RJMP _0x16C
                 _0x16D:
                 ; 0000 0262 
                 ; 0000 0263     for(i=0;i<8;i++)
0005a8 e0e0      	LDI  R30,LOW(0)
0005a9 93e0 01f1 	STS  _i,R30
                 _0x1AE:
0005ab 91a0 01f1 	LDS  R26,_i
0005ad 30a8      	CPI  R26,LOW(0x8)
0005ae f010      	BRLO PC+3
0005af 940c 0635 	JMP _0x1AF
                 ; 0000 0264         {
                 ; 0000 0265         if(adc_result1[i]>max_adc1[i])max_adc1[i]=adc_result1[i];
0005b1 940e 0dc3 	CALL SUBOPT_0x5
0005b3 940e 0ef9 	CALL SUBOPT_0x29
0005b5 17ea      	CP   R30,R26
0005b6 f450      	BRSH _0x1B0
0005b7 940e 0f03 	CALL SUBOPT_0x2A
0005b9 55a8      	SUBI R26,LOW(-_max_adc1)
0005ba 4fbe      	SBCI R27,HIGH(-_max_adc1)
0005bb 940e 0dc3 	CALL SUBOPT_0x5
0005bd 58e9      	SUBI R30,LOW(-_adc_result1)
0005be 4ffe      	SBCI R31,HIGH(-_adc_result1)
0005bf 81e0      	LD   R30,Z
0005c0 93ec      	ST   X,R30
                 ; 0000 0266         if(adc_result1[i]<max_adc1[i])min_adc1[i]=adc_result1[i];
                 _0x1B0:
0005c1 940e 0dc3 	CALL SUBOPT_0x5
0005c3 940e 0ef9 	CALL SUBOPT_0x29
0005c5 17ae      	CP   R26,R30
0005c6 f450      	BRSH _0x1B1
0005c7 940e 0f03 	CALL SUBOPT_0x2A
0005c9 54a8      	SUBI R26,LOW(-_min_adc1)
0005ca 4fbe      	SBCI R27,HIGH(-_min_adc1)
0005cb 940e 0dc3 	CALL SUBOPT_0x5
0005cd 58e9      	SUBI R30,LOW(-_adc_result1)
0005ce 4ffe      	SBCI R31,HIGH(-_adc_result1)
0005cf 81e0      	LD   R30,Z
0005d0 93ec      	ST   X,R30
                 ; 0000 0267         //adc_tres1[i]=min_adc1[i]+((max_adc1[i]-min_adc1[i])/10);
                 ; 0000 0268         adc_tres1[i]=min_adc1[i]+40;
                 _0x1B1:
0005d1 940e 0f03 	CALL SUBOPT_0x2A
0005d3 57a9      	SUBI R26,LOW(-_adc_tres1)
0005d4 4fbe      	SBCI R27,HIGH(-_adc_tres1)
0005d5 940e 0dc3 	CALL SUBOPT_0x5
0005d7 54e8      	SUBI R30,LOW(-_min_adc1)
0005d8 4ffe      	SBCI R31,HIGH(-_min_adc1)
0005d9 81e0      	LD   R30,Z
0005da e0f0      	LDI  R31,0
0005db 96b8      	ADIW R30,40
0005dc 93ec      	ST   X,R30
                 ; 0000 0269         //adc_tres1[i]=0.6*max_adc1[i];
                 ; 0000 026A 
                 ; 0000 026B         delay_us(50);
                +
0005dd e885     +LDI R24 , LOW ( 133 )
                +__DELAY_USB_LOOP :
0005de 958a     +DEC R24
0005df f7f1     +BRNE __DELAY_USB_LOOP
                 	__DELAY_USB 133
                 ; 0000 026C         lcd_gotoxy(0,0);
0005e0 940e 0eda 	CALL SUBOPT_0x26
                 ; 0000 026D         sprintf(lcd,"%d",adc_result1[0]);
                +
0005e2 e6ea     +LDI R30 , LOW ( 2 * _0x0 + 0 )
0005e3 e0f0     +LDI R31 , HIGH ( 2 * _0x0 + 0 )
                 	__POINTW1FN _0x0,0
0005e4 93fa      	ST   -Y,R31
0005e5 93ea      	ST   -Y,R30
0005e6 91e0 0177 	LDS  R30,_adc_result1
0005e8 940e 0e5f 	CALL SUBOPT_0x16
0005ea 940e 0e65 	CALL SUBOPT_0x17
                 ; 0000 026E         lcd_puts(lcd);
                 ; 0000 026F 
                 ; 0000 0270         lcd_gotoxy(4,0);
0005ec e0e4      	LDI  R30,LOW(4)
0005ed 93ea      	ST   -Y,R30
0005ee 940e 0e18 	CALL SUBOPT_0x11
                 ; 0000 0271         sprintf(lcd,"%d",adc_result1[1]);
                +
0005f0 91e0 0178+LDS R30 , _adc_result1 + 1
                 	__GETB1MN _adc_result1,1
0005f2 940e 0e5f 	CALL SUBOPT_0x16
0005f4 940e 0e65 	CALL SUBOPT_0x17
                 ; 0000 0272         lcd_puts(lcd);
                 ; 0000 0273 
                 ; 0000 0274         lcd_gotoxy(8,0);
0005f6 e0e8      	LDI  R30,LOW(8)
0005f7 93ea      	ST   -Y,R30
0005f8 940e 0e18 	CALL SUBOPT_0x11
                 ; 0000 0275         sprintf(lcd,"%d",adc_result1[2]);
                +
0005fa 91e0 0179+LDS R30 , _adc_result1 + 2
                 	__GETB1MN _adc_result1,2
0005fc 940e 0e5f 	CALL SUBOPT_0x16
0005fe 940e 0e65 	CALL SUBOPT_0x17
                 ; 0000 0276         lcd_puts(lcd);
                 ; 0000 0277 
                 ; 0000 0278         lcd_gotoxy(12,0);
000600 e0ec      	LDI  R30,LOW(12)
000601 93ea      	ST   -Y,R30
000602 940e 0e18 	CALL SUBOPT_0x11
                 ; 0000 0279         sprintf(lcd,"%d",adc_result1[3]);
                +
000604 91e0 017a+LDS R30 , _adc_result1 + 3
                 	__GETB1MN _adc_result1,3
000606 940e 0e5f 	CALL SUBOPT_0x16
000608 940e 0e65 	CALL SUBOPT_0x17
                 ; 0000 027A         lcd_puts(lcd);
                 ; 0000 027B 
                 ; 0000 027C         lcd_gotoxy(0,1);
00060a e0e0      	LDI  R30,LOW(0)
00060b 93ea      	ST   -Y,R30
00060c 940e 0e36 	CALL SUBOPT_0x13
                 ; 0000 027D         sprintf(lcd,"%d",adc_result1[4]);
                +
00060e 91e0 017b+LDS R30 , _adc_result1 + 4
                 	__GETB1MN _adc_result1,4
000610 940e 0e5f 	CALL SUBOPT_0x16
000612 940e 0e65 	CALL SUBOPT_0x17
                 ; 0000 027E         lcd_puts(lcd);
                 ; 0000 027F 
                 ; 0000 0280         lcd_gotoxy(4,1);
000614 e0e4      	LDI  R30,LOW(4)
000615 93ea      	ST   -Y,R30
000616 940e 0e36 	CALL SUBOPT_0x13
                 ; 0000 0281         sprintf(lcd,"%d",adc_result1[5]);
                +
000618 91e0 017c+LDS R30 , _adc_result1 + 5
                 	__GETB1MN _adc_result1,5
00061a 940e 0e5f 	CALL SUBOPT_0x16
00061c 940e 0e65 	CALL SUBOPT_0x17
                 ; 0000 0282         lcd_puts(lcd);
                 ; 0000 0283 
                 ; 0000 0284         lcd_gotoxy(8,1);
00061e e0e8      	LDI  R30,LOW(8)
00061f 93ea      	ST   -Y,R30
000620 940e 0e36 	CALL SUBOPT_0x13
                 ; 0000 0285         sprintf(lcd,"%d",adc_result1[6]);
                +
000622 91e0 017d+LDS R30 , _adc_result1 + 6
                 	__GETB1MN _adc_result1,6
000624 940e 0e5f 	CALL SUBOPT_0x16
000626 940e 0e65 	CALL SUBOPT_0x17
                 ; 0000 0286         lcd_puts(lcd);
                 ; 0000 0287 
                 ; 0000 0288         lcd_gotoxy(12,1);
000628 e0ec      	LDI  R30,LOW(12)
000629 93ea      	ST   -Y,R30
00062a 940e 0e36 	CALL SUBOPT_0x13
                 ; 0000 0289         sprintf(lcd,"%d",adc_result1[7]);
                +
00062c 91e0 017e+LDS R30 , _adc_result1 + 7
                 	__GETB1MN _adc_result1,7
00062e 940e 0e5f 	CALL SUBOPT_0x16
000630 940e 0e65 	CALL SUBOPT_0x17
                 ; 0000 028A         lcd_puts(lcd);
                 ; 0000 028B         }
000632 940e 0dcb 	CALL SUBOPT_0x7
000634 cf76      	RJMP _0x1AE
                 _0x1AF:
                 ; 0000 028C 
                 ; 0000 028D 
                 ; 0000 028E     delay_us(600);
                +
000635 eb80     +LDI R24 , LOW ( 1200 )
000636 e094     +LDI R25 , HIGH ( 1200 )
                +__DELAY_USW_LOOP :
000637 9701     +SBIW R24 , 1
000638 f7f1     +BRNE __DELAY_USW_LOOP
                 	__DELAY_USW 1200
                 ; 0000 028F     if(enter==0)
000639 9998      	SBIC 0x13,0
00063a c021      	RJMP _0x1B2
                 ; 0000 0290         {
                 ; 0000 0291         for(i=0;i<8;i++)
00063b e0e0      	LDI  R30,LOW(0)
00063c 93e0 01f1 	STS  _i,R30
                 _0x1B4:
00063e 91a0 01f1 	LDS  R26,_i
000640 30a8      	CPI  R26,LOW(0x8)
000641 f4c8      	BRSH _0x1B5
                 ; 0000 0292             {
                 ; 0000 0293             e_adc_tres1[i]=adc_tres1[i];
000642 940e 0f03 	CALL SUBOPT_0x2A
000644 5faa      	SUBI R26,LOW(-_e_adc_tres1)
000645 4fbf      	SBCI R27,HIGH(-_e_adc_tres1)
000646 940e 0dc3 	CALL SUBOPT_0x5
000648 57e9      	SUBI R30,LOW(-_adc_tres1)
000649 4ffe      	SBCI R31,HIGH(-_adc_tres1)
00064a 81e0      	LD   R30,Z
00064b 940e 1064 	CALL __EEPROMWRB
                 ; 0000 0294             e_adc_tres2[i]=adc_tres2[i];
00064d 940e 0f03 	CALL SUBOPT_0x2A
00064f 5fa2      	SUBI R26,LOW(-_e_adc_tres2)
000650 4fbf      	SBCI R27,HIGH(-_e_adc_tres2)
000651 940e 0dc3 	CALL SUBOPT_0x5
000653 57e1      	SUBI R30,LOW(-_adc_tres2)
000654 4ffe      	SBCI R31,HIGH(-_adc_tres2)
000655 81e0      	LD   R30,Z
000656 940e 1064 	CALL __EEPROMWRB
                 ; 0000 0295             }
000658 940e 0dcb 	CALL SUBOPT_0x7
00065a cfe3      	RJMP _0x1B4
                 _0x1B5:
                 ; 0000 0296         break;
00065b c003      	RJMP _0x16A
                 ; 0000 0297         }
                 ; 0000 0298     if(back==0)break;
                 _0x1B2:
00065c 9b87      	SBIS 0x10,7
00065d c001      	RJMP _0x16A
                 ; 0000 0299     }
00065e cef5      	RJMP _0x169
                 _0x16A:
                 ; 0000 029A selesai:
                 ; 0000 029B for(i=0;i<8;i++){adc_tres1[i]=e_adc_tres1[i];adc_tres2[i]=e_adc_tres2[i];}
00065f e0e0      	LDI  R30,LOW(0)
000660 93e0 01f1 	STS  _i,R30
                 _0x1B9:
000662 91a0 01f1 	LDS  R26,_i
000664 30a8      	CPI  R26,LOW(0x8)
000665 f498      	BRSH _0x1BA
000666 940e 0dc3 	CALL SUBOPT_0x5
000668 57e9      	SUBI R30,LOW(-_adc_tres1)
000669 4ffe      	SBCI R31,HIGH(-_adc_tres1)
00066a 010f      	MOVW R0,R30
00066b 940e 0f03 	CALL SUBOPT_0x2A
00066d 940e 0f07 	CALL SUBOPT_0x2B
00066f 57e1      	SUBI R30,LOW(-_adc_tres2)
000670 4ffe      	SBCI R31,HIGH(-_adc_tres2)
000671 010f      	MOVW R0,R30
000672 940e 0f03 	CALL SUBOPT_0x2A
000674 940e 0f0e 	CALL SUBOPT_0x2C
000676 940e 0dcb 	CALL SUBOPT_0x7
000678 cfe9      	RJMP _0x1B9
                 _0x1BA:
                 ; 0000 029C delay_ms(250);
                 _0x20C0003:
000679 efea      	LDI  R30,LOW(250)
00067a e0f0      	LDI  R31,HIGH(250)
00067b 940e 0ea2 	CALL SUBOPT_0x1D
                 ; 0000 029D }
00067d 9508      	RET
                 ;
                 ;void tampil_speed()
                 ; 0000 02A0 {
                 _tampil_speed:
                 ; 0000 02A1 lcd_gotoxy(0,1);
00067e 940e 0eee 	CALL SUBOPT_0x28
                 ; 0000 02A2 sprintf(lcd,"=%d",speed);
                +
000680 e8e6     +LDI R30 , LOW ( 2 * _0x0 + 28 )
000681 e0f0     +LDI R31 , HIGH ( 2 * _0x0 + 28 )
                 	__POINTW1FN _0x0,28
000682 93fa      	ST   -Y,R31
000683 93ea      	ST   -Y,R30
000684 01f3      	MOVW R30,R6
000685 940e 0e43 	CALL SUBOPT_0x14
                 ; 0000 02A3 lcd_puts(lcd);
                 ; 0000 02A4 for(;;)
                 _0x1BC:
                 ; 0000 02A5     {
                 ; 0000 02A6     adc_menu=read_adc(0);
000687 940e 0f15 	CALL SUBOPT_0x2D
                 ; 0000 02A7     adc_menu=255-adc_menu;
                 ; 0000 02A8 
                 ; 0000 02A9     lcd_gotoxy(8,1);
                 ; 0000 02AA     lcd_putsf("   ");
                 ; 0000 02AB     lcd_gotoxy(5,1);
                 ; 0000 02AC     sprintf(lcd," <- %d",adc_menu);
000689 940e 0e5f 	CALL SUBOPT_0x16
00068b 940e 0e65 	CALL SUBOPT_0x17
                 ; 0000 02AD     lcd_puts(lcd);
                 ; 0000 02AE 
                 ; 0000 02AF     if(enter==0){e_speed=adc_menu;speed=adc_menu;temp_speed=speed;delay_ms(400);break;}
00068d 9998      	SBIC 0x13,0
00068e c011      	RJMP _0x1BE
00068f 91e0 0197 	LDS  R30,_adc_menu
000691 e0a0      	LDI  R26,LOW(_e_speed)
000692 e0b0      	LDI  R27,HIGH(_e_speed)
000693 e0f0      	LDI  R31,0
000694 940e 105c 	CALL __EEPROMWRW
000696 9060 0197 	LDS  R6,_adc_menu
000698 2477      	CLR  R7
                +
000699 9260 0170+STS _temp_speed + 0 , R6
00069b 9270 0171+STS _temp_speed + 0 + 1 , R7
                 	__PUTWMRN _temp_speed,0,6,7
00069d 940e 0f40 	CALL SUBOPT_0x2E
00069f c008      	RJMP _0x1BD
                 ; 0000 02B0     if(back==0){delay_ms(400);break;}
                 _0x1BE:
0006a0 9987      	SBIC 0x10,7
0006a1 c003      	RJMP _0x1BF
0006a2 940e 0f40 	CALL SUBOPT_0x2E
0006a4 c003      	RJMP _0x1BD
                 ; 0000 02B1     delay_ms(50);
                 _0x1BF:
0006a5 940e 0ecd 	CALL SUBOPT_0x23
                 ; 0000 02B2     }
0006a7 cfdf      	RJMP _0x1BC
                 _0x1BD:
                 ; 0000 02B3 }
0006a8 9508      	RET
                 ;
                 ;
                 ;// void detect_per4an()
                 ;// {
                 ;//
                 ;// for(;;)
                 ;//     {
                 ;//     adc_menu=read_adc(0);
                 ;//     adc_menu=255-adc_menu;
                 ;//
                 ;//     if  (adc_menu<=50)per3an_enable=0;
                 ;//     else per3an_enable=1;
                 ;//
                 ;//     lcd_gotoxy(0,1);
                 ;//     if     (e_per4an_enable==0)lcd_putsf("disable");
                 ;//     else if(e_per4an_enable==1)lcd_putsf("enable");
                 ;//
                 ;//     lcd_gotoxy(7,1);
                 ;//     lcd_putsf("<-");
                 ;//     if     (per4an_enable==0)lcd_putsf("disable");
                 ;//     else if(per4an_enable==1)lcd_putsf("enable");
                 ;//
                 ;//
                 ;//     if(enter==0){e_per3an_enable=per3an_enable;per3an_enable=per3an_enable;delay_ms(400);break;}
                 ;//     if(back==0){delay_ms(400);break;}
                 ;//     delay_ms(50);
                 ;//     }
                 ;// }
                 ;
                 ;void eksekusi_per4an()
                 ; 0000 02D2 {
                 ; 0000 02D3 
                 ; 0000 02D4 awal:
                 ; 0000 02D5 adc_menu=read_adc(0);
                 ; 0000 02D6 lcd_gotoxy(0,0);
                 ; 0000 02D7 if(adc_menu<30)
                 ; 0000 02D8     {
                 ; 0000 02D9     lcd_putsf("1. Arah Per4an 1");
                 ; 0000 02DA     set_per4an=1;
                 ; 0000 02DB     }
                 ; 0000 02DC else if(adc_menu<60)
                 ; 0000 02DD     {
                 ; 0000 02DE     lcd_putsf("2. Arah Per4an 2");
                 ; 0000 02DF     set_per4an=2;
                 ; 0000 02E0     }
                 ; 0000 02E1 else if(adc_menu<90)
                 ; 0000 02E2     {
                 ; 0000 02E3     lcd_putsf("3. Arah Per4an 3");
                 ; 0000 02E4     set_per4an=3;
                 ; 0000 02E5     }
                 ; 0000 02E6 else if(adc_menu<120)
                 ; 0000 02E7     {
                 ; 0000 02E8     lcd_putsf("4. Arah Per4an 4");
                 ; 0000 02E9     set_per4an=4;
                 ; 0000 02EA     }
                 ; 0000 02EB else if(adc_menu<150)
                 ; 0000 02EC     {
                 ; 0000 02ED     lcd_putsf("5. Arah Per4an 5");
                 ; 0000 02EE     set_per4an=5;
                 ; 0000 02EF     }
                 ; 0000 02F0 
                 ; 0000 02F1 if(enter==0) {delay_ms(400);goto edit_per4an;}
                 ; 0000 02F2 if(back==0) {delay_ms(400);goto selesai;}
                 ; 0000 02F3 goto awal;
                 ; 0000 02F4 
                 ; 0000 02F5 edit_per4an:
                 ; 0000 02F6 if(set_per4an==1) goto per4an_1;
                 ; 0000 02F7 else if(set_per4an==2) goto per4an_2;
                 ; 0000 02F8 else if(set_per4an==3) goto per4an_3;
                 ; 0000 02F9 else if(set_per4an==4) goto per4an_4;
                 ; 0000 02FA else if(set_per4an==5) goto per4an_5;
                 ; 0000 02FB 
                 ; 0000 02FC per4an_1:
                 ; 0000 02FD for(;;)
                 ; 0000 02FE     {
                 ; 0000 02FF     adc_menu=read_adc(0);
                 ; 0000 0300     if         (adc_menu<=60)    per4an_dir[1]=0;
                 ; 0000 0301     else if  (adc_menu<=120)  per4an_dir[1]=1;
                 ; 0000 0302     else                               per4an_dir[1]=2;
                 ; 0000 0303 
                 ; 0000 0304     lcd_gotoxy(0,1);
                 ; 0000 0305     if     (e_per4an_dir[1]==0)lcd_putsf("left");
                 ; 0000 0306     else if(e_per4an_dir[1]==1)lcd_putsf("right");
                 ; 0000 0307     else if(e_per4an_dir[1]==2)lcd_putsf("lurus");
                 ; 0000 0308 
                 ; 0000 0309     lcd_gotoxy(7,1);
                 ; 0000 030A     lcd_putsf("<-");
                 ; 0000 030B     if        (per4an_dir[1]==0)lcd_putsf("left");
                 ; 0000 030C     else if (per4an_dir[1]==1)lcd_putsf("right");
                 ; 0000 030D     else if (per4an_dir[1]==2)lcd_putsf("lurus");
                 ; 0000 030E 
                 ; 0000 030F     if(enter==0){e_per4an_dir[1]=per4an_dir[1];per4an_dir[1]=per4an_dir[1];delay_ms(400);lcd_clear();goto awal;}
                 ; 0000 0310     if(back==0){delay_ms(400);lcd_clear();goto awal;}
                 ; 0000 0311     delay_ms(50);
                 ; 0000 0312     }
                 ; 0000 0313 
                 ; 0000 0314     per4an_2:
                 ; 0000 0315     for(;;)
                 ; 0000 0316     {
                 ; 0000 0317     adc_menu=read_adc(0);
                 ; 0000 0318     if         (adc_menu<=60)    per4an_dir[2]=0;
                 ; 0000 0319     else if  (adc_menu<=120)  per4an_dir[2]=1;
                 ; 0000 031A     else                               per4an_dir[2]=2;
                 ; 0000 031B 
                 ; 0000 031C     lcd_gotoxy(0,1);
                 ; 0000 031D     if     (e_per4an_dir[2]==0)lcd_putsf("left");
                 ; 0000 031E     else if(e_per4an_dir[2]==1)lcd_putsf("right");
                 ; 0000 031F     else if(e_per4an_dir[2]==2)lcd_putsf("lurus");
                 ; 0000 0320 
                 ; 0000 0321     lcd_gotoxy(7,1);
                 ; 0000 0322     lcd_putsf("<-");
                 ; 0000 0323     if     (per4an_dir[2]==0)lcd_putsf("left");
                 ; 0000 0324     else if(per4an_dir[2]==1)lcd_putsf("right");
                 ; 0000 0325     else if(per4an_dir[2]==2)lcd_putsf("lurus");
                 ; 0000 0326     if(enter==0){e_per4an_dir[2]=per4an_dir[2];per4an_dir[2]=per4an_dir[2];delay_ms(400);lcd_clear();goto awal;}
                 ; 0000 0327     if(back==0){delay_ms(400);lcd_clear();goto awal;}
                 ; 0000 0328     delay_ms(50);
                 ; 0000 0329     }
                 ; 0000 032A 
                 ; 0000 032B     per4an_3:
                 ; 0000 032C     for(;;)
                 ; 0000 032D     {
                 ; 0000 032E     adc_menu=read_adc(0);
                 ; 0000 032F 
                 ; 0000 0330     if        (adc_menu<=50)   per4an_dir[3]=0;
                 ; 0000 0331     else if (adc_menu<=120) per4an_dir[3]=1;
                 ; 0000 0332     else                             per4an_dir[3]=2;
                 ; 0000 0333 
                 ; 0000 0334     lcd_gotoxy(0,1);
                 ; 0000 0335     if     (e_per4an_dir[3]==0)lcd_putsf("left");
                 ; 0000 0336     else if(e_per4an_dir[3]==1)lcd_putsf("right");
                 ; 0000 0337     else if(e_per4an_dir[3]==2)lcd_putsf("lurus");
                 ; 0000 0338 
                 ; 0000 0339     lcd_gotoxy(7,1);
                 ; 0000 033A     lcd_putsf("<-");
                 ; 0000 033B     if     (per4an_dir[3]==0)lcd_putsf("left");
                 ; 0000 033C     else if(per4an_dir[3]==1)lcd_putsf("right");
                 ; 0000 033D     else if(per4an_dir[3]==2)lcd_putsf("lurus");
                 ; 0000 033E 
                 ; 0000 033F     if(enter==0){e_per4an_dir[3]=per4an_dir[3];per4an_dir[3]=per4an_dir[3];delay_ms(400);lcd_clear();goto awal;}
                 ; 0000 0340     if(back==0){delay_ms(400);lcd_clear();goto awal;}
                 ; 0000 0341     delay_ms(50);
                 ; 0000 0342     }
                 ; 0000 0343 
                 ; 0000 0344     per4an_4:
                 ; 0000 0345     for(;;)
                 ; 0000 0346     {
                 ; 0000 0347     adc_menu=read_adc(0);
                 ; 0000 0348 
                 ; 0000 0349     if       (adc_menu<=50)   per4an_dir[4]=0;
                 ; 0000 034A     else if(adc_menu<=120) per4an_dir[4]=1;
                 ; 0000 034B     else                            per4an_dir[4]=2;
                 ; 0000 034C 
                 ; 0000 034D     lcd_gotoxy(0,1);
                 ; 0000 034E     if     (e_per4an_dir[4]==0)lcd_putsf("left");
                 ; 0000 034F     else if(e_per4an_dir[4]==1)lcd_putsf("right");
                 ; 0000 0350     else if(e_per4an_dir[4]==2)lcd_putsf("lurus");
                 ; 0000 0351 
                 ; 0000 0352     lcd_gotoxy(7,1);
                 ; 0000 0353     lcd_putsf("<-");
                 ; 0000 0354     if     (per4an_dir[4]==0)lcd_putsf("left");
                 ; 0000 0355     else if(per4an_dir[4]==1)lcd_putsf("right");
                 ; 0000 0356     else if(per4an_dir[4]==2)lcd_putsf("lurus");
                 ; 0000 0357 
                 ; 0000 0358     if(enter==0){e_per4an_dir[4]=per4an_dir[4];per4an_dir[4]=per4an_dir[4];delay_ms(400);lcd_clear();goto awal;}
                 ; 0000 0359     if(back==0){delay_ms(400);lcd_clear();goto awal;}
                 ; 0000 035A     delay_ms(50);
                 ; 0000 035B     }
                 ; 0000 035C 
                 ; 0000 035D     per4an_5:
                 ; 0000 035E     for(;;)
                 ; 0000 035F     {
                 ; 0000 0360     adc_menu=read_adc(0);
                 ; 0000 0361 
                 ; 0000 0362     if         (adc_menu<=50) per4an_dir[5]=0;
                 ; 0000 0363     else if  (adc_menu<=120)per4an_dir[5]=1;
                 ; 0000 0364     else                             per4an_dir[5]=2;
                 ; 0000 0365 
                 ; 0000 0366     lcd_gotoxy(0,1);
                 ; 0000 0367     if     (e_per4an_dir[5]==0)lcd_putsf("left");
                 ; 0000 0368     else if(e_per4an_dir[5]==1)lcd_putsf("right");
                 ; 0000 0369     else if(e_per4an_dir[5]==2)lcd_putsf("lurus");
                 ; 0000 036A 
                 ; 0000 036B     lcd_gotoxy(7,1);
                 ; 0000 036C     lcd_putsf("<-");
                 ; 0000 036D     if     (per4an_dir[5]==0)lcd_putsf("left");
                 ; 0000 036E     else if(per4an_dir[5]==1)lcd_putsf("right");
                 ; 0000 036F     else if(per4an_dir[5]==2)lcd_putsf("lurus");
                 ; 0000 0370 
                 ; 0000 0371     if(enter==0){e_per4an_dir[5]=per4an_dir[5];per4an_dir[5]=per4an_dir[5];delay_ms(400);lcd_clear();goto awal;}
                 ; 0000 0372     if(back==0){delay_ms(400);lcd_clear();goto awal;}
                 ; 0000 0373     delay_ms(50);
                 ; 0000 0374     }
                 ; 0000 0375 
                 ; 0000 0376     selesai:
                 ; 0000 0377 }
                 ;
                 ;void pembagi_kp()
                 ; 0000 037A {
                 _pembagi_kp:
                 ; 0000 037B lcd_gotoxy(0,1);
0006a9 940e 0eee 	CALL SUBOPT_0x28
                 ; 0000 037C sprintf(lcd,"=%d",kp_div);
                +
0006ab e8e6     +LDI R30 , LOW ( 2 * _0x0 + 28 )
0006ac e0f0     +LDI R31 , HIGH ( 2 * _0x0 + 28 )
                 	__POINTW1FN _0x0,28
0006ad 93fa      	ST   -Y,R31
0006ae 93ea      	ST   -Y,R30
0006af 91e0 0173 	LDS  R30,_kp_div
0006b1 940e 0e5f 	CALL SUBOPT_0x16
0006b3 940e 0e65 	CALL SUBOPT_0x17
                 ; 0000 037D lcd_puts(lcd);
                 ; 0000 037E for(;;)
                 _0x23C:
                 ; 0000 037F     {
                 ; 0000 0380     adc_menu=read_adc(0);
0006b5 940e 0f15 	CALL SUBOPT_0x2D
                 ; 0000 0381     adc_menu=255-adc_menu;
                 ; 0000 0382 
                 ; 0000 0383     //kp_div=adc_menu/5;
                 ; 0000 0384 
                 ; 0000 0385     lcd_gotoxy(8,1);
                 ; 0000 0386     lcd_putsf("   ");
                 ; 0000 0387     lcd_gotoxy(5,1);
                 ; 0000 0388     sprintf(lcd," <- %d",adc_menu/3);
0006b7 940e 0f43 	CALL SUBOPT_0x2F
0006b9 940e 0e43 	CALL SUBOPT_0x14
                 ; 0000 0389     lcd_puts(lcd);
                 ; 0000 038A 
                 ; 0000 038B     if(enter==0){e_kp_div=adc_menu/3;kp_div=adc_menu/3;delay_ms(400);break;}
0006bb 9998      	SBIC 0x13,0
0006bc c011      	RJMP _0x23E
0006bd 91e0 0197 	LDS  R30,_adc_menu
0006bf 940e 0f43 	CALL SUBOPT_0x2F
0006c1 e1a6      	LDI  R26,LOW(_e_kp_div)
0006c2 e0b0      	LDI  R27,HIGH(_e_kp_div)
0006c3 940e 1064 	CALL __EEPROMWRB
0006c5 91e0 0197 	LDS  R30,_adc_menu
0006c7 940e 0f43 	CALL SUBOPT_0x2F
0006c9 93e0 0173 	STS  _kp_div,R30
0006cb 940e 0f40 	CALL SUBOPT_0x2E
0006cd c008      	RJMP _0x23D
                 ; 0000 038C     if(back==0){delay_ms(400);break;}
                 _0x23E:
0006ce 9987      	SBIC 0x10,7
0006cf c003      	RJMP _0x23F
0006d0 940e 0f40 	CALL SUBOPT_0x2E
0006d2 c003      	RJMP _0x23D
                 ; 0000 038D     delay_ms(50);
                 _0x23F:
0006d3 940e 0ecd 	CALL SUBOPT_0x23
                 ; 0000 038E     }
0006d5 cfdf      	RJMP _0x23C
                 _0x23D:
                 ; 0000 038F }
0006d6 9508      	RET
                 ;
                 ;
                 ;void uji_langkah()
                 ; 0000 0393 {
                 _uji_langkah:
                 ; 0000 0394 intrpt_on();
0006d7 da85      	RCALL _intrpt_on
                 ; 0000 0395 lcd_clear();
0006d8 940e 0cec 	CALL _lcd_clear
                 ; 0000 0396 langkah_kanan=0;
0006da 940e 0db5 	CALL SUBOPT_0x3
                 ; 0000 0397 for(;;)
                 _0x241:
                 ; 0000 0398     {
                 ; 0000 0399         speed_ka=pwm_ka=10;
0006dc e0ea      	LDI  R30,LOW(10)
0006dd e0f0      	LDI  R31,HIGH(10)
0006de bdfb      	OUT  0x2A+1,R31
0006df bdea      	OUT  0x2A,R30
0006e0 940e 0df9 	CALL SUBOPT_0xD
                 ; 0000 039A         speed_ki=pwm_ki=10;
0006e2 e0ea      	LDI  R30,LOW(10)
0006e3 e0f0      	LDI  R31,HIGH(10)
0006e4 bdf9      	OUT  0x28+1,R31
0006e5 bde8      	OUT  0x28,R30
0006e6 940e 0dfe 	CALL SUBOPT_0xE
                 ; 0000 039B         lcd_gotoxy(0,0);
0006e8 940e 0f4a 	CALL SUBOPT_0x30
                 ; 0000 039C         lcd_putsf("KR=");
                +
0006ea efee     +LDI R30 , LOW ( 2 * _0x0 + 148 )
0006eb e0f0     +LDI R31 , HIGH ( 2 * _0x0 + 148 )
                 	__POINTW1FN _0x0,148
0006ec 940e 0f4f 	CALL SUBOPT_0x31
                 ; 0000 039D         lcd_gotoxy(3,0);
0006ee e0e3      	LDI  R30,LOW(3)
0006ef 940e 0f53 	CALL SUBOPT_0x32
                 ; 0000 039E         sprintf(lcd," %d",langkah_kiri);
0006f1 940e 0f58 	CALL SUBOPT_0x33
0006f3 91e0 020b 	LDS  R30,_langkah_kiri
0006f5 91f0 020c 	LDS  R31,_langkah_kiri+1
0006f7 940e 0e51 	CALL SUBOPT_0x15
                 ; 0000 039F         lcd_puts(lcd);
                 ; 0000 03A0         lcd_gotoxy(8,0);
0006f9 e0e8      	LDI  R30,LOW(8)
0006fa 940e 0f53 	CALL SUBOPT_0x32
                 ; 0000 03A1         lcd_putsf("KN=");
                +
0006fc e0e2     +LDI R30 , LOW ( 2 * _0x0 + 152 )
0006fd e0f1     +LDI R31 , HIGH ( 2 * _0x0 + 152 )
                 	__POINTW1FN _0x0,152
0006fe 940e 0f4f 	CALL SUBOPT_0x31
                 ; 0000 03A2         lcd_gotoxy(11,0);
000700 e0eb      	LDI  R30,LOW(11)
000701 940e 0f53 	CALL SUBOPT_0x32
                 ; 0000 03A3         sprintf(lcd," %d",langkah_kanan);
000703 940e 0f58 	CALL SUBOPT_0x33
000705 91e0 0209 	LDS  R30,_langkah_kanan
000707 91f0 020a 	LDS  R31,_langkah_kanan+1
000709 940e 0e51 	CALL SUBOPT_0x15
                 ; 0000 03A4         lcd_puts(lcd);
                 ; 0000 03A5 
                 ; 0000 03A6 
                 ; 0000 03A7         lcd_gotoxy(0,1);
00070b 940e 0f61 	CALL SUBOPT_0x34
                 ; 0000 03A8         lcd_putsf("langkah=");
                +
00070d e0e6     +LDI R30 , LOW ( 2 * _0x0 + 156 )
00070e e0f1     +LDI R31 , HIGH ( 2 * _0x0 + 156 )
                 	__POINTW1FN _0x0,156
00070f 940e 0f4f 	CALL SUBOPT_0x31
                 ; 0000 03A9         lcd_gotoxy(8,1);
000711 e0e8      	LDI  R30,LOW(8)
000712 93ea      	ST   -Y,R30
000713 e0e1      	LDI  R30,LOW(1)
000714 93ea      	ST   -Y,R30
000715 940e 0cd4 	CALL _lcd_gotoxy
                 ; 0000 03AA         sprintf(lcd," %d",step);
000717 940e 0f58 	CALL SUBOPT_0x33
000719 91e0 020f 	LDS  R30,_step
00071b 91f0 0210 	LDS  R31,_step+1
00071d 940e 0e51 	CALL SUBOPT_0x15
                 ; 0000 03AB         lcd_puts(lcd);
                 ; 0000 03AC 
                 ; 0000 03AD         if(back==0){intrpt_off();delay_ms(50);break;}
00071f 9987      	SBIC 0x10,7
000720 c004      	RJMP _0x243
000721 da49      	RCALL _intrpt_off
000722 940e 0ecd 	CALL SUBOPT_0x23
000724 c001      	RJMP _0x242
                 ; 0000 03AE     }
                 _0x243:
000725 cfb6      	RJMP _0x241
                 _0x242:
                 ; 0000 03AF }
000726 9508      	RET
                 ;
                 ;void test_drive()
                 ; 0000 03B2 {
                 _test_drive:
                 ; 0000 03B3 
                 ; 0000 03B4 pwm_on();
000727 da27      	RCALL _pwm_on
                 ; 0000 03B5 speed_ka=speed;
                +
000728 9260 016c+STS _speed_ka + 0 , R6
00072a 9270 016d+STS _speed_ka + 0 + 1 , R7
                 	__PUTWMRN _speed_ka,0,6,7
                 ; 0000 03B6 speed_ki=speed;
                +
00072c 9260 016e+STS _speed_ki + 0 , R6
00072e 9270 016f+STS _speed_ki + 0 + 1 , R7
                 	__PUTWMRN _speed_ki,0,6,7
                 ; 0000 03B7 pwm_out();
000730 db92      	RCALL _pwm_out
                 ; 0000 03B8 for(;;){if(back==0||enter==0){pwm_off();break;}}
                 _0x245:
000731 e0a0      	LDI  R26,0
000732 9987      	SBIC 0x10,7
000733 e0a1      	LDI  R26,1
000734 30a0      	CPI  R26,LOW(0x0)
000735 f029      	BREQ _0x248
000736 e0a0      	LDI  R26,0
000737 9998      	SBIC 0x13,0
000738 e0a1      	LDI  R26,1
000739 30a0      	CPI  R26,LOW(0x0)
00073a f411      	BRNE _0x247
                 _0x248:
00073b da19      	RCALL _pwm_off
00073c c001      	RJMP _0x246
                 _0x247:
00073d cff3      	RJMP _0x245
                 _0x246:
                 ; 0000 03B9 }
00073e 9508      	RET
                 ;
                 ;
                 ;void slave_menu()
                 ; 0000 03BD {
                 _slave_menu:
                 ; 0000 03BE     menu_slave=0;
00073f e0e0      	LDI  R30,LOW(0)
000740 93e0 0174 	STS  _menu_slave,R30
                 ; 0000 03BF     temp_adc_menu=0;
000742 93e0 0176 	STS  _temp_adc_menu,R30
                 ; 0000 03C0     for(;;)
                 _0x24B:
                 ; 0000 03C1     {
                 ; 0000 03C2     adc_menu=read_adc(0);
000744 940e 0f67 	CALL SUBOPT_0x35
                 ; 0000 03C3     //adc_menu=255-adc_menu;
                 ; 0000 03C4     if(temp_adc_menu!=adc_menu) lcd_clear();
000746 91e0 0197 	LDS  R30,_adc_menu
000748 91a0 0176 	LDS  R26,_temp_adc_menu
00074a 17ea      	CP   R30,R26
00074b f011      	BREQ _0x24D
00074c 940e 0cec 	CALL _lcd_clear
                 ; 0000 03C5     lcd_gotoxy(0,0);
                 _0x24D:
00074e 940e 0f4a 	CALL SUBOPT_0x30
                 ; 0000 03C6 
                 ; 0000 03C7     if (adc_menu<=40)
000750 91a0 0197 	LDS  R26,_adc_menu
000752 32a9      	CPI  R26,LOW(0x29)
000753 f430      	BRSH _0x24E
                 ; 0000 03C8         {
                 ; 0000 03C9         lcd_putsf("1. Uji Langkah ");
                +
000754 e0ef     +LDI R30 , LOW ( 2 * _0x0 + 165 )
000755 e0f1     +LDI R31 , HIGH ( 2 * _0x0 + 165 )
                 	__POINTW1FN _0x0,165
000756 940e 0f4f 	CALL SUBOPT_0x31
                 ; 0000 03CA         menu_slave=1;
000758 e0e1      	LDI  R30,LOW(1)
000759 c019      	RJMP _0x30F
                 ; 0000 03CB         }
                 ; 0000 03CC     else if (adc_menu<=80)
                 _0x24E:
00075a 91a0 0197 	LDS  R26,_adc_menu
00075c 35a1      	CPI  R26,LOW(0x51)
00075d f430      	BRSH _0x250
                 ; 0000 03CD         {
                 ; 0000 03CE         lcd_putsf("2. Arah Per4an");
                +
00075e e1ef     +LDI R30 , LOW ( 2 * _0x0 + 181 )
00075f e0f1     +LDI R31 , HIGH ( 2 * _0x0 + 181 )
                 	__POINTW1FN _0x0,181
000760 940e 0f4f 	CALL SUBOPT_0x31
                 ; 0000 03CF         menu_slave=2;
000762 e0e2      	LDI  R30,LOW(2)
000763 c00f      	RJMP _0x30F
                 ; 0000 03D0         }
                 ; 0000 03D1     else if (adc_menu<=120)
                 _0x250:
000764 91a0 0197 	LDS  R26,_adc_menu
000766 37a9      	CPI  R26,LOW(0x79)
000767 f430      	BRSH _0x252
                 ; 0000 03D2         {
                 ; 0000 03D3         lcd_putsf("3. Pembagi Kp");
                +
000768 e2ee     +LDI R30 , LOW ( 2 * _0x0 + 196 )
000769 e0f1     +LDI R31 , HIGH ( 2 * _0x0 + 196 )
                 	__POINTW1FN _0x0,196
00076a 940e 0f4f 	CALL SUBOPT_0x31
                 ; 0000 03D4         menu_slave=3;
00076c e0e3      	LDI  R30,LOW(3)
00076d c005      	RJMP _0x30F
                 ; 0000 03D5         }
                 ; 0000 03D6 
                 ; 0000 03D7     else
                 _0x252:
                 ; 0000 03D8         {
                 ; 0000 03D9         lcd_putsf("4. test_drive");
                +
00076e e3ec     +LDI R30 , LOW ( 2 * _0x0 + 210 )
00076f e0f1     +LDI R31 , HIGH ( 2 * _0x0 + 210 )
                 	__POINTW1FN _0x0,210
000770 940e 0f4f 	CALL SUBOPT_0x31
                 ; 0000 03DA         menu_slave=4;
000772 e0e4      	LDI  R30,LOW(4)
                 _0x30F:
000773 93e0 0174 	STS  _menu_slave,R30
                 ; 0000 03DB         }
                 ; 0000 03DC 
                 ; 0000 03DD 
                 ; 0000 03DE 
                 ; 0000 03DF     if(enter==0)
000775 9998      	SBIC 0x13,0
000776 c015      	RJMP _0x254
                 ; 0000 03E0     {
                 ; 0000 03E1         delay_ms(300);
000777 e2ec      	LDI  R30,LOW(300)
000778 e0f1      	LDI  R31,HIGH(300)
000779 940e 0ea2 	CALL SUBOPT_0x1D
                 ; 0000 03E2         if      (menu_slave==1)uji_langkah();
00077b 91a0 0174 	LDS  R26,_menu_slave
00077d 30a1      	CPI  R26,LOW(0x1)
00077e f411      	BRNE _0x255
00077f df57      	RCALL _uji_langkah
                 ; 0000 03E3         //else if (menu_slave==2)eksekusi_per4an();
                 ; 0000 03E4         else if (menu_slave==3)pembagi_kp();
000780 c00b      	RJMP _0x256
                 _0x255:
000781 91a0 0174 	LDS  R26,_menu_slave
000783 30a3      	CPI  R26,LOW(0x3)
000784 f411      	BRNE _0x257
000785 df23      	RCALL _pembagi_kp
                 ; 0000 03E5         else if (menu_slave==4)test_drive();
000786 c005      	RJMP _0x258
                 _0x257:
000787 91a0 0174 	LDS  R26,_menu_slave
000789 30a4      	CPI  R26,LOW(0x4)
00078a f409      	BRNE _0x259
00078b df9b      	RCALL _test_drive
                 ; 0000 03E6     }
                 _0x259:
                 _0x258:
                 _0x256:
                 ; 0000 03E7        if(back==0){delay_ms(400);menu_slave=0;break;}
                 _0x254:
00078c 9987      	SBIC 0x10,7
00078d c006      	RJMP _0x25A
00078e 940e 0f40 	CALL SUBOPT_0x2E
000790 e0e0      	LDI  R30,LOW(0)
000791 93e0 0174 	STS  _menu_slave,R30
000793 c005      	RJMP _0x24C
                 ; 0000 03E8 
                 ; 0000 03E9     temp_adc_menu=adc_menu;
                 _0x25A:
000794 91e0 0197 	LDS  R30,_adc_menu
000796 93e0 0176 	STS  _temp_adc_menu,R30
                 ; 0000 03EA     }
000798 cfab      	RJMP _0x24B
                 _0x24C:
                 ; 0000 03EB 
                 ; 0000 03EC 
                 ; 0000 03ED }
000799 9508      	RET
                 ;
                 ;void tampil_menu()
                 ; 0000 03F0 {
                 _tampil_menu:
                 ; 0000 03F1 menu=0;
00079a e0e0      	LDI  R30,LOW(0)
00079b 93e0 0172 	STS  _menu,R30
                 ; 0000 03F2 for(;;)
                 _0x25C:
                 ; 0000 03F3     {
                 ; 0000 03F4     adc_menu=read_adc(0);
00079d 940e 0f67 	CALL SUBOPT_0x35
                 ; 0000 03F5     lcd_clear();
00079f 940e 0cec 	CALL _lcd_clear
                 ; 0000 03F6     lcd_gotoxy(0,0);
0007a1 940e 0f4a 	CALL SUBOPT_0x30
                 ; 0000 03F7     if (adc_menu<=100)
0007a3 91a0 0197 	LDS  R26,_adc_menu
0007a5 36a5      	CPI  R26,LOW(0x65)
0007a6 f430      	BRSH _0x25E
                 ; 0000 03F8         {
                 ; 0000 03F9         lcd_putsf("1. Speed ");
                +
0007a7 e4ea     +LDI R30 , LOW ( 2 * _0x0 + 224 )
0007a8 e0f1     +LDI R31 , HIGH ( 2 * _0x0 + 224 )
                 	__POINTW1FN _0x0,224
0007a9 940e 0f4f 	CALL SUBOPT_0x31
                 ; 0000 03FA         menu=1;
0007ab e0e1      	LDI  R30,LOW(1)
0007ac c00a      	RJMP _0x310
                 ; 0000 03FB         }
                 ; 0000 03FC     else if (adc_menu<=255)
                 _0x25E:
0007ad 91a0 0197 	LDS  R26,_adc_menu
0007af efef      	LDI  R30,LOW(255)
0007b0 17ea      	CP   R30,R26
0007b1 f038      	BRLO _0x260
                 ; 0000 03FD         {
                 ; 0000 03FE         lcd_putsf("2. Auto Set ");
                +
0007b2 e5e4     +LDI R30 , LOW ( 2 * _0x0 + 234 )
0007b3 e0f1     +LDI R31 , HIGH ( 2 * _0x0 + 234 )
                 	__POINTW1FN _0x0,234
0007b4 940e 0f4f 	CALL SUBOPT_0x31
                 ; 0000 03FF         menu=2;
0007b6 e0e2      	LDI  R30,LOW(2)
                 _0x310:
0007b7 93e0 0172 	STS  _menu,R30
                 ; 0000 0400         }
                 ; 0000 0401 
                 ; 0000 0402     if(enter==0)
                 _0x260:
0007b9 9998      	SBIC 0x13,0
0007ba c02f      	RJMP _0x261
                 ; 0000 0403         {
                 ; 0000 0404         delay_ms(400);
0007bb 940e 0f40 	CALL SUBOPT_0x2E
                 ; 0000 0405         if      (menu==2)
0007bd 91a0 0172 	LDS  R26,_menu
0007bf 30a2      	CPI  R26,LOW(0x2)
0007c0 f521      	BRNE _0x262
                 ; 0000 0406             {
                 ; 0000 0407             for(i=0;i<8;i++)
0007c1 e0e0      	LDI  R30,LOW(0)
0007c2 93e0 01f1 	STS  _i,R30
                 _0x264:
0007c4 91a0 01f1 	LDS  R26,_i
0007c6 30a8      	CPI  R26,LOW(0x8)
0007c7 f4d8      	BRSH _0x265
                 ; 0000 0408                 {
                 ; 0000 0409                 min_adc1[i]=255;
0007c8 940e 0dc3 	CALL SUBOPT_0x5
0007ca 54e8      	SUBI R30,LOW(-_min_adc1)
0007cb 4ffe      	SBCI R31,HIGH(-_min_adc1)
0007cc efaf      	LDI  R26,LOW(255)
0007cd 83a0      	STD  Z+0,R26
                 ; 0000 040A                 min_adc2[i]=255;
0007ce 940e 0dc3 	CALL SUBOPT_0x5
0007d0 54e0      	SUBI R30,LOW(-_min_adc2)
0007d1 4ffe      	SBCI R31,HIGH(-_min_adc2)
0007d2 efaf      	LDI  R26,LOW(255)
0007d3 83a0      	STD  Z+0,R26
                 ; 0000 040B                 max_adc1[i]=0;
0007d4 940e 0dc3 	CALL SUBOPT_0x5
0007d6 55e8      	SUBI R30,LOW(-_max_adc1)
0007d7 4ffe      	SBCI R31,HIGH(-_max_adc1)
0007d8 e0a0      	LDI  R26,LOW(0)
0007d9 83a0      	STD  Z+0,R26
                 ; 0000 040C                 max_adc2[i]=0;
0007da 940e 0dc3 	CALL SUBOPT_0x5
0007dc 55e0      	SUBI R30,LOW(-_max_adc2)
0007dd 4ffe      	SBCI R31,HIGH(-_max_adc2)
0007de e0a0      	LDI  R26,LOW(0)
0007df 83a0      	STD  Z+0,R26
                 ; 0000 040D                 }
0007e0 940e 0dcb 	CALL SUBOPT_0x7
0007e2 cfe1      	RJMP _0x264
                 _0x265:
                 ; 0000 040E             tampil_auto_set();
0007e3 dd40      	RCALL _tampil_auto_set
                 ; 0000 040F             }
                 ; 0000 0410         else if (menu==1)tampil_speed();
0007e4 c005      	RJMP _0x266
                 _0x262:
0007e5 91a0 0172 	LDS  R26,_menu
0007e7 30a1      	CPI  R26,LOW(0x1)
0007e8 f409      	BRNE _0x267
0007e9 de94      	RCALL _tampil_speed
                 ; 0000 0411         }
                 _0x267:
                 _0x266:
                 ; 0000 0412 
                 ; 0000 0413     if(back==0)
                 _0x261:
0007ea 9987      	SBIC 0x10,7
0007eb c01f      	RJMP _0x268
                 ; 0000 0414     {
                 ; 0000 0415         i=0;
0007ec e0e0      	LDI  R30,LOW(0)
0007ed 93e0 01f1 	STS  _i,R30
                 ; 0000 0416         while(back==0){delay_ms(10);i++;if(i>200)i=200;}
                 _0x269:
0007ef 9987      	SBIC 0x10,7
0007f0 c00e      	RJMP _0x26B
0007f1 e0ea      	LDI  R30,LOW(10)
0007f2 e0f0      	LDI  R31,HIGH(10)
0007f3 940e 0ea2 	CALL SUBOPT_0x1D
0007f5 940e 0dcb 	CALL SUBOPT_0x7
0007f7 91a0 01f1 	LDS  R26,_i
0007f9 3ca9      	CPI  R26,LOW(0xC9)
0007fa f018      	BRLO _0x26C
0007fb ece8      	LDI  R30,LOW(200)
0007fc 93e0 01f1 	STS  _i,R30
                 _0x26C:
0007fe cff0      	RJMP _0x269
                 _0x26B:
                 ; 0000 0417         if(i>60)    {slave_menu();}
0007ff 91a0 01f1 	LDS  R26,_i
000801 33ad      	CPI  R26,LOW(0x3D)
000802 f010      	BRLO _0x26D
000803 df3b      	RCALL _slave_menu
                 ; 0000 0418         else        {delay_ms(400);menu=0;break;}
000804 c006      	RJMP _0x26E
                 _0x26D:
000805 940e 0f40 	CALL SUBOPT_0x2E
000807 e0e0      	LDI  R30,LOW(0)
000808 93e0 0172 	STS  _menu,R30
00080a c003      	RJMP _0x25D
                 _0x26E:
                 ; 0000 0419         }
                 ; 0000 041A     delay_ms(50);
                 _0x268:
00080b 940e 0ecd 	CALL SUBOPT_0x23
                 ; 0000 041B     }
00080d cf8f      	RJMP _0x25C
                 _0x25D:
                 ; 0000 041C }
00080e 9508      	RET
                 ;
                 ;void tampil_siap()
                 ; 0000 041F {
                 _tampil_siap:
                 ; 0000 0420     i=0;
00080f 940e 0f6e 	CALL SUBOPT_0x36
                 ; 0000 0421     n=0;
                 ; 0000 0422 
                 ; 0000 0423     start:
                 _0x26F:
                 ; 0000 0424     for(;;)
                 _0x271:
                 ; 0000 0425     {
                 ; 0000 0426         lcd_clear();
000811 940e 0cec 	CALL _lcd_clear
                 ; 0000 0427         i=0;
000813 940e 0f6e 	CALL SUBOPT_0x36
                 ; 0000 0428         n=0;
                 ; 0000 0429         langkah=0;
000815 940e 0dbc 	CALL SUBOPT_0x4
                 ; 0000 042A         langkah_kanan=0;
000817 940e 0db5 	CALL SUBOPT_0x3
                 ; 0000 042B         langkah_kiri=0;
000819 940e 0dae 	CALL SUBOPT_0x2
                 ; 0000 042C         per4an=0;
00081b e0e0      	LDI  R30,LOW(0)
00081c 93e0 01fc 	STS  _per4an,R30
                 ; 0000 042D         flag_siku=0;
00081e 94e8      	CLT
00081f f831      	BLD  R3,1
                 ; 0000 042E         siku=0;
000820 93e0 01fd 	STS  _siku,R30
                 ; 0000 042F         flag_per4an=0;
000822 f830      	BLD  R3,0
                 ; 0000 0430         adc_menu=read_adc(0);
000823 940e 0f67 	CALL SUBOPT_0x35
                 ; 0000 0431         boleh_nos=0;
000825 e0e0      	LDI  R30,LOW(0)
000826 93e0 01f0 	STS  _boleh_nos,R30
                 ; 0000 0432         berhasil=0;
000828 94e8      	CLT
000829 f827      	BLD  R2,7
                 ; 0000 0433         status_error=0;
00082a f821      	BLD  R2,1
                 ; 0000 0434         status_error_lalu=1;
00082b 9468      	SET
00082c f820      	BLD  R2,0
                 ; 0000 0435         temp_kp_div=kp_div;
00082d 91e0 0173 	LDS  R30,_kp_div
00082f 93e0 0204 	STS  _temp_kp_div,R30
                 ; 0000 0436         per4an_dir[1]=2;
000831 e0e2      	LDI  R30,LOW(2)
                +
000832 93e0 01ff+STS _per4an_dir + 1 , R30
                 	__PUTB1MN _per4an_dir,1
                 ; 0000 0437         per4an_dir[2]=1;
000834 e0e1      	LDI  R30,LOW(1)
                +
000835 93e0 0200+STS _per4an_dir + 2 , R30
                 	__PUTB1MN _per4an_dir,2
                 ; 0000 0438         per4an_dir[3]=2;
000837 e0e2      	LDI  R30,LOW(2)
                +
000838 93e0 0201+STS _per4an_dir + 3 , R30
                 	__PUTB1MN _per4an_dir,3
                 ; 0000 0439         per4an_dir [4]=0;
00083a e0e0      	LDI  R30,LOW(0)
                +
00083b 93e0 0202+STS _per4an_dir + 4 , R30
                 	__PUTB1MN _per4an_dir,4
                 ; 0000 043A         time=0;
00083d e0e0      	LDI  R30,LOW(0)
00083e e0f0      	LDI  R31,HIGH(0)
00083f 93e0 0205 	STS  _time,R30
000841 93f0 0206 	STS  _time+1,R31
                 ; 0000 043B 
                 ; 0000 043C         lcd_clear();
000843 940e 0cec 	CALL _lcd_clear
                 ; 0000 043D         lcd_gotoxy(0,0);
000845 940e 0f4a 	CALL SUBOPT_0x30
                 ; 0000 043E         lcd_putsf("RUN?");
                +
000847 e6e1     +LDI R30 , LOW ( 2 * _0x0 + 247 )
000848 e0f1     +LDI R31 , HIGH ( 2 * _0x0 + 247 )
                 	__POINTW1FN _0x0,247
000849 940e 0f4f 	CALL SUBOPT_0x31
                 ; 0000 043F         speed=temp_speed;
00084b 940e 0ec8 	CALL SUBOPT_0x22
                 ; 0000 0440 
                 ; 0000 0441         lcd_gotoxy(0,1);
00084d 940e 0f61 	CALL SUBOPT_0x34
                 ; 0000 0442 
                 ; 0000 0443         if           (adc_menu<=30)strategi=1;
00084f 91a0 0197 	LDS  R26,_adc_menu
000851 31af      	CPI  R26,LOW(0x1F)
000852 f420      	BRSH _0x273
000853 e0e1      	LDI  R30,LOW(1)
000854 93e0 0175 	STS  _strategi,R30
                 ; 0000 0444         else if    (adc_menu<=70)strategi=2;
000856 c019      	RJMP _0x274
                 _0x273:
000857 91a0 0197 	LDS  R26,_adc_menu
000859 34a7      	CPI  R26,LOW(0x47)
00085a f420      	BRSH _0x275
00085b e0e2      	LDI  R30,LOW(2)
00085c 93e0 0175 	STS  _strategi,R30
                 ; 0000 0445         else if    (adc_menu<=120)strategi=3;
00085e c011      	RJMP _0x276
                 _0x275:
00085f 91a0 0197 	LDS  R26,_adc_menu
000861 37a9      	CPI  R26,LOW(0x79)
000862 f420      	BRSH _0x277
000863 e0e3      	LDI  R30,LOW(3)
000864 93e0 0175 	STS  _strategi,R30
                 ; 0000 0446         else if    (adc_menu<=250)strategi=4;
000866 c009      	RJMP _0x278
                 _0x277:
000867 91a0 0197 	LDS  R26,_adc_menu
000869 3fab      	CPI  R26,LOW(0xFB)
00086a f420      	BRSH _0x279
00086b e0e4      	LDI  R30,LOW(4)
00086c 93e0 0175 	STS  _strategi,R30
                 ; 0000 0447         else      goto lihat_sensor;
00086e c001      	RJMP _0x27A
                 _0x279:
00086f c055      	RJMP _0x27B
                 ; 0000 0448 
                 ; 0000 0449         if           (strategi==1)lcd_putsf("PID");
                 _0x27A:
                 _0x278:
                 _0x276:
                 _0x274:
000870 91a0 0175 	LDS  R26,_strategi
000872 30a1      	CPI  R26,LOW(0x1)
000873 f419      	BRNE _0x27C
                +
000874 e6e6     +LDI R30 , LOW ( 2 * _0x0 + 252 )
000875 e0f1     +LDI R31 , HIGH ( 2 * _0x0 + 252 )
                 	__POINTW1FN _0x0,252
000876 c014      	RJMP _0x311
                 ; 0000 044A         else if    (strategi==2)lcd_putsf("Deteksi Per4an");
                 _0x27C:
000877 91a0 0175 	LDS  R26,_strategi
000879 30a2      	CPI  R26,LOW(0x2)
00087a f419      	BRNE _0x27E
                +
00087b e6ea     +LDI R30 , LOW ( 2 * _0x0 + 256 )
00087c e0f1     +LDI R31 , HIGH ( 2 * _0x0 + 256 )
                 	__POINTW1FN _0x0,256
00087d c00d      	RJMP _0x311
                 ; 0000 044B         else if    (strategi==3)lcd_putsf("NOS-NOS");
                 _0x27E:
00087e 91a0 0175 	LDS  R26,_strategi
000880 30a3      	CPI  R26,LOW(0x3)
000881 f419      	BRNE _0x280
                +
000882 e7e9     +LDI R30 , LOW ( 2 * _0x0 + 271 )
000883 e0f1     +LDI R31 , HIGH ( 2 * _0x0 + 271 )
                 	__POINTW1FN _0x0,271
000884 c006      	RJMP _0x311
                 ; 0000 044C         else if    (strategi==4)lcd_putsf("Using AI");
                 _0x280:
000885 91a0 0175 	LDS  R26,_strategi
000887 30a4      	CPI  R26,LOW(0x4)
000888 f431      	BRNE _0x282
                +
000889 e8e1     +LDI R30 , LOW ( 2 * _0x0 + 279 )
00088a e0f1     +LDI R31 , HIGH ( 2 * _0x0 + 279 )
                 	__POINTW1FN _0x0,279
                 _0x311:
00088b 93fa      	ST   -Y,R31
00088c 93ea      	ST   -Y,R30
00088d 940e 0d38 	CALL _lcd_putsf
                 ; 0000 044D 
                 ; 0000 044E         delay_ms(200);
                 _0x282:
00088f 940e 0f74 	CALL SUBOPT_0x37
                 ; 0000 044F         if(back==0){delay_ms(250);tampil_menu();goto start;}
000891 9987      	SBIC 0x10,7
000892 c006      	RJMP _0x283
000893 efea      	LDI  R30,LOW(250)
000894 e0f0      	LDI  R31,HIGH(250)
000895 940e 0ea2 	CALL SUBOPT_0x1D
000897 df02      	RCALL _tampil_menu
000898 cf78      	RJMP _0x26F
                 ; 0000 0450         if(enter==0)
                 _0x283:
000899 9998      	SBIC 0x13,0
00089a c025      	RJMP _0x284
                 ; 0000 0451         {
                 ; 0000 0452             i=0;
00089b e0e0      	LDI  R30,LOW(0)
00089c 93e0 01f1 	STS  _i,R30
                 ; 0000 0453             while(enter==0){delay_ms(10);i++;if(i>200)i=200;}
                 _0x285:
00089e 9998      	SBIC 0x13,0
00089f c00e      	RJMP _0x287
0008a0 e0ea      	LDI  R30,LOW(10)
0008a1 e0f0      	LDI  R31,HIGH(10)
0008a2 940e 0ea2 	CALL SUBOPT_0x1D
0008a4 940e 0dcb 	CALL SUBOPT_0x7
0008a6 91a0 01f1 	LDS  R26,_i
0008a8 3ca9      	CPI  R26,LOW(0xC9)
0008a9 f018      	BRLO _0x288
0008aa ece8      	LDI  R30,LOW(200)
0008ab 93e0 01f1 	STS  _i,R30
                 _0x288:
0008ad cff0      	RJMP _0x285
                 _0x287:
                 ; 0000 0454             if(i>30)    {pwm_off();i_speed=50;action();goto start;}
0008ae 91a0 01f1 	LDS  R26,_i
0008b0 31af      	CPI  R26,LOW(0x1F)
0008b1 f038      	BRLO _0x289
0008b2 940e 0155 	CALL _pwm_off
0008b4 e3e2      	LDI  R30,LOW(50)
0008b5 e0f0      	LDI  R31,HIGH(50)
0008b6 012f      	MOVW R4,R30
0008b7 dc52      	RCALL _action
0008b8 cf58      	RJMP _0x26F
                 ; 0000 0455             else        {pwm_on();i_speed=50;action();goto start;}
                 _0x289:
0008b9 940e 014f 	CALL _pwm_on
0008bb e3e2      	LDI  R30,LOW(50)
0008bc e0f0      	LDI  R31,HIGH(50)
0008bd 012f      	MOVW R4,R30
0008be dc4b      	RCALL _action
0008bf cf51      	RJMP _0x26F
                 ; 0000 0456         }
                 ; 0000 0457 
                 ; 0000 0458     //     while(enter!=0&&back!=0&&(adc_menu==temp_adc_menu))
                 ; 0000 0459     //         {
                 ; 0000 045A     //         i++;
                 ; 0000 045B     //         if(i>100){n++;i=0;}
                 ; 0000 045C     //         delay_ms(10);
                 ; 0000 045D     //         if(n>6){n=2;screensaver();}
                 ; 0000 045E     //         }
                 ; 0000 045F         temp_adc_menu=adc_menu;
                 _0x284:
0008c0 91e0 0197 	LDS  R30,_adc_menu
0008c2 93e0 0176 	STS  _temp_adc_menu,R30
                 ; 0000 0460         goto selesai;
0008c4 c041      	RJMP _0x28B
                 ; 0000 0461         lihat_sensor:
                 _0x27B:
                 ; 0000 0462         lcd_clear();
0008c5 940e 0cec 	CALL _lcd_clear
                 ; 0000 0463 
                 ; 0000 0464         for(;;)
                 _0x28D:
                 ; 0000 0465         {
                 ; 0000 0466 
                 ; 0000 0467             adc_menu=read_adc(0);
0008c7 940e 0f67 	CALL SUBOPT_0x35
                 ; 0000 0468 
                 ; 0000 0469             read_sensor();
0008c9 940e 0181 	CALL _read_sensor
                 ; 0000 046A             for(i=0;i<8;i++)
0008cb e0e0      	LDI  R30,LOW(0)
0008cc 93e0 01f1 	STS  _i,R30
                 _0x290:
0008ce 91a0 01f1 	LDS  R26,_i
0008d0 30a8      	CPI  R26,LOW(0x8)
0008d1 f480      	BRSH _0x291
                 ; 0000 046B             {
                 ; 0000 046C                 disp_sensor=0;
0008d2 e0e0      	LDI  R30,LOW(0)
0008d3 93e0 01f6 	STS  _disp_sensor,R30
                 ; 0000 046D                 disp_sensor=front_sensor>>i;
0008d5 940e 0de7 	CALL SUBOPT_0xA
0008d7 940e 0e03 	CALL SUBOPT_0xF
                 ; 0000 046E                 disp_sensor=(disp_sensor)&(0b00000001);
                 ; 0000 046F                 n=7-i;
0008d9 940e 0e0f 	CALL SUBOPT_0x10
                 ; 0000 0470                 lcd_gotoxy(n,0);
0008db 940e 0e18 	CALL SUBOPT_0x11
                 ; 0000 0471                 sprintf(lcd,"%d",disp_sensor);
0008dd 940e 0e25 	CALL SUBOPT_0x12
                 ; 0000 0472                 lcd_puts(lcd);
                 ; 0000 0473             }
0008df 940e 0dcb 	CALL SUBOPT_0x7
0008e1 cfec      	RJMP _0x290
                 _0x291:
                 ; 0000 0474 
                 ; 0000 0475             for(i=0;i<8;i++)
0008e2 e0e0      	LDI  R30,LOW(0)
0008e3 93e0 01f1 	STS  _i,R30
                 _0x293:
0008e5 91a0 01f1 	LDS  R26,_i
0008e7 30a8      	CPI  R26,LOW(0x8)
0008e8 f480      	BRSH _0x294
                 ; 0000 0476             {
                 ; 0000 0477                 disp_sensor=0;
0008e9 e0e0      	LDI  R30,LOW(0)
0008ea 93e0 01f6 	STS  _disp_sensor,R30
                 ; 0000 0478                 disp_sensor=rear_sensor>>i;
0008ec 940e 0df5 	CALL SUBOPT_0xC
0008ee 940e 0e03 	CALL SUBOPT_0xF
                 ; 0000 0479                 disp_sensor=(disp_sensor)&(0b00000001);
                 ; 0000 047A                 n=7-i;
0008f0 940e 0e0f 	CALL SUBOPT_0x10
                 ; 0000 047B                 lcd_gotoxy(n,1);
0008f2 940e 0e36 	CALL SUBOPT_0x13
                 ; 0000 047C                 sprintf(lcd,"%d",disp_sensor);
0008f4 940e 0e25 	CALL SUBOPT_0x12
                 ; 0000 047D                 lcd_puts(lcd);
                 ; 0000 047E             }
0008f6 940e 0dcb 	CALL SUBOPT_0x7
0008f8 cfec      	RJMP _0x293
                 _0x294:
                 ; 0000 047F 
                 ; 0000 0480             if(adc_menu<=120){delay_ms(400);break;}
0008f9 91a0 0197 	LDS  R26,_adc_menu
0008fb 37a9      	CPI  R26,LOW(0x79)
0008fc f418      	BRSH _0x295
0008fd 940e 0f40 	CALL SUBOPT_0x2E
0008ff c006      	RJMP _0x28E
                 ; 0000 0481 
                 ; 0000 0482             if(back==0){delay_ms(400);tampil_menu();};
                 _0x295:
000900 9987      	SBIC 0x10,7
000901 c003      	RJMP _0x296
000902 940e 0f40 	CALL SUBOPT_0x2E
000904 de95      	RCALL _tampil_menu
                 _0x296:
                 ; 0000 0483         }
000905 cfc1      	RJMP _0x28D
                 _0x28E:
                 ; 0000 0484 
                 ; 0000 0485         selesai:
                 _0x28B:
                 ; 0000 0486     }
000906 cf0a      	RJMP _0x271
                 ; 0000 0487 }
                 ;
                 ;void main(void)
                 ; 0000 048A {
                 _main:
                 ; 0000 048B 
                 ; 0000 048C pwm_off();
000907 940e 0155 	CALL _pwm_off
                 ; 0000 048D // LCD module initialization
                 ; 0000 048E lcd_init(16);
000909 e1e0      	LDI  R30,LOW(16)
00090a 93ea      	ST   -Y,R30
00090b 940e 0d59 	CALL _lcd_init
                 ; 0000 048F init_IO();
00090d 940e 0127 	CALL _init_IO
                 ; 0000 0490 init_ADC();
00090f 940e 0139 	CALL _init_ADC
                 ; 0000 0491 backlight=1;
000911 9ac3      	SBI  0x18,3
                 ; 0000 0492 led=0;
000912 98af      	CBI  0x15,7
                 ; 0000 0493 lcd_gotoxy(4,0);
000913 e0e4      	LDI  R30,LOW(4)
000914 940e 0f53 	CALL SUBOPT_0x32
                 ; 0000 0494 lcd_putsf("GARUDA");
                +
000916 e8ea     +LDI R30 , LOW ( 2 * _0x0 + 288 )
000917 e0f1     +LDI R31 , HIGH ( 2 * _0x0 + 288 )
                 	__POINTW1FN _0x0,288
000918 940e 0f4f 	CALL SUBOPT_0x31
                 ; 0000 0495 lcd_gotoxy(1,1);
00091a e0e1      	LDI  R30,LOW(1)
00091b 93ea      	ST   -Y,R30
00091c 93ea      	ST   -Y,R30
00091d 940e 0cd4 	CALL _lcd_gotoxy
                 ; 0000 0496 lcd_putsf("DI DADAKU!!!");
                +
00091f e9e1     +LDI R30 , LOW ( 2 * _0x0 + 295 )
000920 e0f1     +LDI R31 , HIGH ( 2 * _0x0 + 295 )
                 	__POINTW1FN _0x0,295
000921 940e 0f4f 	CALL SUBOPT_0x31
                 ; 0000 0497 
                 ; 0000 0498 delay_ms(1000);
000923 eee8      	LDI  R30,LOW(1000)
000924 e0f3      	LDI  R31,HIGH(1000)
000925 940e 0ea2 	CALL SUBOPT_0x1D
                 ; 0000 0499 led=1;
000927 9aaf      	SBI  0x15,7
                 ; 0000 049A delay_ms(200);
000928 940e 0f74 	CALL SUBOPT_0x37
                 ; 0000 049B led=0;
00092a 98af      	CBI  0x15,7
                 ; 0000 049C backlight=0;
00092b 98c3      	CBI  0x18,3
                 ; 0000 049D delay_ms(200);
00092c 940e 0f74 	CALL SUBOPT_0x37
                 ; 0000 049E led=1;
00092e 9aaf      	SBI  0x15,7
                 ; 0000 049F delay_ms(200);
00092f 940e 0f74 	CALL SUBOPT_0x37
                 ; 0000 04A0 led=0;
000931 98af      	CBI  0x15,7
                 ; 0000 04A1 backlight=1;
000932 9ac3      	SBI  0x18,3
                 ; 0000 04A2 delay_ms(500);
000933 efe4      	LDI  R30,LOW(500)
000934 e0f1      	LDI  R31,HIGH(500)
000935 940e 0ea2 	CALL SUBOPT_0x1D
                 ; 0000 04A3 backlight=0;
000937 98c3      	CBI  0x18,3
                 ; 0000 04A4 led=1;
000938 9aaf      	SBI  0x15,7
                 ; 0000 04A5 
                 ; 0000 04A6 temp_speed=speed   =e_speed;
000939 e0a0      	LDI  R26,LOW(_e_speed)
00093a e0b0      	LDI  R27,HIGH(_e_speed)
00093b 940e 104c 	CALL __EEPROMRDW
00093d 013f      	MOVW R6,R30
00093e 93e0 0170 	STS  _temp_speed,R30
000940 93f0 0171 	STS  _temp_speed+1,R31
                 ; 0000 04A7 min_kp  =e_min_kp;
000942 e0a2      	LDI  R26,LOW(_e_min_kp)
000943 e0b0      	LDI  R27,HIGH(_e_min_kp)
000944 940e 104c 	CALL __EEPROMRDW
000946 93e0 0164 	STS  _min_kp,R30
000948 93f0 0165 	STS  _min_kp+1,R31
                 ; 0000 04A8 max_kp  =e_max_kp;
00094a e0a4      	LDI  R26,LOW(_e_max_kp)
00094b e0b0      	LDI  R27,HIGH(_e_max_kp)
00094c 940e 104c 	CALL __EEPROMRDW
00094e 93e0 0166 	STS  _max_kp,R30
000950 93f0 0167 	STS  _max_kp+1,R31
                 ; 0000 04A9 per4an_enable=e_per4an_enable;
000952 e1ad      	LDI  R26,LOW(_e_per4an_enable)
000953 e0b0      	LDI  R27,HIGH(_e_per4an_enable)
000954 940e 1050 	CALL __EEPROMRDB
000956 940e 1075 	CALL __BSTB1
000958 f824      	BLD  R2,4
                 ; 0000 04AA kp_div  =e_kp_div;
000959 e1a6      	LDI  R26,LOW(_e_kp_div)
00095a e0b0      	LDI  R27,HIGH(_e_kp_div)
00095b 940e 1050 	CALL __EEPROMRDB
00095d 93e0 0173 	STS  _kp_div,R30
                 ; 0000 04AB 
                 ; 0000 04AC 
                 ; 0000 04AD     for(i=0;i<=10;i++)
00095f e0e0      	LDI  R30,LOW(0)
000960 93e0 01f1 	STS  _i,R30
                 _0x2AC:
000962 91a0 01f1 	LDS  R26,_i
000964 30ab      	CPI  R26,LOW(0xB)
000965 f528      	BRSH _0x2AD
                 ; 0000 04AE     {
                 ; 0000 04AF         langkah_nos[i]=e_langkah_nos[i];
000966 91e0 01f1 	LDS  R30,_i
000968 edac      	LDI  R26,LOW(_langkah_nos)
000969 e0b1      	LDI  R27,HIGH(_langkah_nos)
00096a 940e 0f77 	CALL SUBOPT_0x38
00096c 0fea      	ADD  R30,R26
00096d 1ffb      	ADC  R31,R27
00096e 010f      	MOVW R0,R30
00096f 91e0 01f1 	LDS  R30,_i
000971 e1ae      	LDI  R26,LOW(_e_langkah_nos)
000972 e0b0      	LDI  R27,HIGH(_e_langkah_nos)
000973 940e 0f77 	CALL SUBOPT_0x38
000975 940e 0f7b 	CALL SUBOPT_0x39
                 ; 0000 04B0         langkah_cepat[i]=e_langkah_cepat[i];
000977 91e0 01f1 	LDS  R30,_i
000979 eca8      	LDI  R26,LOW(_langkah_cepat)
00097a e0b1      	LDI  R27,HIGH(_langkah_cepat)
00097b 940e 0f77 	CALL SUBOPT_0x38
00097d 0fea      	ADD  R30,R26
00097e 1ffb      	ADC  R31,R27
00097f 010f      	MOVW R0,R30
000980 91e0 01f1 	LDS  R30,_i
000982 e3a2      	LDI  R26,LOW(_e_langkah_cepat)
000983 e0b0      	LDI  R27,HIGH(_e_langkah_cepat)
000984 940e 0f77 	CALL SUBOPT_0x38
000986 940e 0f7b 	CALL SUBOPT_0x39
                 ; 0000 04B1     }
000988 940e 0dcb 	CALL SUBOPT_0x7
00098a cfd7      	RJMP _0x2AC
                 _0x2AD:
                 ; 0000 04B2 
                 ; 0000 04B3 
                 ; 0000 04B4     for(i=0;i<8;i++)
00098b e0e0      	LDI  R30,LOW(0)
00098c 93e0 01f1 	STS  _i,R30
                 _0x2AF:
00098e 91a0 01f1 	LDS  R26,_i
000990 30a8      	CPI  R26,LOW(0x8)
000991 f498      	BRSH _0x2B0
                 ; 0000 04B5     {
                 ; 0000 04B6         adc_tres1[i]=e_adc_tres1[i];
000992 940e 0dc3 	CALL SUBOPT_0x5
000994 57e9      	SUBI R30,LOW(-_adc_tres1)
000995 4ffe      	SBCI R31,HIGH(-_adc_tres1)
000996 010f      	MOVW R0,R30
000997 940e 0f03 	CALL SUBOPT_0x2A
000999 940e 0f07 	CALL SUBOPT_0x2B
                 ; 0000 04B7         adc_tres2[i]=e_adc_tres2[i];
00099b 57e1      	SUBI R30,LOW(-_adc_tres2)
00099c 4ffe      	SBCI R31,HIGH(-_adc_tres2)
00099d 010f      	MOVW R0,R30
00099e 940e 0f03 	CALL SUBOPT_0x2A
0009a0 940e 0f0e 	CALL SUBOPT_0x2C
                 ; 0000 04B8     }
0009a2 940e 0dcb 	CALL SUBOPT_0x7
0009a4 cfe9      	RJMP _0x2AF
                 _0x2B0:
                 ; 0000 04B9 
                 ; 0000 04BA     while (1)
                 _0x2B1:
                 ; 0000 04BB     {
                 ; 0000 04BC         tampil_siap();
0009a5 de69      	RCALL _tampil_siap
                 ; 0000 04BD     }
0009a6 cffe      	RJMP _0x2B1
                 ; 0000 04BE }
                 _0x2B4:
0009a7 cfff      	RJMP _0x2B4
                 ;
                 ;interrupt [TIM0_COMP] void timer0_comp_isr(void)
                 ; 0000 04C1 {
                 _timer0_comp_isr:
0009a8 920a      	ST   -Y,R0
0009a9 921a      	ST   -Y,R1
0009aa 92fa      	ST   -Y,R15
0009ab 936a      	ST   -Y,R22
0009ac 937a      	ST   -Y,R23
0009ad 938a      	ST   -Y,R24
0009ae 939a      	ST   -Y,R25
0009af 93aa      	ST   -Y,R26
0009b0 93ba      	ST   -Y,R27
0009b1 93ea      	ST   -Y,R30
0009b2 93fa      	ST   -Y,R31
0009b3 b7ef      	IN   R30,SREG
0009b4 93ea      	ST   -Y,R30
                 ; 0000 04C2 
                 ; 0000 04C3 //led=0;
                 ; 0000 04C4 //for(i=0;i<8;i++)
                 ; 0000 04C5 //    {
                 ; 0000 04C6 //        if     (i==0){PORTC.6=0;PORTC.5=0;PORTC.4=0;}
                 ; 0000 04C7 //        else if(i==1){PORTC.6=0;PORTC.5=0;PORTC.4=1;}
                 ; 0000 04C8 //        else if(i==2){PORTC.6=0;PORTC.5=1;PORTC.4=0;}
                 ; 0000 04C9 //        else if(i==3){PORTC.6=0;PORTC.5=1;PORTC.4=1;}
                 ; 0000 04CA //        else if(i==4){PORTC.6=1;PORTC.5=0;PORTC.4=0;}
                 ; 0000 04CB //        else if(i==5){PORTC.6=1;PORTC.5=0;PORTC.4=1;}
                 ; 0000 04CC //        else if(i==6){PORTC.6=1;PORTC.5=1;PORTC.4=0;}
                 ; 0000 04CD //        else if(i==7){PORTC.6=1;PORTC.5=1;PORTC.4=1;}
                 ; 0000 04CE //        //adc_result1[i]=read_adc(7);//depan
                 ; 0000 04CF //        adc_result2[i]=read_adc(6);//belakang
                 ; 0000 04D0 //    }
                 ; 0000 04D1 ////adc_result_top=read_adc(1);
                 ; 0000 04D2 //
                 ; 0000 04D3 //for(i=0;i<8;i++)
                 ; 0000 04D4 //    {
                 ; 0000 04D5 //    //if      (adc_result1[i]>adc_tres1[i]){front_sensor=front_sensor|1<<i;}
                 ; 0000 04D6 //    //else if (adc_result1[i]<adc_tres1[i]){front_sensor=front_sensor|0<<i;}
                 ; 0000 04D7 //
                 ; 0000 04D8 //    if      (adc_result2[i]>adc_tres2[i]){rear_sensor=rear_sensor|1<<i;}
                 ; 0000 04D9 //    else if (adc_result2[i]<adc_tres2[i]){rear_sensor=rear_sensor|0<<i;}
                 ; 0000 04DA //    }
                 ; 0000 04DB //
                 ; 0000 04DC //rear_sensor=rear_sensor&0b01111110;
                 ; 0000 04DD //
                 ; 0000 04DE 
                 ; 0000 04DF //strategi 2 berarti mengeksekusi per4an
                 ; 0000 04E0     if(white_line==0)
0009b5 fc26      	SBRC R2,6
0009b6 c03d      	RJMP _0x2B5
                 ; 0000 04E1     {
                 ; 0000 04E2         if(error>=-11&&error<=11)
0009b7 efe5      	LDI  R30,LOW(65525)
0009b8 efff      	LDI  R31,HIGH(65525)
0009b9 16ae      	CP   R10,R30
0009ba 06bf      	CPC  R11,R31
0009bb f02c      	BRLT _0x2B7
0009bc e0eb      	LDI  R30,LOW(11)
0009bd e0f0      	LDI  R31,HIGH(11)
0009be 15ea      	CP   R30,R10
0009bf 05fb      	CPC  R31,R11
0009c0 f40c      	BRGE _0x2B8
                 _0x2B7:
0009c1 c032      	RJMP _0x2B6
                 _0x2B8:
                 ; 0000 04E3         {
                 ; 0000 04E4             if      (rear_sensor==0b00001000){right_back=20;}
0009c2 91a0 01f5 	LDS  R26,_rear_sensor
0009c4 30a8      	CPI  R26,LOW(0x8)
0009c5 f159      	BREQ _0x312
                 ; 0000 04E5             else if (rear_sensor==0b00010000){left_back=20;}
0009c6 31a0      	CPI  R26,LOW(0x10)
0009c7 f421      	BRNE _0x2BB
0009c8 e1e4      	LDI  R30,LOW(20)
0009c9 93e0 01fa 	STS  _left_back,R30
                 ; 0000 04E6             else if (rear_sensor==0b00011000){left_back=20;right_back=20;}
0009cb c028      	RJMP _0x2BC
                 _0x2BB:
0009cc 91a0 01f5 	LDS  R26,_rear_sensor
0009ce 31a8      	CPI  R26,LOW(0x18)
0009cf f0f1      	BREQ _0x313
                 ; 0000 04E7             else if (rear_sensor==0b00000100){right_back=20;}
0009d0 30a4      	CPI  R26,LOW(0x4)
0009d1 f0f9      	BREQ _0x312
                 ; 0000 04E8             else if (rear_sensor==0b00100000){left_back=20;}
0009d2 32a0      	CPI  R26,LOW(0x20)
0009d3 f421      	BRNE _0x2C1
0009d4 e1e4      	LDI  R30,LOW(20)
0009d5 93e0 01fa 	STS  _left_back,R30
                 ; 0000 04E9             else if (rear_sensor==0b00100100){left_back=20;right_back=20;}
0009d7 c01c      	RJMP _0x2C2
                 _0x2C1:
0009d8 91a0 01f5 	LDS  R26,_rear_sensor
0009da 32a4      	CPI  R26,LOW(0x24)
0009db f091      	BREQ _0x313
                 ; 0000 04EA             else if (rear_sensor==0b00000010){right_back=20;}
0009dc 30a2      	CPI  R26,LOW(0x2)
0009dd f099      	BREQ _0x312
                 ; 0000 04EB             else if (rear_sensor==0b01000000){left_back=20;}
0009de 34a0      	CPI  R26,LOW(0x40)
0009df f421      	BRNE _0x2C7
0009e0 e1e4      	LDI  R30,LOW(20)
0009e1 93e0 01fa 	STS  _left_back,R30
                 ; 0000 04EC             //else if (rear_sensor==0b00001100){right_back=8;}
                 ; 0000 04ED             //else if (rear_sensor==0b00110000){left_back=8;}
                 ; 0000 04EE             //else if (rear_sensor==0b00011000){left_back=8;right_back=8;}
                 ; 0000 04EF             //else if (rear_sensor==0b00000110){right_back=8;}
                 ; 0000 04F0             //else if (rear_sensor==0b01100000){left_back=8;}
                 ; 0000 04F1             //else if (rear_sensor==0b01100110){left_back=8;right_back=8;}
                 ; 0000 04F2             else if (rear_sensor==0b01000100){left_back=20;right_back=20;}
0009e3 c010      	RJMP _0x2C8
                 _0x2C7:
0009e4 91a0 01f5 	LDS  R26,_rear_sensor
0009e6 34a4      	CPI  R26,LOW(0x44)
0009e7 f031      	BREQ _0x313
                 ; 0000 04F3             else if (rear_sensor==0b00100010){left_back=20;right_back=20;}
0009e8 32a2      	CPI  R26,LOW(0x22)
0009e9 f021      	BREQ _0x313
                 ; 0000 04F4             else if (rear_sensor==0b00010100){left_back=20;right_back=20;}
0009ea 31a4      	CPI  R26,LOW(0x14)
0009eb f011      	BREQ _0x313
                 ; 0000 04F5             else if (rear_sensor==0b00101000){left_back=20;right_back=20;}
0009ec 32a8      	CPI  R26,LOW(0x28)
0009ed f431      	BRNE _0x2CF
                 _0x313:
0009ee e1e4      	LDI  R30,LOW(20)
0009ef 93e0 01fa 	STS  _left_back,R30
                 _0x312:
0009f1 e1e4      	LDI  R30,LOW(20)
0009f2 93e0 01f9 	STS  _right_back,R30
                 ; 0000 04F6         }
                 _0x2CF:
                 _0x2C8:
                 _0x2C2:
                 _0x2BC:
                 ; 0000 04F7     }
                 _0x2B6:
                 ; 0000 04F8 
                 ; 0000 04F9     if(right_back>0)
                 _0x2B5:
0009f4 91a0 01f9 	LDS  R26,_right_back
0009f6 30a1      	CPI  R26,LOW(0x1)
0009f7 f028      	BRLO _0x2D0
                 ; 0000 04FA     {
                 ; 0000 04FB         right_back--;
0009f8 91e0 01f9 	LDS  R30,_right_back
0009fa 50e1      	SUBI R30,LOW(1)
0009fb 93e0 01f9 	STS  _right_back,R30
                 ; 0000 04FC     }
                 ; 0000 04FD 
                 ; 0000 04FE     if(left_back>0)
                 _0x2D0:
0009fd 91a0 01fa 	LDS  R26,_left_back
0009ff 30a1      	CPI  R26,LOW(0x1)
000a00 f028      	BRLO _0x2D1
                 ; 0000 04FF     {
                 ; 0000 0500         left_back--;
000a01 91e0 01fa 	LDS  R30,_left_back
000a03 50e1      	SUBI R30,LOW(1)
000a04 93e0 01fa 	STS  _left_back,R30
                 ; 0000 0501     }
                 ; 0000 0502 
                 ; 0000 0503     if(left_back>0&&right_back>0)
                 _0x2D1:
000a06 91a0 01fa 	LDS  R26,_left_back
000a08 30a1      	CPI  R26,LOW(0x1)
000a09 f020      	BRLO _0x2D3
000a0a 91a0 01f9 	LDS  R26,_right_back
000a0c 30a1      	CPI  R26,LOW(0x1)
000a0d f408      	BRSH _0x2D4
                 _0x2D3:
000a0e c021      	RJMP _0x2D2
                 _0x2D4:
                 ; 0000 0504     {
                 ; 0000 0505         backlight=1;
000a0f 9ac3      	SBI  0x18,3
                 ; 0000 0506         led=0;
000a10 98af      	CBI  0x15,7
                 ; 0000 0507         backlight_on=15;
000a11 e0ef      	LDI  R30,LOW(15)
000a12 93e0 01f7 	STS  _backlight_on,R30
                 ; 0000 0508         led_on=15;
000a14 93e0 01f8 	STS  _led_on,R30
                 ; 0000 0509 
                 ; 0000 050A         if(strategi==2||strategi==4)
000a16 91a0 0175 	LDS  R26,_strategi
000a18 30a2      	CPI  R26,LOW(0x2)
000a19 f011      	BREQ _0x2DA
000a1a 30a4      	CPI  R26,LOW(0x4)
000a1b f411      	BRNE _0x2D9
                 _0x2DA:
                 ; 0000 050B         {
                 ; 0000 050C             if(flag_per4an==0)
000a1c fe30      	SBRS R3,0
                 ; 0000 050D             per4an_handler();
000a1d d9fe      	RCALL _per4an_handler
                 ; 0000 050E         }
                 ; 0000 050F 
                 ; 0000 0510         if(strategi==3)
                 _0x2D9:
000a1e 91a0 0175 	LDS  R26,_strategi
000a20 30a3      	CPI  R26,LOW(0x3)
000a21 f469      	BRNE _0x2DD
                 ; 0000 0511         {
                 ; 0000 0512            if(flag_per4an==0)
000a22 fc30      	SBRC R3,0
000a23 c00b      	RJMP _0x2DE
                 ; 0000 0513            if(white_line==0&&siku>4)
000a24 e0a0      	LDI  R26,0
000a25 fc26      	SBRC R2,6
000a26 e0a1      	LDI  R26,1
000a27 30a0      	CPI  R26,LOW(0x0)
000a28 f421      	BRNE _0x2E0
000a29 91a0 01fd 	LDS  R26,_siku
000a2b 30a5      	CPI  R26,LOW(0x5)
000a2c f408      	BRSH _0x2E1
                 _0x2E0:
000a2d c001      	RJMP _0x2DF
                 _0x2E1:
                 ; 0000 0514            per4an_handler();
000a2e d9ed      	RCALL _per4an_handler
                 ; 0000 0515         }
                 _0x2DF:
                 _0x2DE:
                 ; 0000 0516     }
                 _0x2DD:
                 ; 0000 0517 
                 ; 0000 0518     else if(left_back==0||right_back==0)
000a2f c00a      	RJMP _0x2E2
                 _0x2D2:
000a30 91a0 01fa 	LDS  R26,_left_back
000a32 30a0      	CPI  R26,LOW(0x0)
000a33 f021      	BREQ _0x2E4
000a34 91a0 01f9 	LDS  R26,_right_back
000a36 30a0      	CPI  R26,LOW(0x0)
000a37 f411      	BRNE _0x2E3
                 _0x2E4:
                 ; 0000 0519     {
                 ; 0000 051A         flag_per4an=0;
000a38 94e8      	CLT
000a39 f830      	BLD  R3,0
                 ; 0000 051B     }
                 ; 0000 051C 
                 ; 0000 051D     count=0;
                 _0x2E3:
                 _0x2E2:
000a3a e0e0      	LDI  R30,LOW(0)
000a3b e0f0      	LDI  R31,HIGH(0)
000a3c 93e0 0207 	STS  _count,R30
000a3e 93f0 0208 	STS  _count+1,R31
                 ; 0000 051E }
000a40 91e9      	LD   R30,Y+
000a41 bfef      	OUT  SREG,R30
000a42 91f9      	LD   R31,Y+
000a43 91e9      	LD   R30,Y+
000a44 91b9      	LD   R27,Y+
000a45 91a9      	LD   R26,Y+
000a46 9199      	LD   R25,Y+
000a47 9189      	LD   R24,Y+
000a48 9179      	LD   R23,Y+
000a49 9169      	LD   R22,Y+
000a4a 90f9      	LD   R15,Y+
000a4b 9019      	LD   R1,Y+
000a4c 9009      	LD   R0,Y+
000a4d 9518      	RETI
                 ;
                 ;
                 ;////--------Routine Menghitung Langkah kanan------//
                 ;////--------Routine Menghitung Langkah kanan------//
                 ;interrupt [EXT_INT0] void ext_int0_isr(void)
                 ; 0000 0524 {
                 _ext_int0_isr:
000a4e 93aa      	ST   -Y,R26
000a4f 93ba      	ST   -Y,R27
000a50 93ea      	ST   -Y,R30
000a51 93fa      	ST   -Y,R31
000a52 b7ef      	IN   R30,SREG
000a53 93ea      	ST   -Y,R30
                 ; 0000 0525     langkah_kanan++; langkah++;
000a54 e0a9      	LDI  R26,LOW(_langkah_kanan)
000a55 e0b2      	LDI  R27,HIGH(_langkah_kanan)
000a56 940e 0ed4 	CALL SUBOPT_0x25
000a58 e0ad      	LDI  R26,LOW(_langkah)
000a59 e0b2      	LDI  R27,HIGH(_langkah)
000a5a 940e 0ed4 	CALL SUBOPT_0x25
                 ; 0000 0526 
                 ; 0000 0527     if(langkah<step)
000a5c 91e0 020f 	LDS  R30,_step
000a5e 91f0 0210 	LDS  R31,_step+1
000a60 91a0 020d 	LDS  R26,_langkah
000a62 91b0 020e 	LDS  R27,_langkah+1
000a64 17ae      	CP   R26,R30
000a65 07bf      	CPC  R27,R31
000a66 f470      	BRSH _0x2E6
                 ; 0000 0528     {
                 ; 0000 0529         led=0;
000a67 98af      	CBI  0x15,7
                 ; 0000 052A         led_on=3;
000a68 e0e3      	LDI  R30,LOW(3)
000a69 93e0 01f8 	STS  _led_on,R30
                 ; 0000 052B         speed=speed+20;
000a6b 01f3      	MOVW R30,R6
000a6c 9674      	ADIW R30,20
000a6d 013f      	MOVW R6,R30
                 ; 0000 052C         if(speed>255)speed=255;
000a6e efef      	LDI  R30,LOW(255)
000a6f e0f0      	LDI  R31,HIGH(255)
000a70 15e6      	CP   R30,R6
000a71 05f7      	CPC  R31,R7
000a72 f40c      	BRGE _0x2E9
000a73 013f      	MOVW R6,R30
                 ; 0000 052D     }
                 _0x2E9:
                 ; 0000 052E 
                 ; 0000 052F     else
000a74 c00a      	RJMP _0x2EA
                 _0x2E6:
                 ; 0000 0530     {
                 ; 0000 0531         langkah=0;
000a75 940e 0dbc 	CALL SUBOPT_0x4
                 ; 0000 0532         step=0;
000a77 e0e0      	LDI  R30,LOW(0)
000a78 e0f0      	LDI  R31,HIGH(0)
000a79 93e0 020f 	STS  _step,R30
000a7b 93f0 0210 	STS  _step+1,R31
                 ; 0000 0533         speed=temp_speed;
000a7d 940e 0ec8 	CALL SUBOPT_0x22
                 ; 0000 0534     }
                 _0x2EA:
                 ; 0000 0535 }
000a7f 91e9      	LD   R30,Y+
000a80 bfef      	OUT  SREG,R30
000a81 91f9      	LD   R31,Y+
000a82 91e9      	LD   R30,Y+
000a83 91b9      	LD   R27,Y+
000a84 91a9      	LD   R26,Y+
000a85 9518      	RETI
                 ;
                 ;// interrupt [EXT_INT1] void ext_int1_isr(void)
                 ;// {
                 ;//
                 ;// langkah_kanan++; langkah++;
                 ;//
                 ;// if(langkah<step)
                 ;// {
                 ;//    led=0;
                 ;//    led_on=3;
                 ;//    speed=speed+20;
                 ;//    if(speed>255)speed=255;
                 ;// }
                 ;//
                 ;// else
                 ;// {
                 ;//    langkah=0;
                 ;//    step=0;
                 ;//    speed=temp_speed;
                 ;// }
                 ;//
                 ;//
                 ;// }
                 ;
                 ;
                 ;
                 ;
                 	#ifndef __SLEEP_DEFINED__
                 	#endif
                 
                 	.CSEG
                 _putchar:
000a86 9b5d           sbis usr,udre
000a87 cffe           rjmp _putchar
000a88 81e8           ld   r30,y
000a89 b9ec           out  udr,r30
000a8a 940c 0d91 	JMP  _0x20C0001
                 __put_G100:
000a8c 931a      	ST   -Y,R17
000a8d 930a      	ST   -Y,R16
000a8e 81ac      	LDD  R26,Y+4
000a8f 81bd      	LDD  R27,Y+4+1
000a90 940e 1038 	CALL __GETW1P
000a92 9730      	SBIW R30,0
000a93 f0c1      	BREQ _0x2000010
000a94 81aa      	LDD  R26,Y+2
000a95 81bb      	LDD  R27,Y+2+1
000a96 940e 1038 	CALL __GETW1P
000a98 018f      	MOVW R16,R30
000a99 9730      	SBIW R30,0
000a9a f049      	BREQ _0x2000012
                +
000a9b 3002     +CPI R16 , LOW ( 2 )
000a9c e0e0     +LDI R30 , HIGH ( 2 )
000a9d 071e     +CPC R17 , R30
                 	__CPWRN 16,17,2
000a9e f060      	BRLO _0x2000013
000a9f 01f8      	MOVW R30,R16
000aa0 9731      	SBIW R30,1
000aa1 018f      	MOVW R16,R30
000aa2 93ed      	ST   X+,R30
000aa3 93fc      	ST   X,R31
                 _0x2000012:
000aa4 81ac      	LDD  R26,Y+4
000aa5 81bd      	LDD  R27,Y+4+1
000aa6 940e 0ed4 	CALL SUBOPT_0x25
000aa8 9731      	SBIW R30,1
000aa9 81ae      	LDD  R26,Y+6
000aaa 83a0      	STD  Z+0,R26
                 _0x2000013:
000aab c003      	RJMP _0x2000014
                 _0x2000010:
000aac 81ee      	LDD  R30,Y+6
000aad 93ea      	ST   -Y,R30
000aae dfd7      	RCALL _putchar
                 _0x2000014:
000aaf 8119      	LDD  R17,Y+1
000ab0 8108      	LDD  R16,Y+0
000ab1 9627      	ADIW R28,7
000ab2 9508      	RET
                 __print_G100:
000ab3 9726      	SBIW R28,6
000ab4 940e 107a 	CALL __SAVELOCR6
000ab6 e010      	LDI  R17,0
                 _0x2000015:
000ab7 89ea      	LDD  R30,Y+18
000ab8 89fb      	LDD  R31,Y+18+1
000ab9 9631      	ADIW R30,1
000aba 8bea      	STD  Y+18,R30
000abb 8bfb      	STD  Y+18+1,R31
000abc 9731      	SBIW R30,1
000abd 91e4      	LPM  R30,Z
000abe 2f2e      	MOV  R18,R30
000abf 30e0      	CPI  R30,0
000ac0 f411      	BRNE PC+3
000ac1 940c 0c64 	JMP _0x2000017
000ac3 2fe1      	MOV  R30,R17
000ac4 e0f0      	LDI  R31,0
000ac5 9730      	SBIW R30,0
000ac6 f439      	BRNE _0x200001B
000ac7 3225      	CPI  R18,37
000ac8 f411      	BRNE _0x200001C
000ac9 e011      	LDI  R17,LOW(1)
000aca c002      	RJMP _0x200001D
                 _0x200001C:
000acb 940e 0f83 	CALL SUBOPT_0x3A
                 _0x200001D:
000acd c195      	RJMP _0x200001A
                 _0x200001B:
000ace 30e1      	CPI  R30,LOW(0x1)
000acf e0a0      	LDI  R26,HIGH(0x1)
000ad0 07fa      	CPC  R31,R26
000ad1 f4a9      	BRNE _0x200001E
000ad2 3225      	CPI  R18,37
000ad3 f419      	BRNE _0x200001F
000ad4 940e 0f83 	CALL SUBOPT_0x3A
000ad6 c18b      	RJMP _0x20000BC
                 _0x200001F:
000ad7 e012      	LDI  R17,LOW(2)
000ad8 e040      	LDI  R20,LOW(0)
000ad9 e000      	LDI  R16,LOW(0)
000ada 322d      	CPI  R18,45
000adb f411      	BRNE _0x2000020
000adc e001      	LDI  R16,LOW(1)
000add c185      	RJMP _0x200001A
                 _0x2000020:
000ade 322b      	CPI  R18,43
000adf f411      	BRNE _0x2000021
000ae0 e24b      	LDI  R20,LOW(43)
000ae1 c181      	RJMP _0x200001A
                 _0x2000021:
000ae2 3220      	CPI  R18,32
000ae3 f411      	BRNE _0x2000022
000ae4 e240      	LDI  R20,LOW(32)
000ae5 c17d      	RJMP _0x200001A
                 _0x2000022:
000ae6 c004      	RJMP _0x2000023
                 _0x200001E:
000ae7 30e2      	CPI  R30,LOW(0x2)
000ae8 e0a0      	LDI  R26,HIGH(0x2)
000ae9 07fa      	CPC  R31,R26
000aea f461      	BRNE _0x2000024
                 _0x2000023:
000aeb e050      	LDI  R21,LOW(0)
000aec e013      	LDI  R17,LOW(3)
000aed 3320      	CPI  R18,48
000aee f439      	BRNE _0x2000025
000aef 940e 0f8e 	CALL SUBOPT_0x3B
000af1 e8e0      	LDI  R30,LOW(128)
000af2 e0f0      	LDI  R31,HIGH(128)
000af3 2bea      	OR   R30,R26
000af4 2f0e      	MOV  R16,R30
000af5 c16d      	RJMP _0x200001A
                 _0x2000025:
000af6 c006      	RJMP _0x2000026
                 _0x2000024:
000af7 30e3      	CPI  R30,LOW(0x3)
000af8 e0a0      	LDI  R26,HIGH(0x3)
000af9 07fa      	CPC  R31,R26
000afa f011      	BREQ PC+3
000afb 940c 0c63 	JMP _0x200001A
                 _0x2000026:
000afd 3320      	CPI  R18,48
000afe f010      	BRLO _0x2000029
000aff 332a      	CPI  R18,58
000b00 f008      	BRLO _0x200002A
                 _0x2000029:
000b01 c015      	RJMP _0x2000028
                 _0x200002A:
000b02 2fa5      	MOV  R26,R21
000b03 e0b0      	LDI  R27,0
000b04 e0ea      	LDI  R30,LOW(10)
000b05 e0f0      	LDI  R31,HIGH(10)
000b06 02ea      	MULS R30,R26
000b07 01f0      	MOVW R30,R0
000b08 2f5e      	MOV  R21,R30
000b09 2f65      	MOV  R22,R21
000b0a 2777      	CLR  R23
000b0b 2fa2      	MOV  R26,R18
000b0c e0b0      	LDI  R27,0
000b0d e3e0      	LDI  R30,LOW(48)
000b0e e0f0      	LDI  R31,HIGH(48)
000b0f 940e 1045 	CALL __SWAPW12
000b11 1bea      	SUB  R30,R26
000b12 0bfb      	SBC  R31,R27
000b13 01db      	MOVW R26,R22
000b14 0fea      	ADD  R30,R26
000b15 2f5e      	MOV  R21,R30
000b16 c14c      	RJMP _0x200001A
                 _0x2000028:
000b17 940e 0f91 	CALL SUBOPT_0x3C
000b19 36e3      	CPI  R30,LOW(0x63)
000b1a e0a0      	LDI  R26,HIGH(0x63)
000b1b 07fa      	CPC  R31,R26
000b1c f449      	BRNE _0x200002E
000b1d 940e 0f94 	CALL SUBOPT_0x3D
000b1f 89e8      	LDD  R30,Y+16
000b20 89f9      	LDD  R31,Y+16+1
000b21 81a4      	LDD  R26,Z+4
000b22 93aa      	ST   -Y,R26
000b23 940e 0f9a 	CALL SUBOPT_0x3E
000b25 c13c      	RJMP _0x200002F
                 _0x200002E:
000b26 37e3      	CPI  R30,LOW(0x73)
000b27 e0a0      	LDI  R26,HIGH(0x73)
000b28 07fa      	CPC  R31,R26
000b29 f441      	BRNE _0x2000031
000b2a 940e 0f94 	CALL SUBOPT_0x3D
000b2c 940e 0fa4 	CALL SUBOPT_0x3F
000b2e 940e 0d93 	CALL _strlen
000b30 2f1e      	MOV  R17,R30
000b31 c011      	RJMP _0x2000032
                 _0x2000031:
000b32 37e0      	CPI  R30,LOW(0x70)
000b33 e0a0      	LDI  R26,HIGH(0x70)
000b34 07fa      	CPC  R31,R26
000b35 f4d9      	BRNE _0x2000034
000b36 940e 0f94 	CALL SUBOPT_0x3D
000b38 940e 0fa4 	CALL SUBOPT_0x3F
000b3a 940e 0d9d 	CALL _strlenf
000b3c 2f1e      	MOV  R17,R30
000b3d 940e 0f8e 	CALL SUBOPT_0x3B
000b3f e0e8      	LDI  R30,LOW(8)
000b40 e0f0      	LDI  R31,HIGH(8)
000b41 2bea      	OR   R30,R26
000b42 2f0e      	MOV  R16,R30
                 _0x2000032:
000b43 940e 0f8e 	CALL SUBOPT_0x3B
000b45 e0e2      	LDI  R30,LOW(2)
000b46 e0f0      	LDI  R31,HIGH(2)
000b47 2bea      	OR   R30,R26
000b48 2f0e      	MOV  R16,R30
000b49 940e 0f8e 	CALL SUBOPT_0x3B
000b4b e7ef      	LDI  R30,LOW(65407)
000b4c efff      	LDI  R31,HIGH(65407)
000b4d 23ea      	AND  R30,R26
000b4e 2f0e      	MOV  R16,R30
000b4f e030      	LDI  R19,LOW(0)
000b50 c04f      	RJMP _0x2000035
                 _0x2000034:
000b51 36e4      	CPI  R30,LOW(0x64)
000b52 e0a0      	LDI  R26,HIGH(0x64)
000b53 07fa      	CPC  R31,R26
000b54 f021      	BREQ _0x2000038
000b55 36e9      	CPI  R30,LOW(0x69)
000b56 e0a0      	LDI  R26,HIGH(0x69)
000b57 07fa      	CPC  R31,R26
000b58 f439      	BRNE _0x2000039
                 _0x2000038:
000b59 940e 0f8e 	CALL SUBOPT_0x3B
000b5b e0e4      	LDI  R30,LOW(4)
000b5c e0f0      	LDI  R31,HIGH(4)
000b5d 2bea      	OR   R30,R26
000b5e 2f0e      	MOV  R16,R30
000b5f c004      	RJMP _0x200003A
                 _0x2000039:
000b60 37e5      	CPI  R30,LOW(0x75)
000b61 e0a0      	LDI  R26,HIGH(0x75)
000b62 07fa      	CPC  R31,R26
000b63 f431      	BRNE _0x200003B
                 _0x200003A:
000b64 e5e4      	LDI  R30,LOW(_tbl10_G100*2)
000b65 e0f0      	LDI  R31,HIGH(_tbl10_G100*2)
000b66 83ee      	STD  Y+6,R30
000b67 83ff      	STD  Y+6+1,R31
000b68 e015      	LDI  R17,LOW(5)
000b69 c016      	RJMP _0x200003C
                 _0x200003B:
000b6a 35e8      	CPI  R30,LOW(0x58)
000b6b e0a0      	LDI  R26,HIGH(0x58)
000b6c 07fa      	CPC  R31,R26
000b6d f439      	BRNE _0x200003E
000b6e 940e 0f8e 	CALL SUBOPT_0x3B
000b70 e0e8      	LDI  R30,LOW(8)
000b71 e0f0      	LDI  R31,HIGH(8)
000b72 2bea      	OR   R30,R26
000b73 2f0e      	MOV  R16,R30
000b74 c006      	RJMP _0x200003F
                 _0x200003E:
000b75 37e8      	CPI  R30,LOW(0x78)
000b76 e0a0      	LDI  R26,HIGH(0x78)
000b77 07fa      	CPC  R31,R26
000b78 f011      	BREQ PC+3
000b79 940c 0c62 	JMP _0x2000070
                 _0x200003F:
000b7b e5ee      	LDI  R30,LOW(_tbl16_G100*2)
000b7c e0f0      	LDI  R31,HIGH(_tbl16_G100*2)
000b7d 83ee      	STD  Y+6,R30
000b7e 83ff      	STD  Y+6+1,R31
000b7f e014      	LDI  R17,LOW(4)
                 _0x200003C:
000b80 940e 0f8e 	CALL SUBOPT_0x3B
000b82 940e 0fae 	CALL SUBOPT_0x40
000b84 f0b9      	BREQ _0x2000041
000b85 940e 0f94 	CALL SUBOPT_0x3D
000b87 940e 0fb4 	CALL SUBOPT_0x41
000b89 85ab      	LDD  R26,Y+11
000b8a 23aa      	TST  R26
000b8b f43a      	BRPL _0x2000042
000b8c 85ea      	LDD  R30,Y+10
000b8d 85fb      	LDD  R31,Y+10+1
000b8e 940e 0fe0 	CALL __ANEGW1
000b90 87ea      	STD  Y+10,R30
000b91 87fb      	STD  Y+10+1,R31
000b92 e24d      	LDI  R20,LOW(45)
                 _0x2000042:
000b93 3040      	CPI  R20,0
000b94 f011      	BREQ _0x2000043
000b95 5f1f      	SUBI R17,-LOW(1)
000b96 c004      	RJMP _0x2000044
                 _0x2000043:
000b97 940e 0f8e 	CALL SUBOPT_0x3B
000b99 940e 0fbc 	CALL SUBOPT_0x42
                 _0x2000044:
000b9b c004      	RJMP _0x2000045
                 _0x2000041:
000b9c 940e 0f94 	CALL SUBOPT_0x3D
000b9e 940e 0fb4 	CALL SUBOPT_0x41
                 _0x2000045:
                 _0x2000035:
000ba0 940e 0fc1 	CALL SUBOPT_0x43
000ba2 f4e9      	BRNE _0x2000046
                 _0x2000047:
000ba3 1715      	CP   R17,R21
000ba4 f4d8      	BRSH _0x2000049
000ba5 940e 0f8e 	CALL SUBOPT_0x3B
000ba7 e8e0      	LDI  R30,LOW(128)
000ba8 e0f0      	LDI  R31,HIGH(128)
000ba9 23ea      	AND  R30,R26
000baa 23fb      	AND  R31,R27
000bab 9730      	SBIW R30,0
000bac f071      	BREQ _0x200004A
000bad 940e 0f8e 	CALL SUBOPT_0x3B
000baf 940e 0fae 	CALL SUBOPT_0x40
000bb1 f039      	BREQ _0x200004B
000bb2 940e 0f8e 	CALL SUBOPT_0x3B
000bb4 940e 0fbc 	CALL SUBOPT_0x42
000bb6 2f24      	MOV  R18,R20
000bb7 5011      	SUBI R17,LOW(1)
000bb8 c001      	RJMP _0x200004C
                 _0x200004B:
000bb9 e320      	LDI  R18,LOW(48)
                 _0x200004C:
000bba c001      	RJMP _0x200004D
                 _0x200004A:
000bbb e220      	LDI  R18,LOW(32)
                 _0x200004D:
000bbc 940e 0f83 	CALL SUBOPT_0x3A
000bbe 5051      	SUBI R21,LOW(1)
000bbf cfe3      	RJMP _0x2000047
                 _0x2000049:
                 _0x2000046:
000bc0 2f31      	MOV  R19,R17
000bc1 940e 0f8e 	CALL SUBOPT_0x3B
000bc3 e0e2      	LDI  R30,LOW(2)
000bc4 e0f0      	LDI  R31,HIGH(2)
000bc5 23ea      	AND  R30,R26
000bc6 23fb      	AND  R31,R27
000bc7 9730      	SBIW R30,0
000bc8 f101      	BREQ _0x200004E
                 _0x200004F:
000bc9 3030      	CPI  R19,0
000bca f0e9      	BREQ _0x2000051
000bcb 940e 0f8e 	CALL SUBOPT_0x3B
000bcd e0e8      	LDI  R30,LOW(8)
000bce e0f0      	LDI  R31,HIGH(8)
000bcf 23ea      	AND  R30,R26
000bd0 23fb      	AND  R31,R27
000bd1 9730      	SBIW R30,0
000bd2 f041      	BREQ _0x2000052
000bd3 81ee      	LDD  R30,Y+6
000bd4 81ff      	LDD  R31,Y+6+1
000bd5 9631      	ADIW R30,1
000bd6 83ee      	STD  Y+6,R30
000bd7 83ff      	STD  Y+6+1,R31
000bd8 9731      	SBIW R30,1
000bd9 91e4      	LPM  R30,Z
000bda c005      	RJMP _0x20000BD
                 _0x2000052:
000bdb 81ae      	LDD  R26,Y+6
000bdc 81bf      	LDD  R27,Y+6+1
000bdd 91ed      	LD   R30,X+
000bde 83ae      	STD  Y+6,R26
000bdf 83bf      	STD  Y+6+1,R27
                 _0x20000BD:
000be0 93ea      	ST   -Y,R30
000be1 940e 0f9a 	CALL SUBOPT_0x3E
000be3 3050      	CPI  R21,0
000be4 f009      	BREQ _0x2000054
000be5 5051      	SUBI R21,LOW(1)
                 _0x2000054:
000be6 5031      	SUBI R19,LOW(1)
000be7 cfe1      	RJMP _0x200004F
                 _0x2000051:
000be8 c06e      	RJMP _0x2000055
                 _0x200004E:
                 _0x2000057:
000be9 e320      	LDI  R18,LOW(48)
000bea 81ee      	LDD  R30,Y+6
000beb 81ff      	LDD  R31,Y+6+1
000bec 940e 103c 	CALL __GETW1PF
000bee 87e8      	STD  Y+8,R30
000bef 87f9      	STD  Y+8+1,R31
000bf0 81ee      	LDD  R30,Y+6
000bf1 81ff      	LDD  R31,Y+6+1
000bf2 9632      	ADIW R30,2
000bf3 83ee      	STD  Y+6,R30
000bf4 83ff      	STD  Y+6+1,R31
                 _0x2000059:
000bf5 85e8      	LDD  R30,Y+8
000bf6 85f9      	LDD  R31,Y+8+1
000bf7 85aa      	LDD  R26,Y+10
000bf8 85bb      	LDD  R27,Y+10+1
000bf9 17ae      	CP   R26,R30
000bfa 07bf      	CPC  R27,R31
000bfb f050      	BRLO _0x200005B
000bfc 5f2f      	SUBI R18,-LOW(1)
000bfd 85a8      	LDD  R26,Y+8
000bfe 85b9      	LDD  R27,Y+8+1
000bff 85ea      	LDD  R30,Y+10
000c00 85fb      	LDD  R31,Y+10+1
000c01 1bea      	SUB  R30,R26
000c02 0bfb      	SBC  R31,R27
000c03 87ea      	STD  Y+10,R30
000c04 87fb      	STD  Y+10+1,R31
000c05 cfef      	RJMP _0x2000059
                 _0x200005B:
000c06 332a      	CPI  R18,58
000c07 f080      	BRLO _0x200005C
000c08 940e 0f8e 	CALL SUBOPT_0x3B
000c0a e0e8      	LDI  R30,LOW(8)
000c0b e0f0      	LDI  R31,HIGH(8)
000c0c 23ea      	AND  R30,R26
000c0d 23fb      	AND  R31,R27
000c0e 9730      	SBIW R30,0
000c0f f021      	BREQ _0x200005D
000c10 940e 0f91 	CALL SUBOPT_0x3C
000c12 9637      	ADIW R30,7
000c13 c003      	RJMP _0x20000BE
                 _0x200005D:
000c14 940e 0f91 	CALL SUBOPT_0x3C
000c16 96b7      	ADIW R30,39
                 _0x20000BE:
000c17 2f2e      	MOV  R18,R30
                 _0x200005C:
000c18 940e 0f8e 	CALL SUBOPT_0x3B
000c1a e1e0      	LDI  R30,LOW(16)
000c1b e0f0      	LDI  R31,HIGH(16)
000c1c 23ea      	AND  R30,R26
000c1d 23fb      	AND  R31,R27
000c1e 9730      	SBIW R30,0
000c1f f561      	BRNE _0x2000060
000c20 3321      	CPI  R18,49
000c21 f420      	BRSH _0x2000062
000c22 85a8      	LDD  R26,Y+8
000c23 85b9      	LDD  R27,Y+8+1
000c24 9711      	SBIW R26,1
000c25 f409      	BRNE _0x2000061
                 _0x2000062:
000c26 c010      	RJMP _0x20000BF
                 _0x2000061:
000c27 1753      	CP   R21,R19
000c28 f018      	BRLO _0x2000066
000c29 940e 0fc1 	CALL SUBOPT_0x43
000c2b f009      	BREQ _0x2000067
                 _0x2000066:
000c2c c024      	RJMP _0x2000065
                 _0x2000067:
000c2d e220      	LDI  R18,LOW(32)
000c2e 940e 0f8e 	CALL SUBOPT_0x3B
000c30 e8e0      	LDI  R30,LOW(128)
000c31 e0f0      	LDI  R31,HIGH(128)
000c32 23ea      	AND  R30,R26
000c33 23fb      	AND  R31,R27
000c34 9730      	SBIW R30,0
000c35 f0b1      	BREQ _0x2000068
000c36 e320      	LDI  R18,LOW(48)
                 _0x20000BF:
000c37 2fa0      	MOV  R26,R16
000c38 e0b0      	LDI  R27,0
000c39 e1e0      	LDI  R30,LOW(16)
000c3a e0f0      	LDI  R31,HIGH(16)
000c3b 2bea      	OR   R30,R26
000c3c 2f0e      	MOV  R16,R30
000c3d 940e 0f8e 	CALL SUBOPT_0x3B
000c3f 940e 0fae 	CALL SUBOPT_0x40
000c41 f051      	BREQ _0x2000069
000c42 940e 0f8e 	CALL SUBOPT_0x3B
000c44 940e 0fbc 	CALL SUBOPT_0x42
000c46 934a      	ST   -Y,R20
000c47 940e 0f9a 	CALL SUBOPT_0x3E
000c49 3050      	CPI  R21,0
000c4a f009      	BREQ _0x200006A
000c4b 5051      	SUBI R21,LOW(1)
                 _0x200006A:
                 _0x2000069:
                 _0x2000068:
                 _0x2000060:
000c4c 940e 0f83 	CALL SUBOPT_0x3A
000c4e 3050      	CPI  R21,0
000c4f f009      	BREQ _0x200006B
000c50 5051      	SUBI R21,LOW(1)
                 _0x200006B:
                 _0x2000065:
000c51 5031      	SUBI R19,LOW(1)
000c52 85a8      	LDD  R26,Y+8
000c53 85b9      	LDD  R27,Y+8+1
000c54 9712      	SBIW R26,2
000c55 f008      	BRLO _0x2000058
000c56 cf92      	RJMP _0x2000057
                 _0x2000058:
                 _0x2000055:
000c57 940e 0fc1 	CALL SUBOPT_0x43
000c59 f041      	BREQ _0x200006C
                 _0x200006D:
000c5a 3050      	CPI  R21,0
000c5b f031      	BREQ _0x200006F
000c5c 5051      	SUBI R21,LOW(1)
000c5d e2e0      	LDI  R30,LOW(32)
000c5e 93ea      	ST   -Y,R30
000c5f 940e 0f9a 	CALL SUBOPT_0x3E
000c61 cff8      	RJMP _0x200006D
                 _0x200006F:
                 _0x200006C:
                 _0x2000070:
                 _0x200002F:
                 _0x20000BC:
000c62 e010      	LDI  R17,LOW(0)
                 _0x200001A:
000c63 ce53      	RJMP _0x2000015
                 _0x2000017:
000c64 940e 1081 	CALL __LOADLOCR6
000c66 9664      	ADIW R28,20
000c67 9508      	RET
                 _sprintf:
000c68 92ff      	PUSH R15
000c69 2ef8      	MOV  R15,R24
000c6a 9722      	SBIW R28,2
000c6b 931a      	ST   -Y,R17
000c6c 930a      	ST   -Y,R16
000c6d 01de      	MOVW R26,R28
000c6e 940e 0fdc 	CALL __ADDW2R15
000c70 018d      	MOVW R16,R26
000c71 01de      	MOVW R26,R28
000c72 9616      	ADIW R26,6
000c73 940e 0fdc 	CALL __ADDW2R15
000c75 940e 1038 	CALL __GETW1P
000c77 83ea      	STD  Y+2,R30
000c78 83fb      	STD  Y+2+1,R31
000c79 01de      	MOVW R26,R28
000c7a 9614      	ADIW R26,4
000c7b 940e 0fdc 	CALL __ADDW2R15
000c7d 940e 1038 	CALL __GETW1P
000c7f 93fa      	ST   -Y,R31
000c80 93ea      	ST   -Y,R30
000c81 931a      	ST   -Y,R17
000c82 930a      	ST   -Y,R16
000c83 01fe      	MOVW R30,R28
000c84 9636      	ADIW R30,6
000c85 93fa      	ST   -Y,R31
000c86 93ea      	ST   -Y,R30
000c87 e0e0      	LDI  R30,LOW(0)
000c88 e0f0      	LDI  R31,HIGH(0)
000c89 93fa      	ST   -Y,R31
000c8a 93ea      	ST   -Y,R30
000c8b de27      	RCALL __print_G100
000c8c 81aa      	LDD  R26,Y+2
000c8d 81bb      	LDD  R27,Y+2+1
000c8e e0e0      	LDI  R30,LOW(0)
000c8f 93ec      	ST   X,R30
000c90 8119      	LDD  R17,Y+1
000c91 8108      	LDD  R16,Y+0
000c92 9624      	ADIW R28,4
000c93 90ff      	POP  R15
000c94 9508      	RET
                 
                 	.CSEG
                 
                 	.CSEG
                 
                 	.DSEG
                 
                 	.CSEG
                     .equ __lcd_direction=__lcd_port-1
                     .equ __lcd_pin=__lcd_port-2
                     .equ __lcd_rs=0
                     .equ __lcd_rd=1
                     .equ __lcd_enable=2
                     .equ __lcd_busy_flag=7
                 
                 	.DSEG
                 
                 	.CSEG
                 __lcd_delay_G103:
000c95 e0ff          ldi   r31,15
                 __lcd_delay0:
000c96 95fa          dec   r31
000c97 f7f1          brne  __lcd_delay0
000c98 9508      	RET
                 __lcd_ready:
000c99 b3a7          in    r26,__lcd_direction
000c9a 70af          andi  r26,0xf                 ;set as input
000c9b bba7          out   __lcd_direction,r26
000c9c 9ac1          sbi   __lcd_port,__lcd_rd     ;RD=1
000c9d 98c0          cbi   __lcd_port,__lcd_rs     ;RS=0
                 __lcd_busy:
000c9e dff6      	RCALL __lcd_delay_G103
000c9f 9ac2          sbi   __lcd_port,__lcd_enable ;EN=1
000ca0 dff4      	RCALL __lcd_delay_G103
000ca1 b3a6          in    r26,__lcd_pin
000ca2 98c2          cbi   __lcd_port,__lcd_enable ;EN=0
000ca3 dff1      	RCALL __lcd_delay_G103
000ca4 9ac2          sbi   __lcd_port,__lcd_enable ;EN=1
000ca5 dfef      	RCALL __lcd_delay_G103
000ca6 98c2          cbi   __lcd_port,__lcd_enable ;EN=0
000ca7 fda7          sbrc  r26,__lcd_busy_flag
000ca8 cff5          rjmp  __lcd_busy
000ca9 9508      	RET
                 __lcd_write_nibble_G103:
000caa 7fa0          andi  r26,0xf0
000cab 2bab          or    r26,r27
000cac bba8          out   __lcd_port,r26          ;write
000cad 9ac2          sbi   __lcd_port,__lcd_enable ;EN=1
000cae 940e 0c95 	CALL __lcd_delay_G103
000cb0 98c2          cbi   __lcd_port,__lcd_enable ;EN=0
000cb1 940e 0c95 	CALL __lcd_delay_G103
000cb3 9508      	RET
                 __lcd_write_data:
000cb4 98c1          cbi  __lcd_port,__lcd_rd 	  ;RD=0
000cb5 b3a7          in    r26,__lcd_direction
000cb6 6fa7          ori   r26,0xf0 | (1<<__lcd_rs) | (1<<__lcd_rd) | (1<<__lcd_enable) ;set as output
000cb7 bba7          out   __lcd_direction,r26
000cb8 b3b8          in    r27,__lcd_port
000cb9 70bf          andi  r27,0xf
000cba 81a8          ld    r26,y
000cbb dfee      	RCALL __lcd_write_nibble_G103
000cbc 81a8          ld    r26,y
000cbd 95a2          swap  r26
000cbe dfeb      	RCALL __lcd_write_nibble_G103
000cbf 9ac1          sbi   __lcd_port,__lcd_rd     ;RD=1
000cc0 940c 0d91 	JMP  _0x20C0001
                 __lcd_read_nibble_G103:
000cc2 9ac2          sbi   __lcd_port,__lcd_enable ;EN=1
000cc3 940e 0c95 	CALL __lcd_delay_G103
000cc5 b3e6          in    r30,__lcd_pin           ;read
000cc6 98c2          cbi   __lcd_port,__lcd_enable ;EN=0
000cc7 940e 0c95 	CALL __lcd_delay_G103
000cc9 7fe0          andi  r30,0xf0
000cca 9508      	RET
                 _lcd_read_byte0_G103:
000ccb 940e 0c95 	CALL __lcd_delay_G103
000ccd dff4      	RCALL __lcd_read_nibble_G103
000cce 2fae          mov   r26,r30
000ccf dff2      	RCALL __lcd_read_nibble_G103
000cd0 98c1          cbi   __lcd_port,__lcd_rd     ;RD=0
000cd1 95e2          swap  r30
000cd2 2bea          or    r30,r26
000cd3 9508      	RET
                 _lcd_gotoxy:
000cd4 940e 0c99 	CALL __lcd_ready
000cd6 940e 0da8 	CALL SUBOPT_0x0
000cd8 5ee9      	SUBI R30,LOW(-__base_y_G103)
000cd9 4ffd      	SBCI R31,HIGH(-__base_y_G103)
000cda 81e0      	LD   R30,Z
000cdb e0f0      	LDI  R31,0
000cdc 01df      	MOVW R26,R30
000cdd 81e9      	LDD  R30,Y+1
000cde e0f0      	LDI  R31,0
000cdf 0fea      	ADD  R30,R26
000ce0 1ffb      	ADC  R31,R27
000ce1 93ea      	ST   -Y,R30
000ce2 940e 0cb4 	CALL __lcd_write_data
000ce4 81e9      	LDD  R30,Y+1
000ce5 93e0 021b 	STS  __lcd_x,R30
000ce7 81e8      	LD   R30,Y
000ce8 93e0 021c 	STS  __lcd_y,R30
000cea 9622      	ADIW R28,2
000ceb 9508      	RET
                 _lcd_clear:
000cec 940e 0c99 	CALL __lcd_ready
000cee e0e2      	LDI  R30,LOW(2)
000cef 93ea      	ST   -Y,R30
000cf0 940e 0cb4 	CALL __lcd_write_data
000cf2 940e 0c99 	CALL __lcd_ready
000cf4 e0ec      	LDI  R30,LOW(12)
000cf5 93ea      	ST   -Y,R30
000cf6 940e 0cb4 	CALL __lcd_write_data
000cf8 940e 0c99 	CALL __lcd_ready
000cfa e0e1      	LDI  R30,LOW(1)
000cfb 93ea      	ST   -Y,R30
000cfc 940e 0cb4 	CALL __lcd_write_data
000cfe e0e0      	LDI  R30,LOW(0)
000cff 93e0 021c 	STS  __lcd_y,R30
000d01 93e0 021b 	STS  __lcd_x,R30
000d03 9508      	RET
                 _lcd_putchar:
000d04 93ef          push r30
000d05 93ff          push r31
000d06 81a8          ld   r26,y
000d07 9468          set
000d08 30aa          cpi  r26,10
000d09 f061          breq __lcd_putchar1
000d0a 94e8          clt
000d0b 91e0 021b 	LDS  R30,__lcd_x
000d0d 5fef      	SUBI R30,-LOW(1)
000d0e 93e0 021b 	STS  __lcd_x,R30
000d10 91e0 021d 	LDS  R30,__lcd_maxx
000d12 91a0 021b 	LDS  R26,__lcd_x
000d14 17ea      	CP   R30,R26
000d15 f460      	BRSH _0x2060004
                 	__lcd_putchar1:
000d16 91e0 021c 	LDS  R30,__lcd_y
000d18 5fef      	SUBI R30,-LOW(1)
000d19 93e0 021c 	STS  __lcd_y,R30
000d1b e0e0      	LDI  R30,LOW(0)
000d1c 93ea      	ST   -Y,R30
000d1d 91e0 021c 	LDS  R30,__lcd_y
000d1f 93ea      	ST   -Y,R30
000d20 dfb3      	RCALL _lcd_gotoxy
000d21 f02e      	brts __lcd_putchar0
                 _0x2060004:
000d22 df76          rcall __lcd_ready
000d23 9ac0          sbi  __lcd_port,__lcd_rs ;RS=1
000d24 81a8          ld   r26,y
000d25 93aa          st   -y,r26
000d26 df8d          rcall __lcd_write_data
                 __lcd_putchar0:
000d27 91ff          pop  r31
000d28 91ef          pop  r30
000d29 940c 0d91 	JMP  _0x20C0001
                 _lcd_puts:
000d2b 931a      	ST   -Y,R17
                 _0x2060005:
000d2c 81a9      	LDD  R26,Y+1
000d2d 81ba      	LDD  R27,Y+1+1
000d2e 91ed      	LD   R30,X+
000d2f 83a9      	STD  Y+1,R26
000d30 83ba      	STD  Y+1+1,R27
000d31 2f1e      	MOV  R17,R30
000d32 30e0      	CPI  R30,0
000d33 f019      	BREQ _0x2060007
000d34 931a      	ST   -Y,R17
000d35 dfce      	RCALL _lcd_putchar
000d36 cff5      	RJMP _0x2060005
                 _0x2060007:
000d37 c00e      	RJMP _0x20C0002
                 _lcd_putsf:
000d38 931a      	ST   -Y,R17
                 _0x2060008:
000d39 81e9      	LDD  R30,Y+1
000d3a 81fa      	LDD  R31,Y+1+1
000d3b 9631      	ADIW R30,1
000d3c 83e9      	STD  Y+1,R30
000d3d 83fa      	STD  Y+1+1,R31
000d3e 9731      	SBIW R30,1
000d3f 91e4      	LPM  R30,Z
000d40 2f1e      	MOV  R17,R30
000d41 30e0      	CPI  R30,0
000d42 f019      	BREQ _0x206000A
000d43 931a      	ST   -Y,R17
000d44 dfbf      	RCALL _lcd_putchar
000d45 cff3      	RJMP _0x2060008
                 _0x206000A:
                 _0x20C0002:
000d46 8118      	LDD  R17,Y+0
000d47 9623      	ADIW R28,3
000d48 9508      	RET
                 __long_delay_G103:
000d49 27aa          clr   r26
000d4a 27bb          clr   r27
                 __long_delay0:
000d4b 9711          sbiw  r26,1         ;2 cycles
000d4c f7f1          brne  __long_delay0 ;2 cycles
000d4d 9508      	RET
                 __lcd_init_write_G103:
000d4e 98c1          cbi  __lcd_port,__lcd_rd 	  ;RD=0
000d4f b3a7          in    r26,__lcd_direction
000d50 6fa7          ori   r26,0xf7                ;set as output
000d51 bba7          out   __lcd_direction,r26
000d52 b3b8          in    r27,__lcd_port
000d53 70bf          andi  r27,0xf
000d54 81a8          ld    r26,y
000d55 940e 0caa 	CALL __lcd_write_nibble_G103
000d57 9ac1          sbi   __lcd_port,__lcd_rd     ;RD=1
000d58 c038      	RJMP _0x20C0001
                 _lcd_init:
000d59 98c2          cbi   __lcd_port,__lcd_enable ;EN=0
000d5a 98c0          cbi   __lcd_port,__lcd_rs     ;RS=0
000d5b 81e8      	LD   R30,Y
000d5c 93e0 021d 	STS  __lcd_maxx,R30
000d5e 940e 0da8 	CALL SUBOPT_0x0
000d60 58e0      	SUBI R30,LOW(-128)
000d61 4fff      	SBCI R31,HIGH(-128)
                +
000d62 93e0 0219+STS __base_y_G103 + 2 , R30
                 	__PUTB1MN __base_y_G103,2
000d64 940e 0da8 	CALL SUBOPT_0x0
000d66 54e0      	SUBI R30,LOW(-192)
000d67 4fff      	SBCI R31,HIGH(-192)
                +
000d68 93e0 021a+STS __base_y_G103 + 3 , R30
                 	__PUTB1MN __base_y_G103,3
000d6a 940e 0fc5 	CALL SUBOPT_0x44
000d6c 940e 0fc5 	CALL SUBOPT_0x44
000d6e 940e 0fc5 	CALL SUBOPT_0x44
000d70 dfd8      	RCALL __long_delay_G103
000d71 e2e0      	LDI  R30,LOW(32)
000d72 93ea      	ST   -Y,R30
000d73 dfda      	RCALL __lcd_init_write_G103
000d74 dfd4      	RCALL __long_delay_G103
000d75 e2e8      	LDI  R30,LOW(40)
000d76 940e 0fcb 	CALL SUBOPT_0x45
000d78 e0e4      	LDI  R30,LOW(4)
000d79 940e 0fcb 	CALL SUBOPT_0x45
000d7b e8e5      	LDI  R30,LOW(133)
000d7c 940e 0fcb 	CALL SUBOPT_0x45
000d7e b3a7          in    r26,__lcd_direction
000d7f 70af          andi  r26,0xf                 ;set as input
000d80 bba7          out   __lcd_direction,r26
000d81 9ac1          sbi   __lcd_port,__lcd_rd     ;RD=1
000d82 940e 0ccb 	CALL _lcd_read_byte0_G103
000d84 30e5      	CPI  R30,LOW(0x5)
000d85 f011      	BREQ _0x206000B
000d86 e0e0      	LDI  R30,LOW(0)
000d87 c009      	RJMP _0x20C0001
                 _0x206000B:
000d88 940e 0c99 	CALL __lcd_ready
000d8a e0e6      	LDI  R30,LOW(6)
000d8b 93ea      	ST   -Y,R30
000d8c 940e 0cb4 	CALL __lcd_write_data
000d8e 940e 0cec 	CALL _lcd_clear
000d90 e0e1      	LDI  R30,LOW(1)
                 _0x20C0001:
000d91 9621      	ADIW R28,1
000d92 9508      	RET
                 
                 	.CSEG
                 
                 	.CSEG
                 _strlen:
000d93 91a9          ld   r26,y+
000d94 91b9          ld   r27,y+
000d95 27ee          clr  r30
000d96 27ff          clr  r31
                 strlen0:
000d97 916d          ld   r22,x+
000d98 2366          tst  r22
000d99 f011          breq strlen1
000d9a 9631          adiw r30,1
000d9b cffb          rjmp strlen0
                 strlen1:
000d9c 9508          ret
                 _strlenf:
000d9d 27aa          clr  r26
000d9e 27bb          clr  r27
000d9f 91e9          ld   r30,y+
000da0 91f9          ld   r31,y+
                 strlenf0:
000da1 9005          lpm  r0,z+
000da2 2000          tst  r0
000da3 f011          breq strlenf1
000da4 9611          adiw r26,1
000da5 cffb          rjmp strlenf0
                 strlenf1:
000da6 01fd          movw r30,r26
000da7 9508          ret
                 
                 	.DSEG
                 _d_d_error:
000160           	.BYTE 0x2
                 _d_error:
000162           	.BYTE 0x2
                 _min_kp:
000164           	.BYTE 0x2
                 _max_kp:
000166           	.BYTE 0x2
                 _kp:
000168           	.BYTE 0x2
                 _kd:
00016a           	.BYTE 0x2
                 _speed_ka:
00016c           	.BYTE 0x2
                 _speed_ki:
00016e           	.BYTE 0x2
                 _temp_speed:
000170           	.BYTE 0x2
                 _menu:
000172           	.BYTE 0x1
                 _kp_div:
000173           	.BYTE 0x1
                 _menu_slave:
000174           	.BYTE 0x1
                 _strategi:
000175           	.BYTE 0x1
                 _temp_adc_menu:
000176           	.BYTE 0x1
                 _adc_result1:
000177           	.BYTE 0x8
                 _adc_result2:
00017f           	.BYTE 0x8
                 _adc_tres1:
000187           	.BYTE 0x8
                 _adc_tres2:
00018f           	.BYTE 0x8
                 _adc_menu:
000197           	.BYTE 0x1
                 _lcd:
000198           	.BYTE 0x10
                 _max_adc1:
0001a8           	.BYTE 0x8
                 _max_adc2:
0001b0           	.BYTE 0x8
                 _min_adc1:
0001b8           	.BYTE 0x8
                 _min_adc2:
0001c0           	.BYTE 0x8
                 _langkah_cepat:
0001c8           	.BYTE 0x14
                 _langkah_nos:
0001dc           	.BYTE 0x14
                 _boleh_nos:
0001f0           	.BYTE 0x1
                 _i:
0001f1           	.BYTE 0x1
                 _j:
0001f2           	.BYTE 0x1
                 _n:
0001f3           	.BYTE 0x1
                 _front_sensor:
0001f4           	.BYTE 0x1
                 _rear_sensor:
0001f5           	.BYTE 0x1
                 _disp_sensor:
0001f6           	.BYTE 0x1
                 _backlight_on:
0001f7           	.BYTE 0x1
                 _led_on:
0001f8           	.BYTE 0x1
                 _right_back:
0001f9           	.BYTE 0x1
                 _left_back:
0001fa           	.BYTE 0x1
                 _set_per4an:
0001fb           	.BYTE 0x1
                 _per4an:
0001fc           	.BYTE 0x1
                 _siku:
0001fd           	.BYTE 0x1
                 _per4an_dir:
0001fe           	.BYTE 0x6
                 _temp_kp_div:
000204           	.BYTE 0x1
                 _time:
000205           	.BYTE 0x2
                 _count:
000207           	.BYTE 0x2
                 _langkah_kanan:
000209           	.BYTE 0x2
                 _langkah_kiri:
00020b           	.BYTE 0x2
                 _langkah:
00020d           	.BYTE 0x2
                 _step:
00020f           	.BYTE 0x2
                 _sigma_langkah:
000211           	.BYTE 0x2
                 
                 	.ESEG
                 _e_speed:
000000 c8 00     	.DW  0xC8
                 _e_min_kp:
000002 08 00     	.DW  0x8
                 _e_max_kp:
000004 1e 00     	.DW  0x1E
                 _e_adc_tres1:
000006 64
000007 64
000008 64
000009 64        	.DB  LOW(0x64646464),HIGH(0x64646464),BYTE3(0x64646464),BYTE4(0x64646464)
00000a 64
00000b 64
00000c 64
00000d 64        	.DB  LOW(0x64646464),HIGH(0x64646464),BYTE3(0x64646464),BYTE4(0x64646464)
                 _e_adc_tres2:
00000e 64
00000f 64
000010 64
000011 64        	.DB  LOW(0x64646464),HIGH(0x64646464),BYTE3(0x64646464),BYTE4(0x64646464)
000012 64
000013 64
000014 64
000015 64        	.DB  LOW(0x64646464),HIGH(0x64646464),BYTE3(0x64646464),BYTE4(0x64646464)
                 _e_kp_div:
000016 0d        	.DB  0xD
                 _e_per4an_dir:
000017           	.BYTE 0x6
                 _e_per4an_enable:
00001d 00        	.DB  0x0
                 _e_langkah_nos:
00001e           	.BYTE 0x14
                 _e_langkah_cepat:
000032           	.BYTE 0x14
                 
                 	.DSEG
                 __seed_G102:
000213           	.BYTE 0x4
                 __base_y_G103:
000217           	.BYTE 0x4
                 __lcd_x:
00021b           	.BYTE 0x1
                 __lcd_y:
00021c           	.BYTE 0x1
                 __lcd_maxx:
00021d           	.BYTE 0x1
                 _p_S1050024:
00021e           	.BYTE 0x2
                 
                 	.CSEG
                 ;OPTIMIZER ADDED SUBROUTINE, CALLED 4 TIMES, CODE SIZE REDUCTION:3 WORDS
                 SUBOPT_0x0:
000da8 81e8      	LD   R30,Y
000da9 e0f0      	LDI  R31,0
000daa 9508      	RET
                 
                 ;OPTIMIZER ADDED SUBROUTINE, CALLED 3 TIMES, CODE SIZE REDUCTION:1 WORDS
                 SUBOPT_0x1:
000dab b1e6      	IN   R30,0x6
000dac e0f0      	LDI  R31,0
000dad 9508      	RET
                 
                 ;OPTIMIZER ADDED SUBROUTINE, CALLED 2 TIMES, CODE SIZE REDUCTION:1 WORDS
                 SUBOPT_0x2:
000dae e0e0      	LDI  R30,LOW(0)
000daf e0f0      	LDI  R31,HIGH(0)
000db0 93e0 020b 	STS  _langkah_kiri,R30
000db2 93f0 020c 	STS  _langkah_kiri+1,R31
000db4 9508      	RET
                 
                 ;OPTIMIZER ADDED SUBROUTINE, CALLED 3 TIMES, CODE SIZE REDUCTION:5 WORDS
                 SUBOPT_0x3:
000db5 e0e0      	LDI  R30,LOW(0)
000db6 e0f0      	LDI  R31,HIGH(0)
000db7 93e0 0209 	STS  _langkah_kanan,R30
000db9 93f0 020a 	STS  _langkah_kanan+1,R31
000dbb 9508      	RET
                 
                 ;OPTIMIZER ADDED SUBROUTINE, CALLED 3 TIMES, CODE SIZE REDUCTION:5 WORDS
                 SUBOPT_0x4:
000dbc e0e0      	LDI  R30,LOW(0)
000dbd e0f0      	LDI  R31,HIGH(0)
000dbe 93e0 020d 	STS  _langkah,R30
000dc0 93f0 020e 	STS  _langkah+1,R31
000dc2 9508      	RET
                 
                 ;OPTIMIZER ADDED SUBROUTINE, CALLED 29 TIMES, CODE SIZE REDUCTION:81 WORDS
                 SUBOPT_0x5:
000dc3 91e0 01f1 	LDS  R30,_i
000dc5 e0f0      	LDI  R31,0
000dc6 9508      	RET
                 
                 ;OPTIMIZER ADDED SUBROUTINE, CALLED 3 TIMES, CODE SIZE REDUCTION:1 WORDS
                 SUBOPT_0x6:
000dc7 e0e7      	LDI  R30,LOW(7)
000dc8 93ea      	ST   -Y,R30
000dc9 940c 0111 	JMP  _read_adc
                 
                 ;OPTIMIZER ADDED SUBROUTINE, CALLED 17 TIMES, CODE SIZE REDUCTION:45 WORDS
                 SUBOPT_0x7:
000dcb 91e0 01f1 	LDS  R30,_i
000dcd 5fef      	SUBI R30,-LOW(1)
000dce 93e0 01f1 	STS  _i,R30
000dd0 9508      	RET
                 
                 ;OPTIMIZER ADDED SUBROUTINE, CALLED 4 TIMES, CODE SIZE REDUCTION:18 WORDS
                 SUBOPT_0x8:
000dd1 010f      	MOVW R0,R30
000dd2 58e9      	SUBI R30,LOW(-_adc_result1)
000dd3 4ffe      	SBCI R31,HIGH(-_adc_result1)
000dd4 81e0      	LD   R30,Z
000dd5 2fae      	MOV  R26,R30
000dd6 01f0      	MOVW R30,R0
000dd7 57e9      	SUBI R30,LOW(-_adc_tres1)
000dd8 4ffe      	SBCI R31,HIGH(-_adc_tres1)
000dd9 81e0      	LD   R30,Z
000dda 9508      	RET
                 
                 ;OPTIMIZER ADDED SUBROUTINE, CALLED 2 TIMES, CODE SIZE REDUCTION:8 WORDS
                 SUBOPT_0x9:
000ddb 9160 01f4 	LDS  R22,_front_sensor
000ddd 2777      	CLR  R23
000dde 91e0 01f1 	LDS  R30,_i
000de0 e0a1      	LDI  R26,LOW(1)
000de1 940e 0fe4 	CALL __LSLB12
000de3 e0f0      	LDI  R31,0
000de4 01db      	MOVW R26,R22
000de5 2bea      	OR   R30,R26
000de6 9508      	RET
                 
                 ;OPTIMIZER ADDED SUBROUTINE, CALLED 6 TIMES, CODE SIZE REDUCTION:12 WORDS
                 SUBOPT_0xA:
000de7 91e0 01f4 	LDS  R30,_front_sensor
000de9 e0f0      	LDI  R31,0
000dea 9508      	RET
                 
                 ;OPTIMIZER ADDED SUBROUTINE, CALLED 2 TIMES, CODE SIZE REDUCTION:4 WORDS
                 SUBOPT_0xB:
000deb 010f      	MOVW R0,R30
000dec 58e1      	SUBI R30,LOW(-_adc_result2)
000ded 4ffe      	SBCI R31,HIGH(-_adc_result2)
000dee 81e0      	LD   R30,Z
000def 2fae      	MOV  R26,R30
000df0 01f0      	MOVW R30,R0
000df1 57e1      	SUBI R30,LOW(-_adc_tres2)
000df2 4ffe      	SBCI R31,HIGH(-_adc_tres2)
000df3 81e0      	LD   R30,Z
000df4 9508      	RET
                 
                 ;OPTIMIZER ADDED SUBROUTINE, CALLED 4 TIMES, CODE SIZE REDUCTION:6 WORDS
                 SUBOPT_0xC:
000df5 91e0 01f5 	LDS  R30,_rear_sensor
000df7 e0f0      	LDI  R31,0
000df8 9508      	RET
                 
                 ;OPTIMIZER ADDED SUBROUTINE, CALLED 6 TIMES, CODE SIZE REDUCTION:7 WORDS
                 SUBOPT_0xD:
000df9 93e0 016c 	STS  _speed_ka,R30
000dfb 93f0 016d 	STS  _speed_ka+1,R31
000dfd 9508      	RET
                 
                 ;OPTIMIZER ADDED SUBROUTINE, CALLED 8 TIMES, CODE SIZE REDUCTION:11 WORDS
                 SUBOPT_0xE:
000dfe 93e0 016e 	STS  _speed_ki,R30
000e00 93f0 016f 	STS  _speed_ki+1,R31
000e02 9508      	RET
                 
                 ;OPTIMIZER ADDED SUBROUTINE, CALLED 4 TIMES, CODE SIZE REDUCTION:42 WORDS
                 SUBOPT_0xF:
000e03 01df      	MOVW R26,R30
000e04 91e0 01f1 	LDS  R30,_i
000e06 940e 0fec 	CALL __ASRW12
000e08 93e0 01f6 	STS  _disp_sensor,R30
000e0a e0f0      	LDI  R31,0
000e0b 70e1      	ANDI R30,LOW(0x1)
000e0c 93e0 01f6 	STS  _disp_sensor,R30
000e0e cfb4      	RJMP SUBOPT_0x5
                 
                 ;OPTIMIZER ADDED SUBROUTINE, CALLED 4 TIMES, CODE SIZE REDUCTION:21 WORDS
                 SUBOPT_0x10:
000e0f e0a7      	LDI  R26,LOW(7)
000e10 e0b0      	LDI  R27,HIGH(7)
000e11 940e 1045 	CALL __SWAPW12
000e13 1bea      	SUB  R30,R26
000e14 93e0 01f3 	STS  _n,R30
000e16 93ea      	ST   -Y,R30
000e17 9508      	RET
                 
                 ;OPTIMIZER ADDED SUBROUTINE, CALLED 8 TIMES, CODE SIZE REDUCTION:67 WORDS
                 SUBOPT_0x11:
000e18 e0e0      	LDI  R30,LOW(0)
000e19 93ea      	ST   -Y,R30
000e1a 940e 0cd4 	CALL _lcd_gotoxy
000e1c e9e8      	LDI  R30,LOW(_lcd)
000e1d e0f1      	LDI  R31,HIGH(_lcd)
000e1e 93fa      	ST   -Y,R31
000e1f 93ea      	ST   -Y,R30
                +
000e20 e6ea     +LDI R30 , LOW ( 2 * _0x0 + 0 )
000e21 e0f0     +LDI R31 , HIGH ( 2 * _0x0 + 0 )
                 	__POINTW1FN _0x0,0
000e22 93fa      	ST   -Y,R31
000e23 93ea      	ST   -Y,R30
000e24 9508      	RET
                 
                 ;OPTIMIZER ADDED SUBROUTINE, CALLED 4 TIMES, CODE SIZE REDUCTION:42 WORDS
                 SUBOPT_0x12:
000e25 91e0 01f6 	LDS  R30,_disp_sensor
000e27 27ff      	CLR  R31
000e28 2766      	CLR  R22
000e29 2777      	CLR  R23
000e2a 940e 1040 	CALL __PUTPARD1
000e2c e084      	LDI  R24,4
000e2d 940e 0c68 	CALL _sprintf
000e2f 9628      	ADIW R28,8
000e30 e9e8      	LDI  R30,LOW(_lcd)
000e31 e0f1      	LDI  R31,HIGH(_lcd)
000e32 93fa      	ST   -Y,R31
000e33 93ea      	ST   -Y,R30
000e34 940c 0d2b 	JMP  _lcd_puts
                 
                 ;OPTIMIZER ADDED SUBROUTINE, CALLED 8 TIMES, CODE SIZE REDUCTION:67 WORDS
                 SUBOPT_0x13:
000e36 e0e1      	LDI  R30,LOW(1)
000e37 93ea      	ST   -Y,R30
000e38 940e 0cd4 	CALL _lcd_gotoxy
000e3a e9e8      	LDI  R30,LOW(_lcd)
000e3b e0f1      	LDI  R31,HIGH(_lcd)
000e3c 93fa      	ST   -Y,R31
000e3d 93ea      	ST   -Y,R30
                +
000e3e e6ea     +LDI R30 , LOW ( 2 * _0x0 + 0 )
000e3f e0f0     +LDI R31 , HIGH ( 2 * _0x0 + 0 )
                 	__POINTW1FN _0x0,0
000e40 93fa      	ST   -Y,R31
000e41 93ea      	ST   -Y,R30
000e42 9508      	RET
                 
                 ;OPTIMIZER ADDED SUBROUTINE, CALLED 5 TIMES, CODE SIZE REDUCTION:45 WORDS
                 SUBOPT_0x14:
000e43 940e 0ffa 	CALL __CWD1
000e45 940e 1040 	CALL __PUTPARD1
000e47 e084      	LDI  R24,4
000e48 940e 0c68 	CALL _sprintf
000e4a 9628      	ADIW R28,8
000e4b e9e8      	LDI  R30,LOW(_lcd)
000e4c e0f1      	LDI  R31,HIGH(_lcd)
000e4d 93fa      	ST   -Y,R31
000e4e 93ea      	ST   -Y,R30
000e4f 940c 0d2b 	JMP  _lcd_puts
                 
                 ;OPTIMIZER ADDED SUBROUTINE, CALLED 4 TIMES, CODE SIZE REDUCTION:33 WORDS
                 SUBOPT_0x15:
000e51 2766      	CLR  R22
000e52 2777      	CLR  R23
000e53 940e 1040 	CALL __PUTPARD1
000e55 e084      	LDI  R24,4
000e56 940e 0c68 	CALL _sprintf
000e58 9628      	ADIW R28,8
000e59 e9e8      	LDI  R30,LOW(_lcd)
000e5a e0f1      	LDI  R31,HIGH(_lcd)
000e5b 93fa      	ST   -Y,R31
000e5c 93ea      	ST   -Y,R30
000e5d 940c 0d2b 	JMP  _lcd_puts
                 
                 ;OPTIMIZER ADDED SUBROUTINE, CALLED 19 TIMES, CODE SIZE REDUCTION:51 WORDS
                 SUBOPT_0x16:
000e5f 27ff      	CLR  R31
000e60 2766      	CLR  R22
000e61 2777      	CLR  R23
000e62 940e 1040 	CALL __PUTPARD1
000e64 9508      	RET
                 
                 ;OPTIMIZER ADDED SUBROUTINE, CALLED 11 TIMES, CODE SIZE REDUCTION:77 WORDS
                 SUBOPT_0x17:
000e65 e084      	LDI  R24,4
000e66 940e 0c68 	CALL _sprintf
000e68 9628      	ADIW R28,8
000e69 e9e8      	LDI  R30,LOW(_lcd)
000e6a e0f1      	LDI  R31,HIGH(_lcd)
000e6b 93fa      	ST   -Y,R31
000e6c 93ea      	ST   -Y,R30
000e6d 940c 0d2b 	JMP  _lcd_puts
                 
                 ;OPTIMIZER ADDED SUBROUTINE, CALLED 2 TIMES, CODE SIZE REDUCTION:19 WORDS
                 SUBOPT_0x18:
000e6f 015f      	MOVW R10,R30
000e70 94e8      	CLT
000e71 f826      	BLD  R2,6
000e72 01d3      	MOVW R26,R6
000e73 e1e4      	LDI  R30,LOW(20)
000e74 e0f0      	LDI  R31,HIGH(20)
000e75 940e 1025 	CALL __DIVW21
000e77 93e0 0168 	STS  _kp,R30
000e79 93f0 0169 	STS  _kp+1,R31
000e7b e0a6      	LDI  R26,LOW(6)
000e7c e0b0      	LDI  R27,HIGH(6)
000e7d 940e 100d 	CALL __MULW12
000e7f 93e0 016a 	STS  _kd,R30
000e81 93f0 016b 	STS  _kd+1,R31
000e83 9508      	RET
                 
                 ;OPTIMIZER ADDED SUBROUTINE, CALLED 5 TIMES, CODE SIZE REDUCTION:29 WORDS
                 SUBOPT_0x19:
000e84 940e 1025 	CALL __DIVW21
000e86 93e0 0168 	STS  _kp,R30
000e88 93f0 0169 	STS  _kp+1,R31
000e8a 9508      	RET
                 
                 ;OPTIMIZER ADDED SUBROUTINE, CALLED 2 TIMES, CODE SIZE REDUCTION:1 WORDS
                 SUBOPT_0x1A:
000e8b 940e 100d 	CALL __MULW12
000e8d 93e0 016a 	STS  _kd,R30
000e8f 93f0 016b 	STS  _kd+1,R31
000e91 9508      	RET
                 
                 ;OPTIMIZER ADDED SUBROUTINE, CALLED 2 TIMES, CODE SIZE REDUCTION:3 WORDS
                 SUBOPT_0x1B:
000e92 91e0 01fc 	LDS  R30,_per4an
000e94 e0f0      	LDI  R31,0
000e95 50e2      	SUBI R30,LOW(-_per4an_dir)
000e96 4ffe      	SBCI R31,HIGH(-_per4an_dir)
000e97 81e0      	LD   R30,Z
000e98 9508      	RET
                 
                 ;OPTIMIZER ADDED SUBROUTINE, CALLED 2 TIMES, CODE SIZE REDUCTION:6 WORDS
                 SUBOPT_0x1C:
000e99 015f      	MOVW R10,R30
000e9a e6ea      	LDI  R30,LOW(65386)
000e9b efff      	LDI  R31,HIGH(65386)
000e9c df61      	RCALL SUBOPT_0xE
000e9d e6ea      	LDI  R30,LOW(65386)
000e9e efff      	LDI  R31,HIGH(65386)
000e9f df59      	RCALL SUBOPT_0xD
000ea0 940c 02c3 	JMP  _pwm_out
                 
                 ;OPTIMIZER ADDED SUBROUTINE, CALLED 29 TIMES, CODE SIZE REDUCTION:53 WORDS
                 SUBOPT_0x1D:
000ea2 93fa      	ST   -Y,R31
000ea3 93ea      	ST   -Y,R30
000ea4 940c 0fd0 	JMP  _delay_ms
                 
                 ;OPTIMIZER ADDED SUBROUTINE, CALLED 2 TIMES, CODE SIZE REDUCTION:18 WORDS
                 SUBOPT_0x1E:
000ea6 012f      	MOVW R4,R30
000ea7 940e 0181 	CALL _read_sensor
000ea9 940e 039c 	CALL _giving_weight10
000eab 940e 03dd 	CALL _giving_weight20
000ead 91e0 0173 	LDS  R30,_kp_div
000eaf e0f0      	LDI  R31,0
000eb0 9633      	ADIW R30,3
000eb1 93e0 0173 	STS  _kp_div,R30
000eb3 e0f0      	LDI  R31,0
000eb4 01d3      	MOVW R26,R6
000eb5 cfce      	RJMP SUBOPT_0x19
                 
                 ;OPTIMIZER ADDED SUBROUTINE, CALLED 3 TIMES, CODE SIZE REDUCTION:5 WORDS
                 SUBOPT_0x1F:
000eb6 940e 0ff5 	CALL __LSLW2
000eb8 93e0 016a 	STS  _kd,R30
000eba 93f0 016b 	STS  _kd+1,R31
000ebc 9508      	RET
                 
                 ;OPTIMIZER ADDED SUBROUTINE, CALLED 3 TIMES, CODE SIZE REDUCTION:1 WORDS
                 SUBOPT_0x20:
000ebd 940e 0369 	CALL _komp_pid
000ebf 940c 02c3 	JMP  _pwm_out
                 
                 ;OPTIMIZER ADDED SUBROUTINE, CALLED 2 TIMES, CODE SIZE REDUCTION:1 WORDS
                 SUBOPT_0x21:
000ec1 01f5      	MOVW R30,R10
000ec2 efad      	LDI  R26,LOW(65533)
000ec3 efbf      	LDI  R27,HIGH(65533)
000ec4 940e 0fff 	CALL __LEW12
000ec6 30e4      	CPI  R30,LOW(0x4)
000ec7 9508      	RET
                 
                 ;OPTIMIZER ADDED SUBROUTINE, CALLED 5 TIMES, CODE SIZE REDUCTION:5 WORDS
                 SUBOPT_0x22:
                +
000ec8 9060 0170+LDS R6 , 0 + _temp_speed
000eca 9070 0171+LDS R7 , 0 + _temp_speed + 1
                 	__GETWRMN 6,7,0,_temp_speed
000ecc 9508      	RET
                 
                 ;OPTIMIZER ADDED SUBROUTINE, CALLED 5 TIMES, CODE SIZE REDUCTION:5 WORDS
                 SUBOPT_0x23:
000ecd e3e2      	LDI  R30,LOW(50)
000ece e0f0      	LDI  R31,HIGH(50)
000ecf cfd2      	RJMP SUBOPT_0x1D
                 
                 ;OPTIMIZER ADDED SUBROUTINE, CALLED 3 TIMES, CODE SIZE REDUCTION:3 WORDS
                 SUBOPT_0x24:
000ed0 91e0 0173 	LDS  R30,_kp_div
000ed2 e0f0      	LDI  R31,0
000ed3 9508      	RET
                 
                 ;OPTIMIZER ADDED SUBROUTINE, CALLED 4 TIMES, CODE SIZE REDUCTION:6 WORDS
                 SUBOPT_0x25:
000ed4 91ed      	LD   R30,X+
000ed5 91fd      	LD   R31,X+
000ed6 9631      	ADIW R30,1
000ed7 93fe      	ST   -X,R31
000ed8 93ee      	ST   -X,R30
000ed9 9508      	RET
                 
                 ;OPTIMIZER ADDED SUBROUTINE, CALLED 2 TIMES, CODE SIZE REDUCTION:5 WORDS
                 SUBOPT_0x26:
000eda e0e0      	LDI  R30,LOW(0)
000edb 93ea      	ST   -Y,R30
000edc 93ea      	ST   -Y,R30
000edd 940e 0cd4 	CALL _lcd_gotoxy
000edf e9e8      	LDI  R30,LOW(_lcd)
000ee0 e0f1      	LDI  R31,HIGH(_lcd)
000ee1 93fa      	ST   -Y,R31
000ee2 93ea      	ST   -Y,R30
000ee3 9508      	RET
                 
                 ;OPTIMIZER ADDED SUBROUTINE, CALLED 2 TIMES, CODE SIZE REDUCTION:5 WORDS
                 SUBOPT_0x27:
000ee4 e180      	LDI  R24,16
000ee5 940e 0c68 	CALL _sprintf
000ee7 9664      	ADIW R28,20
000ee8 e9e8      	LDI  R30,LOW(_lcd)
000ee9 e0f1      	LDI  R31,HIGH(_lcd)
000eea 93fa      	ST   -Y,R31
000eeb 93ea      	ST   -Y,R30
000eec 940c 0d2b 	JMP  _lcd_puts
                 
                 ;OPTIMIZER ADDED SUBROUTINE, CALLED 3 TIMES, CODE SIZE REDUCTION:13 WORDS
                 SUBOPT_0x28:
000eee e0e0      	LDI  R30,LOW(0)
000eef 93ea      	ST   -Y,R30
000ef0 e0e1      	LDI  R30,LOW(1)
000ef1 93ea      	ST   -Y,R30
000ef2 940e 0cd4 	CALL _lcd_gotoxy
000ef4 e9e8      	LDI  R30,LOW(_lcd)
000ef5 e0f1      	LDI  R31,HIGH(_lcd)
000ef6 93fa      	ST   -Y,R31
000ef7 93ea      	ST   -Y,R30
000ef8 9508      	RET
                 
                 ;OPTIMIZER ADDED SUBROUTINE, CALLED 2 TIMES, CODE SIZE REDUCTION:4 WORDS
                 SUBOPT_0x29:
000ef9 010f      	MOVW R0,R30
000efa 58e9      	SUBI R30,LOW(-_adc_result1)
000efb 4ffe      	SBCI R31,HIGH(-_adc_result1)
000efc 81e0      	LD   R30,Z
000efd 2fae      	MOV  R26,R30
000efe 01f0      	MOVW R30,R0
000eff 55e8      	SUBI R30,LOW(-_max_adc1)
000f00 4ffe      	SBCI R31,HIGH(-_max_adc1)
000f01 81e0      	LD   R30,Z
000f02 9508      	RET
                 
                 ;OPTIMIZER ADDED SUBROUTINE, CALLED 9 TIMES, CODE SIZE REDUCTION:21 WORDS
                 SUBOPT_0x2A:
000f03 91a0 01f1 	LDS  R26,_i
000f05 e0b0      	LDI  R27,0
000f06 9508      	RET
                 
                 ;OPTIMIZER ADDED SUBROUTINE, CALLED 2 TIMES, CODE SIZE REDUCTION:3 WORDS
                 SUBOPT_0x2B:
000f07 5faa      	SUBI R26,LOW(-_e_adc_tres1)
000f08 4fbf      	SBCI R27,HIGH(-_e_adc_tres1)
000f09 940e 1050 	CALL __EEPROMRDB
000f0b 01d0      	MOVW R26,R0
000f0c 93ec      	ST   X,R30
000f0d ceb5      	RJMP SUBOPT_0x5
                 
                 ;OPTIMIZER ADDED SUBROUTINE, CALLED 2 TIMES, CODE SIZE REDUCTION:1 WORDS
                 SUBOPT_0x2C:
000f0e 5fa2      	SUBI R26,LOW(-_e_adc_tres2)
000f0f 4fbf      	SBCI R27,HIGH(-_e_adc_tres2)
000f10 940e 1050 	CALL __EEPROMRDB
000f12 01d0      	MOVW R26,R0
000f13 93ec      	ST   X,R30
000f14 9508      	RET
                 
                 ;OPTIMIZER ADDED SUBROUTINE, CALLED 2 TIMES, CODE SIZE REDUCTION:41 WORDS
                 SUBOPT_0x2D:
000f15 e0e0      	LDI  R30,LOW(0)
000f16 93ea      	ST   -Y,R30
000f17 940e 0111 	CALL _read_adc
000f19 93e0 0197 	STS  _adc_menu,R30
000f1b e0f0      	LDI  R31,0
000f1c efaf      	LDI  R26,LOW(255)
000f1d e0b0      	LDI  R27,HIGH(255)
000f1e 940e 1045 	CALL __SWAPW12
000f20 1bea      	SUB  R30,R26
000f21 93e0 0197 	STS  _adc_menu,R30
000f23 e0e8      	LDI  R30,LOW(8)
000f24 93ea      	ST   -Y,R30
000f25 e0e1      	LDI  R30,LOW(1)
000f26 93ea      	ST   -Y,R30
000f27 940e 0cd4 	CALL _lcd_gotoxy
                +
000f29 e8ea     +LDI R30 , LOW ( 2 * _0x0 + 32 )
000f2a e0f0     +LDI R31 , HIGH ( 2 * _0x0 + 32 )
                 	__POINTW1FN _0x0,32
000f2b 93fa      	ST   -Y,R31
000f2c 93ea      	ST   -Y,R30
000f2d 940e 0d38 	CALL _lcd_putsf
000f2f e0e5      	LDI  R30,LOW(5)
000f30 93ea      	ST   -Y,R30
000f31 e0e1      	LDI  R30,LOW(1)
000f32 93ea      	ST   -Y,R30
000f33 940e 0cd4 	CALL _lcd_gotoxy
000f35 e9e8      	LDI  R30,LOW(_lcd)
000f36 e0f1      	LDI  R31,HIGH(_lcd)
000f37 93fa      	ST   -Y,R31
000f38 93ea      	ST   -Y,R30
                +
000f39 e8ee     +LDI R30 , LOW ( 2 * _0x0 + 36 )
000f3a e0f0     +LDI R31 , HIGH ( 2 * _0x0 + 36 )
                 	__POINTW1FN _0x0,36
000f3b 93fa      	ST   -Y,R31
000f3c 93ea      	ST   -Y,R30
000f3d 91e0 0197 	LDS  R30,_adc_menu
000f3f 9508      	RET
                 
                 ;OPTIMIZER ADDED SUBROUTINE, CALLED 9 TIMES, CODE SIZE REDUCTION:13 WORDS
                 SUBOPT_0x2E:
000f40 e9e0      	LDI  R30,LOW(400)
000f41 e0f1      	LDI  R31,HIGH(400)
000f42 cf5f      	RJMP SUBOPT_0x1D
                 
                 ;OPTIMIZER ADDED SUBROUTINE, CALLED 3 TIMES, CODE SIZE REDUCTION:9 WORDS
                 SUBOPT_0x2F:
000f43 e0f0      	LDI  R31,0
000f44 01df      	MOVW R26,R30
000f45 e0e3      	LDI  R30,LOW(3)
000f46 e0f0      	LDI  R31,HIGH(3)
000f47 940e 1025 	CALL __DIVW21
000f49 9508      	RET
                 
                 ;OPTIMIZER ADDED SUBROUTINE, CALLED 4 TIMES, CODE SIZE REDUCTION:9 WORDS
                 SUBOPT_0x30:
000f4a e0e0      	LDI  R30,LOW(0)
000f4b 93ea      	ST   -Y,R30
000f4c 93ea      	ST   -Y,R30
000f4d 940c 0cd4 	JMP  _lcd_gotoxy
                 
                 ;OPTIMIZER ADDED SUBROUTINE, CALLED 12 TIMES, CODE SIZE REDUCTION:19 WORDS
                 SUBOPT_0x31:
000f4f 93fa      	ST   -Y,R31
000f50 93ea      	ST   -Y,R30
000f51 940c 0d38 	JMP  _lcd_putsf
                 
                 ;OPTIMIZER ADDED SUBROUTINE, CALLED 4 TIMES, CODE SIZE REDUCTION:6 WORDS
                 SUBOPT_0x32:
000f53 93ea      	ST   -Y,R30
000f54 e0e0      	LDI  R30,LOW(0)
000f55 93ea      	ST   -Y,R30
000f56 940c 0cd4 	JMP  _lcd_gotoxy
                 
                 ;OPTIMIZER ADDED SUBROUTINE, CALLED 3 TIMES, CODE SIZE REDUCTION:9 WORDS
                 SUBOPT_0x33:
000f58 e9e8      	LDI  R30,LOW(_lcd)
000f59 e0f1      	LDI  R31,HIGH(_lcd)
000f5a 93fa      	ST   -Y,R31
000f5b 93ea      	ST   -Y,R30
                +
000f5c e8e2     +LDI R30 , LOW ( 2 * _0x0 + 24 )
000f5d e0f0     +LDI R31 , HIGH ( 2 * _0x0 + 24 )
                 	__POINTW1FN _0x0,24
000f5e 93fa      	ST   -Y,R31
000f5f 93ea      	ST   -Y,R30
000f60 9508      	RET
                 
                 ;OPTIMIZER ADDED SUBROUTINE, CALLED 2 TIMES, CODE SIZE REDUCTION:1 WORDS
                 SUBOPT_0x34:
000f61 e0e0      	LDI  R30,LOW(0)
000f62 93ea      	ST   -Y,R30
000f63 e0e1      	LDI  R30,LOW(1)
000f64 93ea      	ST   -Y,R30
000f65 940c 0cd4 	JMP  _lcd_gotoxy
                 
                 ;OPTIMIZER ADDED SUBROUTINE, CALLED 4 TIMES, CODE SIZE REDUCTION:9 WORDS
                 SUBOPT_0x35:
000f67 e0e0      	LDI  R30,LOW(0)
000f68 93ea      	ST   -Y,R30
000f69 940e 0111 	CALL _read_adc
000f6b 93e0 0197 	STS  _adc_menu,R30
000f6d 9508      	RET
                 
                 ;OPTIMIZER ADDED SUBROUTINE, CALLED 2 TIMES, CODE SIZE REDUCTION:1 WORDS
                 SUBOPT_0x36:
000f6e e0e0      	LDI  R30,LOW(0)
000f6f 93e0 01f1 	STS  _i,R30
000f71 93e0 01f3 	STS  _n,R30
000f73 9508      	RET
                 
                 ;OPTIMIZER ADDED SUBROUTINE, CALLED 4 TIMES, CODE SIZE REDUCTION:3 WORDS
                 SUBOPT_0x37:
000f74 ece8      	LDI  R30,LOW(200)
000f75 e0f0      	LDI  R31,HIGH(200)
000f76 cf2b      	RJMP SUBOPT_0x1D
                 
                 ;OPTIMIZER ADDED SUBROUTINE, CALLED 4 TIMES, CODE SIZE REDUCTION:6 WORDS
                 SUBOPT_0x38:
000f77 e0f0      	LDI  R31,0
000f78 0fee      	LSL  R30
000f79 1fff      	ROL  R31
000f7a 9508      	RET
                 
                 ;OPTIMIZER ADDED SUBROUTINE, CALLED 2 TIMES, CODE SIZE REDUCTION:2 WORDS
                 SUBOPT_0x39:
000f7b 0fae      	ADD  R26,R30
000f7c 1fbf      	ADC  R27,R31
000f7d 940e 104c 	CALL __EEPROMRDW
000f7f 01d0      	MOVW R26,R0
000f80 93ed      	ST   X+,R30
000f81 93fc      	ST   X,R31
000f82 9508      	RET
                 
                 ;OPTIMIZER ADDED SUBROUTINE, CALLED 4 TIMES, CODE SIZE REDUCTION:24 WORDS
                 SUBOPT_0x3A:
000f83 932a      	ST   -Y,R18
000f84 85ef      	LDD  R30,Y+15
000f85 89f8      	LDD  R31,Y+15+1
000f86 93fa      	ST   -Y,R31
000f87 93ea      	ST   -Y,R30
000f88 01fe      	MOVW R30,R28
000f89 963f      	ADIW R30,15
000f8a 93fa      	ST   -Y,R31
000f8b 93ea      	ST   -Y,R30
000f8c 940c 0a8c 	JMP  __put_G100
                 
                 ;OPTIMIZER ADDED SUBROUTINE, CALLED 18 TIMES, CODE SIZE REDUCTION:31 WORDS
                 SUBOPT_0x3B:
000f8e 2fa0      	MOV  R26,R16
000f8f e0b0      	LDI  R27,0
000f90 9508      	RET
                 
                 ;OPTIMIZER ADDED SUBROUTINE, CALLED 3 TIMES, CODE SIZE REDUCTION:1 WORDS
                 SUBOPT_0x3C:
000f91 2fe2      	MOV  R30,R18
000f92 e0f0      	LDI  R31,0
000f93 9508      	RET
                 
                 ;OPTIMIZER ADDED SUBROUTINE, CALLED 5 TIMES, CODE SIZE REDUCTION:9 WORDS
                 SUBOPT_0x3D:
000f94 89e8      	LDD  R30,Y+16
000f95 89f9      	LDD  R31,Y+16+1
000f96 9734      	SBIW R30,4
000f97 8be8      	STD  Y+16,R30
000f98 8bf9      	STD  Y+16+1,R31
000f99 9508      	RET
                 
                 ;OPTIMIZER ADDED SUBROUTINE, CALLED 4 TIMES, CODE SIZE REDUCTION:21 WORDS
                 SUBOPT_0x3E:
000f9a 85ef      	LDD  R30,Y+15
000f9b 89f8      	LDD  R31,Y+15+1
000f9c 93fa      	ST   -Y,R31
000f9d 93ea      	ST   -Y,R30
000f9e 01fe      	MOVW R30,R28
000f9f 963f      	ADIW R30,15
000fa0 93fa      	ST   -Y,R31
000fa1 93ea      	ST   -Y,R30
000fa2 940c 0a8c 	JMP  __put_G100
                 
                 ;OPTIMIZER ADDED SUBROUTINE, CALLED 2 TIMES, CODE SIZE REDUCTION:6 WORDS
                 SUBOPT_0x3F:
000fa4 89a8      	LDD  R26,Y+16
000fa5 89b9      	LDD  R27,Y+16+1
000fa6 9614      	ADIW R26,4
000fa7 940e 1038 	CALL __GETW1P
000fa9 83ee      	STD  Y+6,R30
000faa 83ff      	STD  Y+6+1,R31
000fab 93fa      	ST   -Y,R31
000fac 93ea      	ST   -Y,R30
000fad 9508      	RET
                 
                 ;OPTIMIZER ADDED SUBROUTINE, CALLED 3 TIMES, CODE SIZE REDUCTION:3 WORDS
                 SUBOPT_0x40:
000fae e0e4      	LDI  R30,LOW(4)
000faf e0f0      	LDI  R31,HIGH(4)
000fb0 23ea      	AND  R30,R26
000fb1 23fb      	AND  R31,R27
000fb2 9730      	SBIW R30,0
000fb3 9508      	RET
                 
                 ;OPTIMIZER ADDED SUBROUTINE, CALLED 2 TIMES, CODE SIZE REDUCTION:2 WORDS
                 SUBOPT_0x41:
000fb4 89a8      	LDD  R26,Y+16
000fb5 89b9      	LDD  R27,Y+16+1
000fb6 9614      	ADIW R26,4
000fb7 940e 1038 	CALL __GETW1P
000fb9 87ea      	STD  Y+10,R30
000fba 87fb      	STD  Y+10+1,R31
000fbb 9508      	RET
                 
                 ;OPTIMIZER ADDED SUBROUTINE, CALLED 3 TIMES, CODE SIZE REDUCTION:1 WORDS
                 SUBOPT_0x42:
000fbc efeb      	LDI  R30,LOW(65531)
000fbd efff      	LDI  R31,HIGH(65531)
000fbe 23ea      	AND  R30,R26
000fbf 2f0e      	MOV  R16,R30
000fc0 9508      	RET
                 
                 ;OPTIMIZER ADDED SUBROUTINE, CALLED 3 TIMES, CODE SIZE REDUCTION:3 WORDS
                 SUBOPT_0x43:
000fc1 2fe0      	MOV  R30,R16
000fc2 e0f0      	LDI  R31,0
000fc3 70e1      	ANDI R30,LOW(0x1)
000fc4 9508      	RET
                 
                 ;OPTIMIZER ADDED SUBROUTINE, CALLED 3 TIMES, CODE SIZE REDUCTION:5 WORDS
                 SUBOPT_0x44:
000fc5 940e 0d49 	CALL __long_delay_G103
000fc7 e3e0      	LDI  R30,LOW(48)
000fc8 93ea      	ST   -Y,R30
000fc9 940c 0d4e 	JMP  __lcd_init_write_G103
                 
                 ;OPTIMIZER ADDED SUBROUTINE, CALLED 3 TIMES, CODE SIZE REDUCTION:3 WORDS
                 SUBOPT_0x45:
000fcb 93ea      	ST   -Y,R30
000fcc 940e 0cb4 	CALL __lcd_write_data
000fce 940c 0d49 	JMP  __long_delay_G103
                 
                 
                 	.CSEG
                 _delay_ms:
000fd0 91e9      	ld   r30,y+
000fd1 91f9      	ld   r31,y+
000fd2 9630      	adiw r30,0
000fd3 f039      	breq __delay_ms1
                 __delay_ms0:
                +
000fd4 ed80     +LDI R24 , LOW ( 0x7D0 )
000fd5 e097     +LDI R25 , HIGH ( 0x7D0 )
                +__DELAY_USW_LOOP :
000fd6 9701     +SBIW R24 , 1
000fd7 f7f1     +BRNE __DELAY_USW_LOOP
                 	__DELAY_USW 0x7D0
000fd8 95a8      	wdr
000fd9 9731      	sbiw r30,1
000fda f7c9      	brne __delay_ms0
                 __delay_ms1:
000fdb 9508      	ret
                 
                 __ADDW2R15:
000fdc 2400      	CLR  R0
000fdd 0daf      	ADD  R26,R15
000fde 1db0      	ADC  R27,R0
000fdf 9508      	RET
                 
                 __ANEGW1:
000fe0 95f1      	NEG  R31
000fe1 95e1      	NEG  R30
000fe2 40f0      	SBCI R31,0
000fe3 9508      	RET
                 
                 __LSLB12:
000fe4 23ee      	TST  R30
000fe5 2e0e      	MOV  R0,R30
000fe6 2fea      	MOV  R30,R26
000fe7 f019      	BREQ __LSLB12R
                 __LSLB12L:
000fe8 0fee      	LSL  R30
000fe9 940a      	DEC  R0
000fea f7e9      	BRNE __LSLB12L
                 __LSLB12R:
000feb 9508      	RET
                 
                 __ASRW12:
000fec 23ee      	TST  R30
000fed 2e0e      	MOV  R0,R30
000fee 01fd      	MOVW R30,R26
000fef f021      	BREQ __ASRW12R
                 __ASRW12L:
000ff0 95f5      	ASR  R31
000ff1 95e7      	ROR  R30
000ff2 940a      	DEC  R0
000ff3 f7e1      	BRNE __ASRW12L
                 __ASRW12R:
000ff4 9508      	RET
                 
                 __LSLW2:
000ff5 0fee      	LSL  R30
000ff6 1fff      	ROL  R31
000ff7 0fee      	LSL  R30
000ff8 1fff      	ROL  R31
000ff9 9508      	RET
                 
                 __CWD1:
000ffa 2f6f      	MOV  R22,R31
000ffb 0f66      	ADD  R22,R22
000ffc 0b66      	SBC  R22,R22
000ffd 2f76      	MOV  R23,R22
000ffe 9508      	RET
                 
                 __LEW12:
000fff 17ea      	CP   R30,R26
001000 07fb      	CPC  R31,R27
001001 e0e1      	LDI  R30,1
001002 f40c      	BRGE __LEW12T
001003 27ee      	CLR  R30
                 __LEW12T:
001004 9508      	RET
                 
                 __MULW12U:
001005 9ffa      	MUL  R31,R26
001006 2df0      	MOV  R31,R0
001007 9feb      	MUL  R30,R27
001008 0df0      	ADD  R31,R0
001009 9fea      	MUL  R30,R26
00100a 2de0      	MOV  R30,R0
00100b 0df1      	ADD  R31,R1
00100c 9508      	RET
                 
                 __MULW12:
00100d d01c      	RCALL __CHKSIGNW
00100e dff6      	RCALL __MULW12U
00100f f40e      	BRTC __MULW121
001010 dfcf      	RCALL __ANEGW1
                 __MULW121:
001011 9508      	RET
                 
                 __DIVW21U:
001012 2400      	CLR  R0
001013 2411      	CLR  R1
001014 e190      	LDI  R25,16
                 __DIVW21U1:
001015 0faa      	LSL  R26
001016 1fbb      	ROL  R27
001017 1c00      	ROL  R0
001018 1c11      	ROL  R1
001019 1a0e      	SUB  R0,R30
00101a 0a1f      	SBC  R1,R31
00101b f418      	BRCC __DIVW21U2
00101c 0e0e      	ADD  R0,R30
00101d 1e1f      	ADC  R1,R31
00101e c001      	RJMP __DIVW21U3
                 __DIVW21U2:
00101f 60a1      	SBR  R26,1
                 __DIVW21U3:
001020 959a      	DEC  R25
001021 f799      	BRNE __DIVW21U1
001022 01fd      	MOVW R30,R26
001023 01d0      	MOVW R26,R0
001024 9508      	RET
                 
                 __DIVW21:
001025 d004      	RCALL __CHKSIGNW
001026 dfeb      	RCALL __DIVW21U
001027 f40e      	BRTC __DIVW211
001028 dfb7      	RCALL __ANEGW1
                 __DIVW211:
001029 9508      	RET
                 
                 __CHKSIGNW:
00102a 94e8      	CLT
00102b fff7      	SBRS R31,7
00102c c002      	RJMP __CHKSW1
00102d dfb2      	RCALL __ANEGW1
00102e 9468      	SET
                 __CHKSW1:
00102f ffb7      	SBRS R27,7
001030 c006      	RJMP __CHKSW2
001031 95a0      	COM  R26
001032 95b0      	COM  R27
001033 9611      	ADIW R26,1
001034 f800      	BLD  R0,0
001035 9403      	INC  R0
001036 fa00      	BST  R0,0
                 __CHKSW2:
001037 9508      	RET
                 
                 __GETW1P:
001038 91ed      	LD   R30,X+
001039 91fc      	LD   R31,X
00103a 9711      	SBIW R26,1
00103b 9508      	RET
                 
                 __GETW1PF:
00103c 9005      	LPM  R0,Z+
00103d 91f4      	LPM  R31,Z
00103e 2de0      	MOV  R30,R0
00103f 9508      	RET
                 
                 __PUTPARD1:
001040 937a      	ST   -Y,R23
001041 936a      	ST   -Y,R22
001042 93fa      	ST   -Y,R31
001043 93ea      	ST   -Y,R30
001044 9508      	RET
                 
                 __SWAPW12:
001045 2e1b      	MOV  R1,R27
001046 2fbf      	MOV  R27,R31
001047 2df1      	MOV  R31,R1
                 
                 __SWAPB12:
001048 2e1a      	MOV  R1,R26
001049 2fae      	MOV  R26,R30
00104a 2de1      	MOV  R30,R1
00104b 9508      	RET
                 
                 __EEPROMRDW:
00104c 9611      	ADIW R26,1
00104d d002      	RCALL __EEPROMRDB
00104e 2ffe      	MOV  R31,R30
00104f 9711      	SBIW R26,1
                 
                 __EEPROMRDB:
001050 99e1      	SBIC EECR,EEWE
001051 cffe      	RJMP __EEPROMRDB
001052 93ff      	PUSH R31
001053 b7ff      	IN   R31,SREG
001054 94f8      	CLI
001055 bbae      	OUT  EEARL,R26
001056 bbbf      	OUT  EEARH,R27
001057 9ae0      	SBI  EECR,EERE
001058 b3ed      	IN   R30,EEDR
001059 bfff      	OUT  SREG,R31
00105a 91ff      	POP  R31
00105b 9508      	RET
                 
                 __EEPROMWRW:
00105c d007      	RCALL __EEPROMWRB
00105d 9611      	ADIW R26,1
00105e 93ef      	PUSH R30
00105f 2fef      	MOV  R30,R31
001060 d003      	RCALL __EEPROMWRB
001061 91ef      	POP  R30
001062 9711      	SBIW R26,1
001063 9508      	RET
                 
                 __EEPROMWRB:
001064 9be1      	SBIS EECR,EEWE
001065 c002      	RJMP __EEPROMWRB1
001066 95a8      	WDR
001067 cffc      	RJMP __EEPROMWRB
                 __EEPROMWRB1:
001068 b79f      	IN   R25,SREG
001069 94f8      	CLI
00106a bbae      	OUT  EEARL,R26
00106b bbbf      	OUT  EEARH,R27
00106c 9ae0      	SBI  EECR,EERE
00106d b38d      	IN   R24,EEDR
00106e 17e8      	CP   R30,R24
00106f f019      	BREQ __EEPROMWRB0
001070 bbed      	OUT  EEDR,R30
001071 9ae2      	SBI  EECR,EEMWE
001072 9ae1      	SBI  EECR,EEWE
                 __EEPROMWRB0:
001073 bf9f      	OUT  SREG,R25
001074 9508      	RET
                 
                 __BSTB1:
001075 94e8      	CLT
001076 23ee      	TST  R30
001077 f009      	BREQ PC+2
001078 9468      	SET
001079 9508      	RET
                 
                 __SAVELOCR6:
00107a 935a      	ST   -Y,R21
                 __SAVELOCR5:
00107b 934a      	ST   -Y,R20
                 __SAVELOCR4:
00107c 933a      	ST   -Y,R19
                 __SAVELOCR3:
00107d 932a      	ST   -Y,R18
                 __SAVELOCR2:
00107e 931a      	ST   -Y,R17
00107f 930a      	ST   -Y,R16
001080 9508      	RET
                 
                 __LOADLOCR6:
001081 815d      	LDD  R21,Y+5
                 __LOADLOCR5:
001082 814c      	LDD  R20,Y+4
                 __LOADLOCR4:
001083 813b      	LDD  R19,Y+3
                 __LOADLOCR3:
001084 812a      	LDD  R18,Y+2
                 __LOADLOCR2:
001085 8119      	LDD  R17,Y+1
001086 8108      	LD   R16,Y
001087 9508      	RET
                 
                 ;END OF CODE MARKER
                 __END_OF_CODE:


RESOURCE USE INFORMATION
------------------------

Notice:
The register and instruction counts are symbol table hit counts,
and hence implicitly used resources are not counted, eg, the
'lpm' instruction without operands implicitly uses r0 and z,
none of which are counted.

x,y,z are separate entities in the symbol table and are
counted separately from r26..r31 here.

.dseg memory usage only counts static data declared with .byte

ATmega16 register use summary:
r0 :  43 r1 :  12 r2 :  15 r3 :   6 r4 :  12 r5 :   2 r6 :  18 r7 :   7 
r8 :   3 r9 :   1 r10:  13 r11:   3 r12:   2 r13:   1 r14:   0 r15:   6 
r16:  25 r17:  29 r18:  24 r19:   8 r20:   9 r21:  18 r22:  24 r23:  11 
r24:  25 r25:  10 r26: 458 r27: 104 r28:  21 r29:   1 r30: 940 r31: 371 
x  :  26 y  : 282 z  :  32 
Registers used: 34 out of 35 (97.1%)

ATmega16 instruction use summary:
adc   :   8 add   :  12 adiw  :  37 and   :  16 andi  :  11 asr   :   1 
bclr  :   0 bld   :  16 brbc  :   0 brbs  :   0 brcc  :   1 brcs  :   0 
break :   0 breq  :  52 brge  :   6 brhc  :   0 brhs  :   0 brid  :   0 
brie  :   0 brlo  :  22 brlt  :   3 brmi  :   2 brne  :  95 brpl  :   3 
brsh  :  38 brtc  :   2 brts  :   1 brvc  :   0 brvs  :   0 bset  :   0 
bst   :   1 call  : 437 cbi   :  62 cbr   :   0 clc   :   0 clh   :   0 
cli   :   6 cln   :   0 clr   :  26 cls   :   0 clt   :  10 clv   :   0 
clz   :   0 com   :   2 cp    :  21 cpc   :  39 cpi   : 156 cpse  :   0 
dec   :   7 des   :   0 eor   :   0 fmul  :   0 fmuls :   0 fmulsu:   0 
icall :   0 ijmp  :   0 in    :  18 inc   :   1 jmp   :  51 ld    :  53 
ldd   :  64 ldi   : 536 lds   : 187 lpm   :  17 lsl   :   5 lsr   :   0 
mov   :  47 movw  :  72 mul   :   3 muls  :   1 mulsu :   0 neg   :   2 
nop   :   0 or    :  10 ori   :   6 out   :  66 pop   :  13 push  :  13 
rcall :  66 ret   : 110 reti  :   2 rjmp  : 203 rol   :   6 ror   :   1 
sbc   :   7 sbci  :  37 sbi   :  49 sbic  :  19 sbis  :   3 sbiw  :  30 
sbr   :   1 sbrc  :   6 sbrs  :   3 sec   :   0 seh   :   0 sei   :   3 
sen   :   0 ser   :   0 ses   :   0 set   :   8 sev   :   0 sez   :   0 
sleep :   0 spm   :   0 st    : 175 std   :  35 sts   : 140 sub   :   8 
subi  :  54 swap  :   2 tst   :  10 wdr   :   2 
Instructions used: 73 out of 112 (65.2%)

ATmega16 memory use summary [bytes]:
Segment   Begin    End      Code   Data   Used    Size   Use%
---------------------------------------------------------------
[.cseg] 0x000000 0x002110   8098    366   8464   16384  51.7%
[.dseg] 0x000060 0x000220      0    192    192    1024  18.8%
[.eseg] 0x000000 0x000046      0     70     70     512  13.7%

Assembly complete, 0 errors, 8 warnings
