
AVRASM ver. 2.1.9  test sysmin HGAS.asm Fri Dec 09 05:21:22 2011

test sysmin HGAS.asm(995): Including file 'test sysmin HGAS.vec'
test sysmin HGAS.asm(996): Including file 'test sysmin HGAS.inc'
test sysmin HGAS.inc(2): warning: Register r5 already defined by the .DEF directive
test sysmin HGAS.asm(996): 'test sysmin HGAS.inc' included form here
test sysmin HGAS.inc(3): warning: Register r4 already defined by the .DEF directive
test sysmin HGAS.asm(996): 'test sysmin HGAS.inc' included form here
test sysmin HGAS.inc(4): warning: Register r7 already defined by the .DEF directive
test sysmin HGAS.asm(996): 'test sysmin HGAS.inc' included form here
test sysmin HGAS.inc(5): warning: Register r6 already defined by the .DEF directive
test sysmin HGAS.asm(996): 'test sysmin HGAS.inc' included form here
test sysmin HGAS.inc(6): warning: Register r9 already defined by the .DEF directive
test sysmin HGAS.asm(996): 'test sysmin HGAS.inc' included form here
test sysmin HGAS.inc(7): warning: Register r8 already defined by the .DEF directive
test sysmin HGAS.asm(996): 'test sysmin HGAS.inc' included form here
test sysmin HGAS.inc(8): warning: Register r11 already defined by the .DEF directive
test sysmin HGAS.asm(996): 'test sysmin HGAS.inc' included form here
test sysmin HGAS.inc(9): warning: Register r10 already defined by the .DEF directive
test sysmin HGAS.asm(996): 'test sysmin HGAS.inc' included form here
test sysmin HGAS.inc(10): warning: Register r13 already defined by the .DEF directive
test sysmin HGAS.asm(996): 'test sysmin HGAS.inc' included form here
test sysmin HGAS.inc(11): warning: Register r12 already defined by the .DEF directive
test sysmin HGAS.asm(996): 'test sysmin HGAS.inc' included form here
                 
                 
                 ;CodeVisionAVR C Compiler V1.25.3 Professional
                 ;(C) Copyright 1998-2007 Pavel Haiduc, HP InfoTech s.r.l.
                 ;http://www.hpinfotech.com
                 
                 ;Chip type              : ATmega16
                 ;Program type           : Application
                 ;Clock frequency        : 8.000000 MHz
                 ;Memory model           : Small
                 ;Optimize for           : Size
                 ;(s)printf features     : int, width
                 ;(s)scanf features      : int, width
                 ;External SRAM size     : 0
                 ;Data Stack size        : 256 byte(s)
                 ;Heap size              : 0 byte(s)
                 ;Promote char to int    : No
                 ;char is unsigned       : Yes
                 ;8 bit enums            : Yes
                 ;Word align FLASH struct: No
                 ;Enhanced core instructions    : On
                 ;Smart register allocation : On
                 ;Automatic register allocation : On
                 
                 	#pragma AVRPART ADMIN PART_NAME ATmega16
                 	#pragma AVRPART MEMORY PROG_FLASH 16384
                 	#pragma AVRPART MEMORY EEPROM 512
                 	#pragma AVRPART MEMORY INT_SRAM SIZE 1024
                 	#pragma AVRPART MEMORY INT_SRAM START_ADDR 0x60
                 
                 	.EQU UDRE=0x5
                 	.EQU RXC=0x7
                 	.EQU USR=0xB
                 	.EQU UDR=0xC
                 	.EQU SPSR=0xE
                 	.EQU SPDR=0xF
                 	.EQU EERE=0x0
                 	.EQU EEWE=0x1
                 	.EQU EEMWE=0x2
                 	.EQU EECR=0x1C
                 	.EQU EEDR=0x1D
                 	.EQU EEARL=0x1E
                 	.EQU EEARH=0x1F
                 	.EQU WDTCR=0x21
                 	.EQU MCUCR=0x35
                 	.EQU GICR=0x3B
                 	.EQU SPL=0x3D
                 	.EQU SPH=0x3E
                 	.EQU SREG=0x3F
                 
                 	.DEF R0X0=R0
                 	.DEF R0X1=R1
                 	.DEF R0X2=R2
                 	.DEF R0X3=R3
                 	.DEF R0X4=R4
                 	.DEF R0X5=R5
                 	.DEF R0X6=R6
                 	.DEF R0X7=R7
                 	.DEF R0X8=R8
                 	.DEF R0X9=R9
                 	.DEF R0XA=R10
                 	.DEF R0XB=R11
                 	.DEF R0XC=R12
                 	.DEF R0XD=R13
                 	.DEF R0XE=R14
                 	.DEF R0XF=R15
                 	.DEF R0X10=R16
                 	.DEF R0X11=R17
                 	.DEF R0X12=R18
                 	.DEF R0X13=R19
                 	.DEF R0X14=R20
                 	.DEF R0X15=R21
                 	.DEF R0X16=R22
                 	.DEF R0X17=R23
                 	.DEF R0X18=R24
                 	.DEF R0X19=R25
                 	.DEF R0X1A=R26
                 	.DEF R0X1B=R27
                 	.DEF R0X1C=R28
                 	.DEF R0X1D=R29
                 	.DEF R0X1E=R30
                 	.DEF R0X1F=R31
                 
                 	.EQU __se_bit=0x40
                 	.EQU __sm_mask=0xB0
                 	.EQU __sm_adc_noise_red=0x10
                 	.EQU __sm_powerdown=0x20
                 	.EQU __sm_powersave=0x30
                 	.EQU __sm_standby=0xA0
                 	.EQU __sm_ext_standby=0xB0
                 
                 	.MACRO __CPD1N
                 	CPI  R30,LOW(@0)
                 	LDI  R26,HIGH(@0)
                 	CPC  R31,R26
                 	LDI  R26,BYTE3(@0)
                 	CPC  R22,R26
                 	LDI  R26,BYTE4(@0)
                 	CPC  R23,R26
                 	.ENDM
                 
                 	.MACRO __CPD2N
                 	CPI  R26,LOW(@0)
                 	LDI  R30,HIGH(@0)
                 	CPC  R27,R30
                 	LDI  R30,BYTE3(@0)
                 	CPC  R24,R30
                 	LDI  R30,BYTE4(@0)
                 	CPC  R25,R30
                 	.ENDM
                 
                 	.MACRO __CPWRR
                 	CP   R@0,R@2
                 	CPC  R@1,R@3
                 	.ENDM
                 
                 	.MACRO __CPWRN
                 	CPI  R@0,LOW(@2)
                 	LDI  R30,HIGH(@2)
                 	CPC  R@1,R30
                 	.ENDM
                 
                 	.MACRO __ADDB1MN
                 	SUBI R30,LOW(-@0-(@1))
                 	.ENDM
                 	.MACRO __ADDB2MN
                 	SUBI R26,LOW(-@0-(@1))
                 	.ENDM
                 	.MACRO __ADDW1MN
                 	SUBI R30,LOW(-@0-(@1))
                 	SBCI R31,HIGH(-@0-(@1))
                 	.ENDM
                 	.MACRO __ADDW2MN
                 	SUBI R26,LOW(-@0-(@1))
                 	SBCI R27,HIGH(-@0-(@1))
                 	.ENDM
                 	.MACRO __ADDW1FN
                 	SUBI R30,LOW(-2*@0-(@1))
                 	SBCI R31,HIGH(-2*@0-(@1))
                 	.ENDM
                 	.MACRO __ADDD1FN
                 	SUBI R30,LOW(-2*@0-(@1))
                 	SBCI R31,HIGH(-2*@0-(@1))
                 	SBCI R22,BYTE3(-2*@0-(@1))
                 	.ENDM
                 	.MACRO __ADDD1N
                 	SUBI R30,LOW(-@0)
                 	SBCI R31,HIGH(-@0)
                 	SBCI R22,BYTE3(-@0)
                 	SBCI R23,BYTE4(-@0)
                 	.ENDM
                 
                 	.MACRO __ADDD2N
                 	SUBI R26,LOW(-@0)
                 	SBCI R27,HIGH(-@0)
                 	SBCI R24,BYTE3(-@0)
                 	SBCI R25,BYTE4(-@0)
                 	.ENDM
                 
                 	.MACRO __SUBD1N
                 	SUBI R30,LOW(@0)
                 	SBCI R31,HIGH(@0)
                 	SBCI R22,BYTE3(@0)
                 	SBCI R23,BYTE4(@0)
                 	.ENDM
                 
                 	.MACRO __SUBD2N
                 	SUBI R26,LOW(@0)
                 	SBCI R27,HIGH(@0)
                 	SBCI R24,BYTE3(@0)
                 	SBCI R25,BYTE4(@0)
                 	.ENDM
                 
                 	.MACRO __ANDBMNN
                 	LDS  R30,@0+@1
                 	ANDI R30,LOW(@2)
                 	STS  @0+@1,R30
                 	.ENDM
                 
                 	.MACRO __ANDWMNN
                 	LDS  R30,@0+@1
                 	ANDI R30,LOW(@2)
                 	STS  @0+@1,R30
                 	LDS  R30,@0+@1+1
                 	ANDI R30,HIGH(@2)
                 	STS  @0+@1+1,R30
                 	.ENDM
                 
                 	.MACRO __ANDD1N
                 	ANDI R30,LOW(@0)
                 	ANDI R31,HIGH(@0)
                 	ANDI R22,BYTE3(@0)
                 	ANDI R23,BYTE4(@0)
                 	.ENDM
                 
                 	.MACRO __ORBMNN
                 	LDS  R30,@0+@1
                 	ORI  R30,LOW(@2)
                 	STS  @0+@1,R30
                 	.ENDM
                 
                 	.MACRO __ORWMNN
                 	LDS  R30,@0+@1
                 	ORI  R30,LOW(@2)
                 	STS  @0+@1,R30
                 	LDS  R30,@0+@1+1
                 	ORI  R30,HIGH(@2)
                 	STS  @0+@1+1,R30
                 	.ENDM
                 
                 	.MACRO __ORD1N
                 	ORI  R30,LOW(@0)
                 	ORI  R31,HIGH(@0)
                 	ORI  R22,BYTE3(@0)
                 	ORI  R23,BYTE4(@0)
                 	.ENDM
                 
                 	.MACRO __DELAY_USB
                 	LDI  R24,LOW(@0)
                 __DELAY_USB_LOOP:
                 	DEC  R24
                 	BRNE __DELAY_USB_LOOP
                 	.ENDM
                 
                 	.MACRO __DELAY_USW
                 	LDI  R24,LOW(@0)
                 	LDI  R25,HIGH(@0)
                 __DELAY_USW_LOOP:
                 	SBIW R24,1
                 	BRNE __DELAY_USW_LOOP
                 	.ENDM
                 
                 	.MACRO __CLRD1S
                 	LDI  R30,0
                 	STD  Y+@0,R30
                 	STD  Y+@0+1,R30
                 	STD  Y+@0+2,R30
                 	STD  Y+@0+3,R30
                 	.ENDM
                 
                 	.MACRO __GETD1S
                 	LDD  R30,Y+@0
                 	LDD  R31,Y+@0+1
                 	LDD  R22,Y+@0+2
                 	LDD  R23,Y+@0+3
                 	.ENDM
                 
                 	.MACRO __PUTD1S
                 	STD  Y+@0,R30
                 	STD  Y+@0+1,R31
                 	STD  Y+@0+2,R22
                 	STD  Y+@0+3,R23
                 	.ENDM
                 
                 	.MACRO __PUTD2S
                 	STD  Y+@0,R26
                 	STD  Y+@0+1,R27
                 	STD  Y+@0+2,R24
                 	STD  Y+@0+3,R25
                 	.ENDM
                 
                 	.MACRO __POINTB1MN
                 	LDI  R30,LOW(@0+@1)
                 	.ENDM
                 
                 	.MACRO __POINTW1MN
                 	LDI  R30,LOW(@0+@1)
                 	LDI  R31,HIGH(@0+@1)
                 	.ENDM
                 
                 	.MACRO __POINTD1M
                 	LDI  R30,LOW(@0)
                 	LDI  R31,HIGH(@0)
                 	LDI  R22,BYTE3(@0)
                 	.ENDM
                 
                 	.MACRO __POINTW1FN
                 	LDI  R30,LOW(2*@0+@1)
                 	LDI  R31,HIGH(2*@0+@1)
                 	.ENDM
                 
                 	.MACRO __POINTD1FN
                 	LDI  R30,LOW(2*@0+@1)
                 	LDI  R31,HIGH(2*@0+@1)
                 	LDI  R22,BYTE3(2*@0+@1)
                 	.ENDM
                 
                 	.MACRO __POINTB2MN
                 	LDI  R26,LOW(@0+@1)
                 	.ENDM
                 
                 	.MACRO __POINTW2MN
                 	LDI  R26,LOW(@0+@1)
                 	LDI  R27,HIGH(@0+@1)
                 	.ENDM
                 
                 	.MACRO __POINTBRM
                 	LDI  R@0,LOW(@1)
                 	.ENDM
                 
                 	.MACRO __POINTWRM
                 	LDI  R@0,LOW(@2)
                 	LDI  R@1,HIGH(@2)
                 	.ENDM
                 
                 	.MACRO __POINTBRMN
                 	LDI  R@0,LOW(@1+@2)
                 	.ENDM
                 
                 	.MACRO __POINTWRMN
                 	LDI  R@0,LOW(@2+@3)
                 	LDI  R@1,HIGH(@2+@3)
                 	.ENDM
                 
                 	.MACRO __POINTWRFN
                 	LDI  R@0,LOW(@2*2+@3)
                 	LDI  R@1,HIGH(@2*2+@3)
                 	.ENDM
                 
                 	.MACRO __GETD1N
                 	LDI  R30,LOW(@0)
                 	LDI  R31,HIGH(@0)
                 	LDI  R22,BYTE3(@0)
                 	LDI  R23,BYTE4(@0)
                 	.ENDM
                 
                 	.MACRO __GETD2N
                 	LDI  R26,LOW(@0)
                 	LDI  R27,HIGH(@0)
                 	LDI  R24,BYTE3(@0)
                 	LDI  R25,BYTE4(@0)
                 	.ENDM
                 
                 	.MACRO __GETD2S
                 	LDD  R26,Y+@0
                 	LDD  R27,Y+@0+1
                 	LDD  R24,Y+@0+2
                 	LDD  R25,Y+@0+3
                 	.ENDM
                 
                 	.MACRO __GETB1MN
                 	LDS  R30,@0+@1
                 	.ENDM
                 
                 	.MACRO __GETB1HMN
                 	LDS  R31,@0+@1
                 	.ENDM
                 
                 	.MACRO __GETW1MN
                 	LDS  R30,@0+@1
                 	LDS  R31,@0+@1+1
                 	.ENDM
                 
                 	.MACRO __GETD1MN
                 	LDS  R30,@0+@1
                 	LDS  R31,@0+@1+1
                 	LDS  R22,@0+@1+2
                 	LDS  R23,@0+@1+3
                 	.ENDM
                 
                 	.MACRO __GETBRMN
                 	LDS  R@0,@1+@2
                 	.ENDM
                 
                 	.MACRO __GETWRMN
                 	LDS  R@0,@2+@3
                 	LDS  R@1,@2+@3+1
                 	.ENDM
                 
                 	.MACRO __GETWRZ
                 	LDD  R@0,Z+@2
                 	LDD  R@1,Z+@2+1
                 	.ENDM
                 
                 	.MACRO __GETD2Z
                 	LDD  R26,Z+@0
                 	LDD  R27,Z+@0+1
                 	LDD  R24,Z+@0+2
                 	LDD  R25,Z+@0+3
                 	.ENDM
                 
                 	.MACRO __GETB2MN
                 	LDS  R26,@0+@1
                 	.ENDM
                 
                 	.MACRO __GETW2MN
                 	LDS  R26,@0+@1
                 	LDS  R27,@0+@1+1
                 	.ENDM
                 
                 	.MACRO __GETD2MN
                 	LDS  R26,@0+@1
                 	LDS  R27,@0+@1+1
                 	LDS  R24,@0+@1+2
                 	LDS  R25,@0+@1+3
                 	.ENDM
                 
                 	.MACRO __PUTB1MN
                 	STS  @0+@1,R30
                 	.ENDM
                 
                 	.MACRO __PUTW1MN
                 	STS  @0+@1,R30
                 	STS  @0+@1+1,R31
                 	.ENDM
                 
                 	.MACRO __PUTD1MN
                 	STS  @0+@1,R30
                 	STS  @0+@1+1,R31
                 	STS  @0+@1+2,R22
                 	STS  @0+@1+3,R23
                 	.ENDM
                 
                 	.MACRO __PUTBR0MN
                 	STS  @0+@1,R0
                 	.ENDM
                 
                 	.MACRO __PUTDZ2
                 	STD  Z+@0,R26
                 	STD  Z+@0+1,R27
                 	STD  Z+@0+2,R24
                 	STD  Z+@0+3,R25
                 	.ENDM
                 
                 	.MACRO __PUTBMRN
                 	STS  @0+@1,R@2
                 	.ENDM
                 
                 	.MACRO __PUTWMRN
                 	STS  @0+@1,R@2
                 	STS  @0+@1+1,R@3
                 	.ENDM
                 
                 	.MACRO __PUTBZR
                 	STD  Z+@1,R@0
                 	.ENDM
                 
                 	.MACRO __PUTWZR
                 	STD  Z+@2,R@0
                 	STD  Z+@2+1,R@1
                 	.ENDM
                 
                 	.MACRO __GETW1R
                 	MOV  R30,R@0
                 	MOV  R31,R@1
                 	.ENDM
                 
                 	.MACRO __GETW2R
                 	MOV  R26,R@0
                 	MOV  R27,R@1
                 	.ENDM
                 
                 	.MACRO __GETWRN
                 	LDI  R@0,LOW(@2)
                 	LDI  R@1,HIGH(@2)
                 	.ENDM
                 
                 	.MACRO __PUTW1R
                 	MOV  R@0,R30
                 	MOV  R@1,R31
                 	.ENDM
                 
                 	.MACRO __PUTW2R
                 	MOV  R@0,R26
                 	MOV  R@1,R27
                 	.ENDM
                 
                 	.MACRO __ADDWRN
                 	SUBI R@0,LOW(-@2)
                 	SBCI R@1,HIGH(-@2)
                 	.ENDM
                 
                 	.MACRO __ADDWRR
                 	ADD  R@0,R@2
                 	ADC  R@1,R@3
                 	.ENDM
                 
                 	.MACRO __SUBWRN
                 	SUBI R@0,LOW(@2)
                 	SBCI R@1,HIGH(@2)
                 	.ENDM
                 
                 	.MACRO __SUBWRR
                 	SUB  R@0,R@2
                 	SBC  R@1,R@3
                 	.ENDM
                 
                 	.MACRO __ANDWRN
                 	ANDI R@0,LOW(@2)
                 	ANDI R@1,HIGH(@2)
                 	.ENDM
                 
                 	.MACRO __ANDWRR
                 	AND  R@0,R@2
                 	AND  R@1,R@3
                 	.ENDM
                 
                 	.MACRO __ORWRN
                 	ORI  R@0,LOW(@2)
                 	ORI  R@1,HIGH(@2)
                 	.ENDM
                 
                 	.MACRO __ORWRR
                 	OR   R@0,R@2
                 	OR   R@1,R@3
                 	.ENDM
                 
                 	.MACRO __EORWRR
                 	EOR  R@0,R@2
                 	EOR  R@1,R@3
                 	.ENDM
                 
                 	.MACRO __GETWRS
                 	LDD  R@0,Y+@2
                 	LDD  R@1,Y+@2+1
                 	.ENDM
                 
                 	.MACRO __PUTWSR
                 	STD  Y+@2,R@0
                 	STD  Y+@2+1,R@1
                 	.ENDM
                 
                 	.MACRO __MOVEWRR
                 	MOV  R@0,R@2
                 	MOV  R@1,R@3
                 	.ENDM
                 
                 	.MACRO __INWR
                 	IN   R@0,@2
                 	IN   R@1,@2+1
                 	.ENDM
                 
                 	.MACRO __OUTWR
                 	OUT  @2+1,R@1
                 	OUT  @2,R@0
                 	.ENDM
                 
                 	.MACRO __CALL1MN
                 	LDS  R30,@0+@1
                 	LDS  R31,@0+@1+1
                 	ICALL
                 	.ENDM
                 
                 	.MACRO __CALL1FN
                 	LDI  R30,LOW(2*@0+@1)
                 	LDI  R31,HIGH(2*@0+@1)
                 	CALL __GETW1PF
                 	ICALL
                 	.ENDM
                 
                 	.MACRO __CALL2EN
                 	LDI  R26,LOW(@0+@1)
                 	LDI  R27,HIGH(@0+@1)
                 	CALL __EEPROMRDW
                 	ICALL
                 	.ENDM
                 
                 	.MACRO __GETW1STACK
                 	IN   R26,SPL
                 	IN   R27,SPH
                 	ADIW R26,@0+1
                 	LD   R30,X+
                 	LD   R31,X
                 	.ENDM
                 
                 	.MACRO __NBST
                 	BST  R@0,@1
                 	IN   R30,SREG
                 	LDI  R31,0x40
                 	EOR  R30,R31
                 	OUT  SREG,R30
                 	.ENDM
                 
                 
                 	.MACRO __PUTB1SN
                 	LDD  R26,Y+@0
                 	LDD  R27,Y+@0+1
                 	SUBI R26,LOW(-@1)
                 	SBCI R27,HIGH(-@1)
                 	ST   X,R30
                 	.ENDM
                 
                 	.MACRO __PUTW1SN
                 	LDD  R26,Y+@0
                 	LDD  R27,Y+@0+1
                 	SUBI R26,LOW(-@1)
                 	SBCI R27,HIGH(-@1)
                 	ST   X+,R30
                 	ST   X,R31
                 	.ENDM
                 
                 	.MACRO __PUTD1SN
                 	LDD  R26,Y+@0
                 	LDD  R27,Y+@0+1
                 	SUBI R26,LOW(-@1)
                 	SBCI R27,HIGH(-@1)
                 	CALL __PUTDP1
                 	.ENDM
                 
                 	.MACRO __PUTB1SNS
                 	LDD  R26,Y+@0
                 	LDD  R27,Y+@0+1
                 	ADIW R26,@1
                 	ST   X,R30
                 	.ENDM
                 
                 	.MACRO __PUTW1SNS
                 	LDD  R26,Y+@0
                 	LDD  R27,Y+@0+1
                 	ADIW R26,@1
                 	ST   X+,R30
                 	ST   X,R31
                 	.ENDM
                 
                 	.MACRO __PUTD1SNS
                 	LDD  R26,Y+@0
                 	LDD  R27,Y+@0+1
                 	ADIW R26,@1
                 	CALL __PUTDP1
                 	.ENDM
                 
                 	.MACRO __PUTB1PMN
                 	LDS  R26,@0
                 	LDS  R27,@0+1
                 	SUBI R26,LOW(-@1)
                 	SBCI R27,HIGH(-@1)
                 	ST   X,R30
                 	.ENDM
                 
                 	.MACRO __PUTW1PMN
                 	LDS  R26,@0
                 	LDS  R27,@0+1
                 	SUBI R26,LOW(-@1)
                 	SBCI R27,HIGH(-@1)
                 	ST   X+,R30
                 	ST   X,R31
                 	.ENDM
                 
                 	.MACRO __PUTD1PMN
                 	LDS  R26,@0
                 	LDS  R27,@0+1
                 	SUBI R26,LOW(-@1)
                 	SBCI R27,HIGH(-@1)
                 	CALL __PUTDP1
                 	.ENDM
                 
                 	.MACRO __PUTB1PMNS
                 	LDS  R26,@0
                 	LDS  R27,@0+1
                 	ADIW R26,@1
                 	ST   X,R30
                 	.ENDM
                 
                 	.MACRO __PUTW1PMNS
                 	LDS  R26,@0
                 	LDS  R27,@0+1
                 	ADIW R26,@1
                 	ST   X+,R30
                 	ST   X,R31
                 	.ENDM
                 
                 	.MACRO __PUTD1PMNS
                 	LDS  R26,@0
                 	LDS  R27,@0+1
                 	ADIW R26,@1
                 	CALL __PUTDP1
                 	.ENDM
                 
                 	.MACRO __PUTB1RN
                 	MOVW R26,R@0
                 	SUBI R26,LOW(-@1)
                 	SBCI R27,HIGH(-@1)
                 	ST   X,R30
                 	.ENDM
                 
                 	.MACRO __PUTW1RN
                 	MOVW R26,R@0
                 	SUBI R26,LOW(-@1)
                 	SBCI R27,HIGH(-@1)
                 	ST   X+,R30
                 	ST   X,R31
                 	.ENDM
                 
                 	.MACRO __PUTD1RN
                 	MOVW R26,R@0
                 	SUBI R26,LOW(-@1)
                 	SBCI R27,HIGH(-@1)
                 	CALL __PUTDP1
                 	.ENDM
                 
                 	.MACRO __PUTB1RNS
                 	MOVW R26,R@0
                 	ADIW R26,@1
                 	ST   X,R30
                 	.ENDM
                 
                 	.MACRO __PUTW1RNS
                 	MOVW R26,R@0
                 	ADIW R26,@1
                 	ST   X+,R30
                 	ST   X,R31
                 	.ENDM
                 
                 	.MACRO __PUTD1RNS
                 	MOVW R26,R@0
                 	ADIW R26,@1
                 	CALL __PUTDP1
                 	.ENDM
                 
                 	.MACRO __PUTB1RON
                 	MOV  R26,R@0
                 	MOV  R27,R@1
                 	SUBI R26,LOW(-@2)
                 	SBCI R27,HIGH(-@2)
                 	ST   X,R30
                 	.ENDM
                 
                 	.MACRO __PUTW1RON
                 	MOV  R26,R@0
                 	MOV  R27,R@1
                 	SUBI R26,LOW(-@2)
                 	SBCI R27,HIGH(-@2)
                 	ST   X+,R30
                 	ST   X,R31
                 	.ENDM
                 
                 	.MACRO __PUTD1RON
                 	MOV  R26,R@0
                 	MOV  R27,R@1
                 	SUBI R26,LOW(-@2)
                 	SBCI R27,HIGH(-@2)
                 	CALL __PUTDP1
                 	.ENDM
                 
                 	.MACRO __PUTB1RONS
                 	MOV  R26,R@0
                 	MOV  R27,R@1
                 	ADIW R26,@2
                 	ST   X,R30
                 	.ENDM
                 
                 	.MACRO __PUTW1RONS
                 	MOV  R26,R@0
                 	MOV  R27,R@1
                 	ADIW R26,@2
                 	ST   X+,R30
                 	ST   X,R31
                 	.ENDM
                 
                 	.MACRO __PUTD1RONS
                 	MOV  R26,R@0
                 	MOV  R27,R@1
                 	ADIW R26,@2
                 	CALL __PUTDP1
                 	.ENDM
                 
                 
                 	.MACRO __GETB1SX
                 	MOVW R30,R28
                 	SUBI R30,LOW(-@0)
                 	SBCI R31,HIGH(-@0)
                 	LD   R30,Z
                 	.ENDM
                 
                 	.MACRO __GETB1HSX
                 	MOVW R30,R28
                 	SUBI R30,LOW(-@0)
                 	SBCI R31,HIGH(-@0)
                 	LD   R31,Z
                 	.ENDM
                 
                 	.MACRO __GETW1SX
                 	MOVW R30,R28
                 	SUBI R30,LOW(-@0)
                 	SBCI R31,HIGH(-@0)
                 	LD   R0,Z+
                 	LD   R31,Z
                 	MOV  R30,R0
                 	.ENDM
                 
                 	.MACRO __GETD1SX
                 	MOVW R30,R28
                 	SUBI R30,LOW(-@0)
                 	SBCI R31,HIGH(-@0)
                 	LD   R0,Z+
                 	LD   R1,Z+
                 	LD   R22,Z+
                 	LD   R23,Z
                 	MOVW R30,R0
                 	.ENDM
                 
                 	.MACRO __GETB2SX
                 	MOVW R26,R28
                 	SUBI R26,LOW(-@0)
                 	SBCI R27,HIGH(-@0)
                 	LD   R26,X
                 	.ENDM
                 
                 	.MACRO __GETW2SX
                 	MOVW R26,R28
                 	SUBI R26,LOW(-@0)
                 	SBCI R27,HIGH(-@0)
                 	LD   R0,X+
                 	LD   R27,X
                 	MOV  R26,R0
                 	.ENDM
                 
                 	.MACRO __GETD2SX
                 	MOVW R26,R28
                 	SUBI R26,LOW(-@0)
                 	SBCI R27,HIGH(-@0)
                 	LD   R0,X+
                 	LD   R1,X+
                 	LD   R24,X+
                 	LD   R25,X
                 	MOVW R26,R0
                 	.ENDM
                 
                 	.MACRO __GETBRSX
                 	MOVW R30,R28
                 	SUBI R30,LOW(-@1)
                 	SBCI R31,HIGH(-@1)
                 	LD   R@0,Z
                 	.ENDM
                 
                 	.MACRO __GETWRSX
                 	MOVW R30,R28
                 	SUBI R30,LOW(-@2)
                 	SBCI R31,HIGH(-@2)
                 	LD   R@0,Z+
                 	LD   R@1,Z
                 	.ENDM
                 
                 	.MACRO __LSLW8SX
                 	MOVW R30,R28
                 	SUBI R30,LOW(-@0)
                 	SBCI R31,HIGH(-@0)
                 	LD   R31,Z
                 	CLR  R30
                 	.ENDM
                 
                 	.MACRO __PUTB1SX
                 	MOVW R26,R28
                 	SUBI R26,LOW(-@0)
                 	SBCI R27,HIGH(-@0)
                 	ST   X,R30
                 	.ENDM
                 
                 	.MACRO __PUTW1SX
                 	MOVW R26,R28
                 	SUBI R26,LOW(-@0)
                 	SBCI R27,HIGH(-@0)
                 	ST   X+,R30
                 	ST   X,R31
                 	.ENDM
                 
                 	.MACRO __PUTD1SX
                 	MOVW R26,R28
                 	SUBI R26,LOW(-@0)
                 	SBCI R27,HIGH(-@0)
                 	ST   X+,R30
                 	ST   X+,R31
                 	ST   X+,R22
                 	ST   X,R23
                 	.ENDM
                 
                 	.MACRO __CLRW1SX
                 	MOVW R30,R28
                 	SUBI R30,LOW(-@0)
                 	SBCI R31,HIGH(-@0)
                 	CLR  R0
                 	ST   Z+,R0
                 	ST   Z,R0
                 	.ENDM
                 
                 	.MACRO __CLRD1SX
                 	MOVW R30,R28
                 	SUBI R30,LOW(-@0)
                 	SBCI R31,HIGH(-@0)
                 	CLR  R0
                 	ST   Z+,R0
                 	ST   Z+,R0
                 	ST   Z+,R0
                 	ST   Z,R0
                 	.ENDM
                 
                 	.MACRO __PUTB2SX
                 	MOVW R30,R28
                 	SUBI R30,LOW(-@0)
                 	SBCI R31,HIGH(-@0)
                 	ST   Z,R26
                 	.ENDM
                 
                 	.MACRO __PUTW2SX
                 	MOVW R30,R28
                 	SUBI R30,LOW(-@0)
                 	SBCI R31,HIGH(-@0)
                 	ST   Z+,R26
                 	ST   Z,R27
                 	.ENDM
                 
                 	.MACRO __PUTD2SX
                 	MOVW R30,R28
                 	SUBI R30,LOW(-@0)
                 	SBCI R31,HIGH(-@0)
                 	ST   Z+,R26
                 	ST   Z+,R27
                 	ST   Z+,R24
                 	ST   Z,R25
                 	.ENDM
                 
                 	.MACRO __PUTBSRX
                 	MOVW R30,R28
                 	SUBI R30,LOW(-@0)
                 	SBCI R31,HIGH(-@0)
                 	ST   Z,R@1
                 	.ENDM
                 
                 	.MACRO __PUTWSRX
                 	MOVW R30,R28
                 	SUBI R30,LOW(-@2)
                 	SBCI R31,HIGH(-@2)
                 	ST   Z+,R@0
                 	ST   Z,R@1
                 	.ENDM
                 
                 	.MACRO __PUTB1SNX
                 	MOVW R26,R28
                 	SUBI R26,LOW(-@0)
                 	SBCI R27,HIGH(-@0)
                 	LD   R0,X+
                 	LD   R27,X
                 	MOV  R26,R0
                 	SUBI R26,LOW(-@1)
                 	SBCI R27,HIGH(-@1)
                 	ST   X,R30
                 	.ENDM
                 
                 	.MACRO __PUTW1SNX
                 	MOVW R26,R28
                 	SUBI R26,LOW(-@0)
                 	SBCI R27,HIGH(-@0)
                 	LD   R0,X+
                 	LD   R27,X
                 	MOV  R26,R0
                 	SUBI R26,LOW(-@1)
                 	SBCI R27,HIGH(-@1)
                 	ST   X+,R30
                 	ST   X,R31
                 	.ENDM
                 
                 	.MACRO __PUTD1SNX
                 	MOVW R26,R28
                 	SUBI R26,LOW(-@0)
                 	SBCI R27,HIGH(-@0)
                 	LD   R0,X+
                 	LD   R27,X
                 	MOV  R26,R0
                 	SUBI R26,LOW(-@1)
                 	SBCI R27,HIGH(-@1)
                 	ST   X+,R30
                 	ST   X+,R31
                 	ST   X+,R22
                 	ST   X,R23
                 	.ENDM
                 
                 	.MACRO __MULBRR
                 	MULS R@0,R@1
                 	MOVW R30,R0
                 	.ENDM
                 
                 	.MACRO __MULBRRU
                 	MUL  R@0,R@1
                 	MOVW R30,R0
                 	.ENDM
                 
                 	.MACRO __MULBRR0
                 	MULS R@0,R@1
                 	.ENDM
                 
                 	.MACRO __MULBRRU0
                 	MUL  R@0,R@1
                 	.ENDM
                 
                 	.MACRO __MULBNWRU
                 	LDI  R26,@2
                 	MUL  R26,R@0
                 	MOVW R30,R0
                 	MUL  R26,R@1
                 	ADD  R31,R0
                 	.ENDM
                 
                 	.CSEG
                 	.ORG 0
                 
                 	.INCLUDE "test sysmin HGAS.vec"
                 
                 ;INTERRUPT VECTORS
000000 940c 0217 	JMP  __RESET
000002 940c 0000 	JMP  0x00
000004 940c 0000 	JMP  0x00
000006 940c 0000 	JMP  0x00
000008 940c 0000 	JMP  0x00
00000a 940c 0000 	JMP  0x00
00000c 940c 0000 	JMP  0x00
00000e 940c 0000 	JMP  0x00
000010 940c 0000 	JMP  0x00
000012 940c 07e6 	JMP  _timer0_ovf_isr
000014 940c 0000 	JMP  0x00
000016 940c 0000 	JMP  0x00
000018 940c 0000 	JMP  0x00
00001a 940c 0000 	JMP  0x00
00001c 940c 0000 	JMP  0x00
00001e 940c 0000 	JMP  0x00
000020 940c 0000 	JMP  0x00
000022 940c 0000 	JMP  0x00
000024 940c 0000 	JMP  0x00
000026 940c 0000 	JMP  0x00
000028 940c 0000 	JMP  0x00
                 
                 	.INCLUDE "test sysmin HGAS.inc"
                 
                 	.DEF _sensor=R5
                 	.DEF _adc0=R4
                 	.DEF _adc1=R7
                 	.DEF _adc2=R6
                 	.DEF _adc3=R9
                 	.DEF _adc4=R8
                 	.DEF _adc5=R11
                 	.DEF _adc6=R10
                 	.DEF _adc7=R13
                 	.DEF _ba7=R12
                 _3:
test sysmin HGAS.inc(13): warning: .cseg .db misalignment - padding zero byte
test sysmin HGAS.asm(996): 'test sysmin HGAS.inc' included form here
00002a 0007      	.DB  0x7
                 _4:
test sysmin HGAS.inc(15): warning: .cseg .db misalignment - padding zero byte
test sysmin HGAS.asm(996): 'test sysmin HGAS.inc' included form here
00002b 0007      	.DB  0x7
                 _5:
test sysmin HGAS.inc(17): warning: .cseg .db misalignment - padding zero byte
test sysmin HGAS.asm(996): 'test sysmin HGAS.inc' included form here
00002c 0007      	.DB  0x7
                 _6:
test sysmin HGAS.inc(19): warning: .cseg .db misalignment - padding zero byte
test sysmin HGAS.asm(996): 'test sysmin HGAS.inc' included form here
00002d 0007      	.DB  0x7
                 _7:
test sysmin HGAS.inc(21): warning: .cseg .db misalignment - padding zero byte
test sysmin HGAS.asm(996): 'test sysmin HGAS.inc' included form here
00002e 0007      	.DB  0x7
                 _8:
test sysmin HGAS.inc(23): warning: .cseg .db misalignment - padding zero byte
test sysmin HGAS.asm(996): 'test sysmin HGAS.inc' included form here
00002f 0007      	.DB  0x7
                 _9:
test sysmin HGAS.inc(25): warning: .cseg .db misalignment - padding zero byte
test sysmin HGAS.asm(996): 'test sysmin HGAS.inc' included form here
000030 0007      	.DB  0x7
                 _10:
test sysmin HGAS.inc(27): warning: .cseg .db misalignment - padding zero byte
test sysmin HGAS.asm(996): 'test sysmin HGAS.inc' included form here
000031 0009      	.DB  0x9
                 _11:
test sysmin HGAS.inc(29): warning: .cseg .db misalignment - padding zero byte
test sysmin HGAS.asm(996): 'test sysmin HGAS.inc' included form here
000032 0007      	.DB  0x7
                 _12:
test sysmin HGAS.inc(31): warning: .cseg .db misalignment - padding zero byte
test sysmin HGAS.asm(996): 'test sysmin HGAS.inc' included form here
000033 0007      	.DB  0x7
                 _13:
test sysmin HGAS.inc(33): warning: .cseg .db misalignment - padding zero byte
test sysmin HGAS.asm(996): 'test sysmin HGAS.inc' included form here
000034 0007      	.DB  0x7
                 _14:
test sysmin HGAS.inc(35): warning: .cseg .db misalignment - padding zero byte
test sysmin HGAS.asm(996): 'test sysmin HGAS.inc' included form here
000035 0007      	.DB  0x7
                 _15:
test sysmin HGAS.inc(37): warning: .cseg .db misalignment - padding zero byte
test sysmin HGAS.asm(996): 'test sysmin HGAS.inc' included form here
000036 0007      	.DB  0x7
                 _16:
test sysmin HGAS.inc(39): warning: .cseg .db misalignment - padding zero byte
test sysmin HGAS.asm(996): 'test sysmin HGAS.inc' included form here
000037 0007      	.DB  0x7
                 _17:
test sysmin HGAS.inc(41): warning: .cseg .db misalignment - padding zero byte
test sysmin HGAS.asm(996): 'test sysmin HGAS.inc' included form here
000038 0007      	.DB  0x7
                 _18:
test sysmin HGAS.inc(43): warning: .cseg .db misalignment - padding zero byte
test sysmin HGAS.asm(996): 'test sysmin HGAS.inc' included form here
000039 0009      	.DB  0x9
                 _19:
00003a 00ff      	.DB  0xFF,0x0
                 _tbl10_G2:
00003b 2710
00003c 03e8
00003d 0064
00003e 000a      	.DB  0x10,0x27,0xE8,0x3,0x64,0x0,0xA,0x0
00003f 0001      	.DB  0x1,0x0
                 _tbl16_G2:
000040 1000
000041 0100
000042 0010
000043 0001      	.DB  0x0,0x10,0x0,0x1,0x10,0x0,0x1,0x0
                 _439:
000044 c080      	.DB  0x80,0xC0
                 _0:
000045 2020
000046 6162
000047 7572
000048 625f      	.DB  0x20,0x20,0x62,0x61,0x72,0x75,0x5F,0x62
000049 6c65
00004a 6a61
00004b 7261
00004c 2020      	.DB  0x65,0x6C,0x61,0x6A,0x61,0x72,0x20,0x20
00004d 2000
00004e 2020
00004f 2020
000050 6220      	.DB  0x0,0x20,0x20,0x20,0x20,0x20,0x20,0x62
000051 2079
000052 203a
000053 2020
000054 2020      	.DB  0x79,0x20,0x3A,0x20,0x20,0x20,0x20,0x20
000055 0020
000056 3f20
000057 3f3f
000058 3f3f      	.DB  0x20,0x0,0x20,0x3F,0x3F,0x3F,0x3F,0x3F
000059 3f3f
00005a 3f3f
00005b 3f3f
00005c 3f3f      	.DB  0x3F,0x3F,0x3F,0x3F,0x3F,0x3F,0x3F,0x3F
00005d 203f
00005e 2000
00005f 2121
000060 2121      	.DB  0x3F,0x20,0x0,0x20,0x21,0x21,0x21,0x21
000061 2121
000062 2121
000063 2121
000064 2121      	.DB  0x21,0x21,0x21,0x21,0x21,0x21,0x21,0x21
000065 2121
000066 0020
000067 2020
000068 2020      	.DB  0x21,0x21,0x20,0x0,0x20,0x20,0x20,0x20
000069 4c20
00006a 4b50
00006b 4154
00006c 2020      	.DB  0x20,0x4C,0x50,0x4B,0x54,0x41,0x20,0x20
00006d 2020
00006e 0020
00006f 4620
000070 2054      	.DB  0x20,0x20,0x20,0x0,0x20,0x46,0x54,0x20
000071 202d
000072 4755
000073 204d
000074 202d      	.DB  0x2D,0x20,0x55,0x47,0x4D,0x20,0x2D,0x20
000075 3131
000076 0020
000077 6554
000078 2073      	.DB  0x31,0x31,0x20,0x0,0x54,0x65,0x73,0x20
000079 6c42
00007a 6e69
00007b 006b
00007c 2020      	.DB  0x42,0x6C,0x69,0x6E,0x6B,0x0,0x20,0x20
00007d 2020
00007e 2020
00007f 2020
000080 0020      	.DB  0x20,0x20,0x20,0x20,0x20,0x20,0x20,0x0
000081 2520
000082 2064
000083 6425
000084 5400      	.DB  0x20,0x25,0x64,0x20,0x25,0x64,0x0,0x54
000085 6c75
000086 7369
000087 6b20
000088 2065      	.DB  0x75,0x6C,0x69,0x73,0x20,0x6B,0x65,0x20
000089 4545
00008a 5250
00008b 4d4f
00008c 0020      	.DB  0x45,0x45,0x50,0x52,0x4F,0x4D,0x20,0x0
00008d 2e2e
00008e 202e
00008f 2020
000090 2020      	.DB  0x2E,0x2E,0x2E,0x20,0x20,0x20,0x20,0x20
000091 2020
000092 2020
000093 2020
000094 2020      	.DB  0x20,0x20,0x20,0x20,0x20,0x20,0x20,0x20
000095 5300
000096 7465
000097 4b20
000098 2070      	.DB  0x0,0x53,0x65,0x74,0x20,0x4B,0x70,0x20
000099 203a
00009a 2020
00009b 2020
00009c 2020      	.DB  0x3A,0x20,0x20,0x20,0x20,0x20,0x20,0x20
00009d 0020
00009e 6553
00009f 2074
0000a0 694b      	.DB  0x20,0x0,0x53,0x65,0x74,0x20,0x4B,0x69
0000a1 3a20
0000a2 2020
0000a3 2020
0000a4 2020      	.DB  0x20,0x3A,0x20,0x20,0x20,0x20,0x20,0x20
0000a5 2020
0000a6 5300
0000a7 7465
0000a8 4b20      	.DB  0x20,0x20,0x0,0x53,0x65,0x74,0x20,0x4B
0000a9 2064
0000aa 203a
0000ab 2020
0000ac 2020      	.DB  0x64,0x20,0x3A,0x20,0x20,0x20,0x20,0x20
0000ad 2020
0000ae 0020
0000af 6553
0000b0 2074      	.DB  0x20,0x20,0x20,0x0,0x53,0x65,0x74,0x20
0000b1 414d
0000b2 2058
0000b3 7053
0000b4 6565      	.DB  0x4D,0x41,0x58,0x20,0x53,0x70,0x65,0x65
0000b5 2064
0000b6 203a
0000b7 5300
0000b8 7465      	.DB  0x64,0x20,0x3A,0x20,0x0,0x53,0x65,0x74
0000b9 4d20
0000ba 4e49
0000bb 5320
0000bc 6570      	.DB  0x20,0x4D,0x49,0x4E,0x20,0x53,0x70,0x65
0000bd 6465
0000be 3a20
0000bf 0020
0000c0 6157      	.DB  0x65,0x64,0x20,0x3A,0x20,0x0,0x57,0x61
0000c1 6e72
0000c2 2061
0000c3 6147
0000c4 6972      	.DB  0x72,0x6E,0x61,0x20,0x47,0x61,0x72,0x69
0000c5 2073
0000c6 2020
0000c7 203a
0000c8 5300      	.DB  0x73,0x20,0x20,0x20,0x3A,0x20,0x0,0x53
0000c9 6e65
0000ca 4c73
0000cb 6e69
0000cc 2065      	.DB  0x65,0x6E,0x73,0x4C,0x69,0x6E,0x65,0x20
0000cd 203a
0000ce 2020
0000cf 2020
0000d0 0020      	.DB  0x3A,0x20,0x20,0x20,0x20,0x20,0x20,0x0
0000d1 6b53
0000d2 6e65
0000d3 7261
0000d4 6f69      	.DB  0x53,0x6B,0x65,0x6E,0x61,0x72,0x69,0x6F
0000d5 3a20
0000d6 2020
0000d7 2020
0000d8 2020      	.DB  0x20,0x3A,0x20,0x20,0x20,0x20,0x20,0x20
0000d9 2000
0000da 5320
0000db 7465
0000dc 5020      	.DB  0x0,0x20,0x20,0x53,0x65,0x74,0x20,0x50
0000dd 4449
0000de 2020
0000df 2020
0000e0 2020      	.DB  0x49,0x44,0x20,0x20,0x20,0x20,0x20,0x20
0000e1 0020
0000e2 2020
0000e3 6553
0000e4 2074      	.DB  0x20,0x0,0x20,0x20,0x53,0x65,0x74,0x20
0000e5 7053
0000e6 6565
0000e7 2064
0000e8 2020      	.DB  0x53,0x70,0x65,0x65,0x64,0x20,0x20,0x20
0000e9 2020
0000ea 2000
0000eb 5320
0000ec 7465      	.DB  0x20,0x20,0x0,0x20,0x20,0x53,0x65,0x74
0000ed 4720
0000ee 7261
0000ef 7369
0000f0 2020      	.DB  0x20,0x47,0x61,0x72,0x69,0x73,0x20,0x20
0000f1 2020
0000f2 0020
0000f3 2020
0000f4 6b53      	.DB  0x20,0x20,0x20,0x0,0x20,0x20,0x53,0x6B
0000f5 6e65
0000f6 7261
0000f7 6f69
0000f8 2020      	.DB  0x65,0x6E,0x61,0x72,0x69,0x6F,0x20,0x20
0000f9 2020
0000fa 2020
0000fb 2000
0000fc 5320      	.DB  0x20,0x20,0x20,0x20,0x0,0x20,0x20,0x53
0000fd 7465
0000fe 4d20
0000ff 646f
000100 2065      	.DB  0x65,0x74,0x20,0x4D,0x6F,0x64,0x65,0x20
000101 2020
000102 2020
000103 2020
000104 2020      	.DB  0x20,0x20,0x20,0x20,0x20,0x20,0x20,0x20
000105 2000
000106 5320
000107 6174
000108 7472      	.DB  0x0,0x20,0x20,0x53,0x74,0x61,0x72,0x74
000109 2121
00010a 2020
00010b 2020
00010c 2020      	.DB  0x21,0x21,0x20,0x20,0x20,0x20,0x20,0x20
00010d 2000
00010e 4b20
00010f 2070
000110 2020      	.DB  0x0,0x20,0x20,0x4B,0x70,0x20,0x20,0x20
000111 694b
000112 2020
000113 4b20
000114 2064      	.DB  0x4B,0x69,0x20,0x20,0x20,0x4B,0x64,0x20
000115 0020
000116 2020
000117 4d20
000118 5841      	.DB  0x20,0x0,0x20,0x20,0x20,0x4D,0x41,0x58
000119 2020
00011a 2020
00011b 494d
00011c 204e      	.DB  0x20,0x20,0x20,0x20,0x4D,0x49,0x4E,0x20
00011d 2020
00011e 2000
00011f 5720
000120 5241      	.DB  0x20,0x20,0x0,0x20,0x20,0x57,0x41,0x52
000121 414e
000122 3a20
000123 5020
000124 7475      	.DB  0x4E,0x41,0x20,0x3A,0x20,0x50,0x75,0x74
000125 6869
000126 0020
000127 2020
000128 4157      	.DB  0x69,0x68,0x20,0x0,0x20,0x20,0x57,0x41
000129 4e52
00012a 2041
00012b 203a
00012c 6948      	.DB  0x52,0x4E,0x41,0x20,0x3A,0x20,0x48,0x69
00012d 6174
00012e 206d
00012f 2000
000130 5320      	.DB  0x74,0x61,0x6D,0x20,0x0,0x20,0x20,0x53
000131 6e65
000132 4c73
000133 3a20
000134 2020      	.DB  0x65,0x6E,0x73,0x4C,0x20,0x3A,0x20,0x20
000135 2020
000136 2020
000137 2020
000138 5300      	.DB  0x20,0x20,0x20,0x20,0x20,0x20,0x0,0x53
000139 656b
00013a 2e6e
00013b 7920
00013c 2067      	.DB  0x6B,0x65,0x6E,0x2E,0x20,0x79,0x67,0x20
00013d 6420
00013e 6170
00013f 656b
000140 003a      	.DB  0x20,0x64,0x70,0x61,0x6B,0x65,0x3A,0x0
000141 4d20
000142 646f
000143 2065
000144 203a      	.DB  0x20,0x4D,0x6F,0x64,0x65,0x20,0x3A,0x20
000145 2020
000146 2020
000147 2020
000148 2020      	.DB  0x20,0x20,0x20,0x20,0x20,0x20,0x20,0x20
000149 2000
00014a 2e31
00014b 694c
00014c 6168      	.DB  0x0,0x20,0x31,0x2E,0x4C,0x69,0x68,0x61
00014d 2074
00014e 4441
00014f 0043
000150 3220      	.DB  0x74,0x20,0x41,0x44,0x43,0x0,0x20,0x32
000151 542e
000152 7365
000153 2074
000154 6f4d      	.DB  0x2E,0x54,0x65,0x73,0x74,0x20,0x4D,0x6F
000155 6564
000156 2000
000157 2e33
000158 6543      	.DB  0x64,0x65,0x0,0x20,0x33,0x2E,0x43,0x65
000159 206b
00015a 6553
00015b 736e
00015c 726f      	.DB  0x6B,0x20,0x53,0x65,0x6E,0x73,0x6F,0x72
00015d 0020
00015e 3420
00015f 412e
000160 7475      	.DB  0x20,0x0,0x20,0x34,0x2E,0x41,0x75,0x74
000161 206f
000162 7554
000163 656e
000164 3120      	.DB  0x6F,0x20,0x54,0x75,0x6E,0x65,0x20,0x31
000165 312d
000166 2000
000167 2e35
000168 7541      	.DB  0x2D,0x31,0x0,0x20,0x35,0x2E,0x41,0x75
000169 6f74
00016a 5420
00016b 6e75
00016c 2065      	.DB  0x74,0x6F,0x20,0x54,0x75,0x6E,0x65,0x20
00016d 2000
00016e 2e36
00016f 6543
000170 206b      	.DB  0x0,0x20,0x36,0x2E,0x43,0x65,0x6B,0x20
000171 5750
000172 204d
000173 6b41
000174 6974      	.DB  0x50,0x57,0x4D,0x20,0x41,0x6B,0x74,0x69
000175 0066
000176 2020
000177 6425
000178 2520      	.DB  0x66,0x0,0x20,0x20,0x25,0x64,0x20,0x25
000179 2064
00017a 6425
00017b 2520
00017c 0064      	.DB  0x64,0x20,0x25,0x64,0x20,0x25,0x64,0x0
00017d 5420
00017e 7365
00017f 3a74
000180 6553      	.DB  0x20,0x54,0x65,0x73,0x74,0x3A,0x53,0x65
000181 736e
000182 726f
000183 2020
000184 2020      	.DB  0x6E,0x73,0x6F,0x72,0x20,0x20,0x20,0x20
000185 2000
000186 6262
000187 2030
000188 6220      	.DB  0x0,0x20,0x62,0x62,0x30,0x20,0x20,0x62
000189 3061
00018a 2020
00018b 7462
00018c 0030      	.DB  0x61,0x30,0x20,0x20,0x62,0x74,0x30,0x0
00018d 2520
00018e 2064
00018f 2520
000190 2064      	.DB  0x20,0x25,0x64,0x20,0x20,0x25,0x64,0x20
000191 2520
000192 0064
000193 6220
000194 3162      	.DB  0x20,0x25,0x64,0x0,0x20,0x62,0x62,0x31
000195 2020
000196 6162
000197 2031
000198 6220      	.DB  0x20,0x20,0x62,0x61,0x31,0x20,0x20,0x62
000199 3174
00019a 2000
00019b 6262
00019c 2032      	.DB  0x74,0x31,0x0,0x20,0x62,0x62,0x32,0x20
00019d 6220
00019e 3261
00019f 2020
0001a0 7462      	.DB  0x20,0x62,0x61,0x32,0x20,0x20,0x62,0x74
0001a1 0032
0001a2 6220
0001a3 3362
0001a4 2020      	.DB  0x32,0x0,0x20,0x62,0x62,0x33,0x20,0x20
0001a5 6162
0001a6 2033
0001a7 6220
0001a8 3374      	.DB  0x62,0x61,0x33,0x20,0x20,0x62,0x74,0x33
0001a9 2000
0001aa 6262
0001ab 2034
0001ac 6220      	.DB  0x0,0x20,0x62,0x62,0x34,0x20,0x20,0x62
0001ad 3461
0001ae 2020
0001af 7462
0001b0 0034      	.DB  0x61,0x34,0x20,0x20,0x62,0x74,0x34,0x0
0001b1 6220
0001b2 3562
0001b3 2020
0001b4 6162      	.DB  0x20,0x62,0x62,0x35,0x20,0x20,0x62,0x61
0001b5 2035
0001b6 6220
0001b7 3574
0001b8 2000      	.DB  0x35,0x20,0x20,0x62,0x74,0x35,0x0,0x20
0001b9 6262
0001ba 2036
0001bb 6220
0001bc 3661      	.DB  0x62,0x62,0x36,0x20,0x20,0x62,0x61,0x36
0001bd 2020
0001be 7462
0001bf 0036
0001c0 6220      	.DB  0x20,0x20,0x62,0x74,0x36,0x0,0x20,0x62
0001c1 3762
0001c2 2020
0001c3 6162
0001c4 2037      	.DB  0x62,0x37,0x20,0x20,0x62,0x61,0x37,0x20
0001c5 6220
0001c6 3774
0001c7 2500
0001c8 2064      	.DB  0x20,0x62,0x74,0x37,0x0,0x25,0x64,0x20
0001c9 6425
0001ca 2520
0001cb 2064
0001cc 6425      	.DB  0x25,0x64,0x20,0x25,0x64,0x20,0x25,0x64
0001cd 2520
0001ce 2064
0001cf 6425
0001d0 2520      	.DB  0x20,0x25,0x64,0x20,0x25,0x64,0x20,0x25
0001d1 2064
0001d2 6425
0001d3 2500
0001d4 2064      	.DB  0x64,0x20,0x25,0x64,0x0,0x25,0x64,0x20
0001d5 2020
0001d6 6425
0001d7 2000
0001d8 2020      	.DB  0x20,0x20,0x25,0x64,0x0,0x20,0x20,0x20
0001d9 2020
0001da 2020
0001db 2020
0001dc 2020      	.DB  0x20,0x20,0x20,0x20,0x20,0x20,0x20,0x20
0001dd 2020
0001de 2020
0001df 0020      	.DB  0x20,0x20,0x20,0x20,0x20,0x0
                 
                 __GLOBAL_INI_TBL:
0001e0 0001      	.DW  0x01
0001e1 000c      	.DW  0x0C
0001e2 0054      	.DW  _3*2
                 
0001e3 0001      	.DW  0x01
0001e4 0170      	.DW  _ba6
0001e5 0056      	.DW  _4*2
                 
0001e6 0001      	.DW  0x01
0001e7 0171      	.DW  _ba5
0001e8 0058      	.DW  _5*2
                 
0001e9 0001      	.DW  0x01
0001ea 0172      	.DW  _ba4
0001eb 005a      	.DW  _6*2
                 
0001ec 0001      	.DW  0x01
0001ed 0173      	.DW  _ba3
0001ee 005c      	.DW  _7*2
                 
0001ef 0001      	.DW  0x01
0001f0 0174      	.DW  _ba2
0001f1 005e      	.DW  _8*2
                 
0001f2 0001      	.DW  0x01
0001f3 0175      	.DW  _ba1
0001f4 0060      	.DW  _9*2
                 
0001f5 0001      	.DW  0x01
0001f6 0176      	.DW  _ba0
0001f7 0062      	.DW  _10*2
                 
0001f8 0001      	.DW  0x01
0001f9 0177      	.DW  _bb7
0001fa 0064      	.DW  _11*2
                 
0001fb 0001      	.DW  0x01
0001fc 0178      	.DW  _bb6
0001fd 0066      	.DW  _12*2
                 
0001fe 0001      	.DW  0x01
0001ff 0179      	.DW  _bb5
000200 0068      	.DW  _13*2
                 
000201 0001      	.DW  0x01
000202 017a      	.DW  _bb4
000203 006a      	.DW  _14*2
                 
000204 0001      	.DW  0x01
000205 017b      	.DW  _bb3
000206 006c      	.DW  _15*2
                 
000207 0001      	.DW  0x01
000208 017c      	.DW  _bb2
000209 006e      	.DW  _16*2
                 
00020a 0001      	.DW  0x01
00020b 017d      	.DW  _bb1
00020c 0070      	.DW  _17*2
                 
00020d 0001      	.DW  0x01
00020e 017e      	.DW  _bb0
00020f 0072      	.DW  _18*2
                 
000210 0002      	.DW  0x02
000211 0184      	.DW  _MAXPWM
000212 0074      	.DW  _19*2
                 
000213 0002      	.DW  0x02
000214 01c2      	.DW  __base_y_G3
000215 0088      	.DW  _439*2
                 
000216 0000      	.DW  0
                 _0x1E4:
                 
                 __RESET:
000217 94f8      	CLI
000218 27ee      	CLR  R30
000219 bbec      	OUT  EECR,R30
                 
                 ;INTERRUPT VECTORS ARE PLACED
                 ;AT THE START OF FLASH
00021a e0f1      	LDI  R31,1
00021b bffb      	OUT  GICR,R31
00021c bfeb      	OUT  GICR,R30
00021d bfe5      	OUT  MCUCR,R30
                 
                 ;DISABLE WATCHDOG
00021e e1f8      	LDI  R31,0x18
00021f bdf1      	OUT  WDTCR,R31
000220 bde1      	OUT  WDTCR,R30
                 
                 ;CLEAR R2-R14
000221 e08d      	LDI  R24,13
000222 e0a2      	LDI  R26,2
000223 27bb      	CLR  R27
                 __CLEAR_REG:
000224 93ed      	ST   X+,R30
000225 958a      	DEC  R24
000226 f7e9      	BRNE __CLEAR_REG
                 
                 ;CLEAR SRAM
000227 e080      	LDI  R24,LOW(0x400)
000228 e094      	LDI  R25,HIGH(0x400)
000229 e6a0      	LDI  R26,0x60
                 __CLEAR_SRAM:
00022a 93ed      	ST   X+,R30
00022b 9701      	SBIW R24,1
00022c f7e9      	BRNE __CLEAR_SRAM
                 
                 ;GLOBAL VARIABLES INITIALIZATION
00022d ece0      	LDI  R30,LOW(__GLOBAL_INI_TBL*2)
00022e e0f3      	LDI  R31,HIGH(__GLOBAL_INI_TBL*2)
                 __GLOBAL_INI_NEXT:
00022f 9185      	LPM  R24,Z+
000230 9195      	LPM  R25,Z+
000231 9700      	SBIW R24,0
000232 f061      	BREQ __GLOBAL_INI_END
000233 91a5      	LPM  R26,Z+
000234 91b5      	LPM  R27,Z+
000235 9005      	LPM  R0,Z+
000236 9015      	LPM  R1,Z+
000237 01bf      	MOVW R22,R30
000238 01f0      	MOVW R30,R0
                 __GLOBAL_INI_LOOP:
000239 9005      	LPM  R0,Z+
00023a 920d      	ST   X+,R0
00023b 9701      	SBIW R24,1
00023c f7e1      	BRNE __GLOBAL_INI_LOOP
00023d 01fb      	MOVW R30,R22
00023e cff0      	RJMP __GLOBAL_INI_NEXT
                 __GLOBAL_INI_END:
                 
                 ;STACK POINTER INITIALIZATION
00023f e5ef      	LDI  R30,LOW(0x45F)
000240 bfed      	OUT  SPL,R30
000241 e0e4      	LDI  R30,HIGH(0x45F)
000242 bfee      	OUT  SPH,R30
                 
                 ;DATA STACK POINTER INITIALIZATION
000243 e6c0      	LDI  R28,LOW(0x160)
000244 e0d1      	LDI  R29,HIGH(0x160)
                 
000245 940c 0254 	JMP  _main
                 
                 	.ESEG
                 	.ORG 0
                 
                 	.DSEG
                 	.ORG 0x160
                 ;       1 /*****************************************************
                 ;       2 This program was produced by the
                 ;       3 CodeWizardAVR V1.25.3 Standard
                 ;       4 Automatic Program Generator
                 ;       5  Copyright 1998-2007 Pavel Haiduc, HP InfoTech s.r.l.
                 ;       6 http://www.hpinfotech.com
                 ;       7 
                 ;       8 Project :
                 ;       9 Version :
                 ;      10 Date    : 6/25/2008
                 ;      11 Author  : F4CG
                 ;      12 Company : F4CG
                 ;      13 Comments: test PID
                 ;      14 
                 ;      15 
                 ;      16 Chip type           : ATmega16
                 ;      17 Program type        : Application
                 ;      18 Clock frequency     : 12.000000 MHz
                 ;      19 Memory model        : Small
                 ;      20 External SRAM size  : 0
                 ;      21 Data Stack size     : 256
                 ;      22 *****************************************************/
                 ;      23 
                 ;      24 #include <mega16.h>
                 ;      25 #include <delay.h>
                 ;      26 #include <stdio.h>
                 ;      27 #include <lcd.h>
                 ;      28 
                 ;      29 #define sw_ok     PINC.0
                 ;      30 #define sw_cancel PINC.1
                 ;      31 #define sw_up     PINC.2
                 ;      32 #define sw_down   PINC.3
                 ;      33 
                 ;      34 #define Enki PORTD.4
                 ;      35 #define kirplus PORTD.6
                 ;      36 #define kirmin PORTD.3
                 ;      37 #define Enka PORTD.5
                 ;      38 #define kaplus PORTD.1
                 ;      39 #define kamin PORTD.0
                 ;      40 
                 ;      41 #define ADC_VREF_TYPE 0x20
                 ;      42 
                 ;      43 #asm
                 ;      44    .equ __lcd_port=0x18 ;PORTB
                    .equ __lcd_port=0x18 ;PORTB
                 ;      45 #endasm
                 ;      46 
                 ;      47 char lcd[16];
                 _lcd:
000160           	.BYTE 0x10
                 ;      48 unsigned char sensor, adc0, adc1, adc2, adc3, adc4, adc5, adc6, adc7;
                 ;      49 //unsigned char b7=37,b6=50,b5=9,b4=10,b3=8,b2=15,b1=25,b0=30;
                 ;      50 unsigned char eeprom bt7=7,bt6=7,bt5=7,bt4=7,bt3=7,bt2=7,bt1=7,bt0=9;
                 
                 	.ESEG
                 _bt7:
000000 07        	.DB  0x7
                 _bt6:
000001 07        	.DB  0x7
                 _bt5:
000002 07        	.DB  0x7
                 _bt4:
000003 07        	.DB  0x7
                 _bt3:
000004 07        	.DB  0x7
                 _bt2:
000005 07        	.DB  0x7
                 _bt1:
000006 07        	.DB  0x7
                 _bt0:
000007 09        	.DB  0x9
                 ;      51 unsigned char ba7=7,ba6=7,ba5=7,ba4=7,ba3=7,ba2=7,ba1=7,ba0=9;
                 
                 	.DSEG
                 _ba6:
000170           	.BYTE 0x1
                 _ba5:
000171           	.BYTE 0x1
                 _ba4:
000172           	.BYTE 0x1
                 _ba3:
000173           	.BYTE 0x1
                 _ba2:
000174           	.BYTE 0x1
                 _ba1:
000175           	.BYTE 0x1
                 _ba0:
000176           	.BYTE 0x1
                 ;      52 unsigned char bb7=7,bb6=7,bb5=7,bb4=7,bb3=7,bb2=7,bb1=7,bb0=9;
                 _bb7:
000177           	.BYTE 0x1
                 _bb6:
000178           	.BYTE 0x1
                 _bb5:
000179           	.BYTE 0x1
                 _bb4:
00017a           	.BYTE 0x1
                 _bb3:
00017b           	.BYTE 0x1
                 _bb2:
00017c           	.BYTE 0x1
                 _bb1:
00017d           	.BYTE 0x1
                 _bb0:
00017e           	.BYTE 0x1
                 ;      53 unsigned char xcount;
                 _xcount:
00017f           	.BYTE 0x1
                 ;      54 bit s0,s1,s2,s3,s4,s5,s6,s7;
                 ;      55 int lpwm, rpwm, MAXPWM=255, MINPWM=0, intervalPWM;
                 _lpwm:
000180           	.BYTE 0x2
                 _rpwm:
000182           	.BYTE 0x2
                 _MAXPWM:
000184           	.BYTE 0x2
                 _MINPWM:
000186           	.BYTE 0x2
                 _intervalPWM:
000188           	.BYTE 0x2
                 ;      56 typedef unsigned char byte;
                 ;      57 int PV, error, last_error, d_error, i_speed=0;
                 _PV:
00018a           	.BYTE 0x2
                 _error:
00018c           	.BYTE 0x2
                 _last_error:
00018e           	.BYTE 0x2
                 _d_error:
000190           	.BYTE 0x2
                 _i_speed:
000192           	.BYTE 0x2
                 ;      58 int var_Kp, var_Ki, var_Kd;
                 _var_Kp:
000194           	.BYTE 0x2
                 _var_Ki:
000196           	.BYTE 0x2
                 _var_Kd:
000198           	.BYTE 0x2
                 ;      59 byte kursorPID, kursorSpeed, kursorGaris;
                 _kursorPID:
00019a           	.BYTE 0x1
                 _kursorSpeed:
00019b           	.BYTE 0x1
                 _kursorGaris:
00019c           	.BYTE 0x1
                 ;      60 char lcd_buffer[33];
                 _lcd_buffer:
00019d           	.BYTE 0x21
                 ;      61 int b;
                 _b:
0001be           	.BYTE 0x2
                 ;      62 
                 ;      63 eeprom byte Kp = 20;
                 
                 	.ESEG
                 _Kp:
000008 14        	.DB  0x14
                 ;      64 eeprom byte Ki = 10;
                 _Ki:
000009 0a        	.DB  0xA
                 ;      65 eeprom byte Kd = 15;
                 _Kd:
00000a 0f        	.DB  0xF
                 ;      66 eeprom byte MAXSpeed = 255;
                 _MAXSpeed:
00000b ff        	.DB  0xFF
                 ;      67 eeprom byte MINSpeed = 0;
                 _MINSpeed:
00000c 00        	.DB  0x0
                 ;      68 eeprom byte WarnaGaris = 0; // 1 : putih; 0 : hitam
                 _WarnaGaris:
00000d 00        	.DB  0x0
                 ;      69 eeprom byte SensLine = 2; // banyaknya sensor dlm 1 garis
                 _SensLine:
00000e 02        	.DB  0x2
                 ;      70 eeprom byte Skenario = 2;
                 _Skenario:
00000f 02        	.DB  0x2
                 ;      71 eeprom byte Mode = 1;
                 _Mode:
000010 01        	.DB  0x1
                 ;      72 
                 ;      73 void showMenu();
                 ;      74 void displaySensorBit();
                 ;      75 void maju();
                 ;      76 void mundur();
                 ;      77 void bkan();
                 ;      78 void bkir();
                 ;      79 void rotkan();
                 ;      80 void rotkir();
                 ;      81 void stop();
                 ;      82 void ikuti_garis();
                 ;      83 void cek_sensor();
                 ;      84 void baca_sensor();
                 ;      85 void tune_batas();
                 ;      86 void auto_scan();
                 ;      87 void pemercepat();
                 ;      88 void pelambat();
                 ;      89 void TesBlink();
                 ;      90 
                 ;      91 unsigned char read_adc(unsigned char adc_input)
                 ;      92 {
                 
                 	.CSEG
                 _read_adc:
                 ;      93     ADMUX=adc_input | (ADC_VREF_TYPE & 0xff);
                 ;	adc_input -> Y+0
000247 81e8      	LD   R30,Y
000248 62e0      	ORI  R30,0x20
000249 b9e7      	OUT  0x7,R30
                 ;      94     delay_us(10);       // time sampling
00024a e18b
00024b 958a
00024c f7f1      	__DELAY_USB 27
                 ;      95     ADCSRA|=0x40;
00024d 9a36      	SBI  0x6,6
                 ;      96     while ((ADCSRA & 0x10)==0);
                 _0x14:
00024e 9b34      	SBIS 0x6,4
00024f cffe      	RJMP _0x14
                 ;      97     ADCSRA|=0x10;
000250 9a34      	SBI  0x6,4
                 ;      98     return ADCH;
000251 b1e5      	IN   R30,0x5
000252 9621      	ADIW R28,1
000253 9508      	RET
                 ;      99 }
                 ;     100 
                 ;     101 /*flash byte char0[8]=
                 ;     102 {
                 ;     103     0b1100000,
                 ;     104     0b0011000,
                 ;     105     0b0000110,
                 ;     106     0b1111111,
                 ;     107     0b1111111,
                 ;     108     0b0000110,
                 ;     109     0b0011000,
                 ;     110     0b1100000
                 ;     111 };*/
                 ;     112 
                 ;     113 void define_char(byte flash *pc,byte char_code)
                 ;     114 {
                 ;     115     byte i,a;
                 ;     116     a=(char_code<<3) | 0x40;
                 ;	*pc -> Y+3
                 ;	char_code -> Y+2
                 ;	i -> R17
                 ;	a -> R16
                 ;     117     for (i=0; i<8; i++) lcd_write_byte(a++,*pc++);
                 ;     118 }
                 ;     119 
                 ;     120 void main(void)
                 ;     121 {
                 _main:
                 ;     122 PORTA=0x00;
000254 e0e0      	LDI  R30,LOW(0)
000255 bbeb      	OUT  0x1B,R30
                 ;     123 DDRA=0x00;
000256 bbea      	OUT  0x1A,R30
                 ;     124 
                 ;     125 PORTB=0x00;
000257 bbe8      	OUT  0x18,R30
                 ;     126 DDRB=0xFF;
000258 efef      	LDI  R30,LOW(255)
000259 bbe7      	OUT  0x17,R30
                 ;     127 
                 ;     128 PORTC=0x0F;
00025a e0ef      	LDI  R30,LOW(15)
00025b bbe5      	OUT  0x15,R30
                 ;     129 DDRC=0x00;
00025c e0e0      	LDI  R30,LOW(0)
00025d bbe4      	OUT  0x14,R30
                 ;     130 
                 ;     131 PORTD=0x00;
00025e bbe2      	OUT  0x12,R30
                 ;     132 DDRD=0xFF;
00025f efef      	LDI  R30,LOW(255)
000260 bbe1      	OUT  0x11,R30
                 ;     133 
                 ;     134 TCCR0=0x00;
000261 e0e0      	LDI  R30,LOW(0)
000262 bfe3      	OUT  0x33,R30
                 ;     135 TCNT0=0x00;
000263 bfe2      	OUT  0x32,R30
                 ;     136 OCR0=0x00;
000264 bfec      	OUT  0x3C,R30
                 ;     137 
                 ;     138 TCCR1A=0x00;
000265 bdef      	OUT  0x2F,R30
                 ;     139 TCCR1B=0x00;
000266 bdee      	OUT  0x2E,R30
                 ;     140 TCNT1H=0x00;
000267 bded      	OUT  0x2D,R30
                 ;     141 TCNT1L=0x00;
000268 bdec      	OUT  0x2C,R30
                 ;     142 ICR1H=0x00;
000269 bde7      	OUT  0x27,R30
                 ;     143 ICR1L=0x00;
00026a bde6      	OUT  0x26,R30
                 ;     144 OCR1AH=0x00;
00026b bdeb      	OUT  0x2B,R30
                 ;     145 OCR1AL=0x00;
00026c bdea      	OUT  0x2A,R30
                 ;     146 OCR1BH=0x00;
00026d bde9      	OUT  0x29,R30
                 ;     147 OCR1BL=0x00;
00026e bde8      	OUT  0x28,R30
                 ;     148 
                 ;     149 ASSR=0x00;
00026f bde2      	OUT  0x22,R30
                 ;     150 TCCR2=0x00;
000270 bde5      	OUT  0x25,R30
                 ;     151 TCNT2=0x00;
000271 bde4      	OUT  0x24,R30
                 ;     152 OCR2=0x00;
000272 bde3      	OUT  0x23,R30
                 ;     153 
                 ;     154 MCUCR=0x00;
000273 bfe5      	OUT  0x35,R30
                 ;     155 MCUCSR=0x00;
000274 bfe4      	OUT  0x34,R30
                 ;     156 
                 ;     157 TIMSK=0x01;
000275 e0e1      	LDI  R30,LOW(1)
000276 bfe9      	OUT  0x39,R30
                 ;     158 
                 ;     159 ACSR=0x80;
000277 e8e0      	LDI  R30,LOW(128)
000278 b9e8      	OUT  0x8,R30
                 ;     160 SFIOR=0x00;
000279 e0e0      	LDI  R30,LOW(0)
00027a bfe0      	OUT  0x30,R30
                 ;     161 
                 ;     162 ADMUX=ADC_VREF_TYPE & 0xff;
00027b e2e0      	LDI  R30,LOW(32)
00027c b9e7      	OUT  0x7,R30
                 ;     163 ADCSRA=0x84;
00027d e8e4      	LDI  R30,LOW(132)
00027e b9e6      	OUT  0x6,R30
                 ;     164 
                 ;     165 lcd_init(16);
00027f e1e0      	LDI  R30,LOW(16)
000280 93ea      	ST   -Y,R30
000281 940e 0ea8 	CALL _lcd_init
                 ;     166 
                 ;     167 //define_char(char0,0);
                 ;     168 
                 ;     169 TCCR0=0x00;
000283 e0e0      	LDI  R30,LOW(0)
000284 bfe3      	OUT  0x33,R30
                 ;     170 stop();
000285 d5a2      	RCALL _stop
                 ;     171 
                 ;     172 delay_ms(125);
000286 940e 0ee0 	CALL SUBOPT_0x0
                 ;     173 lcd_gotoxy(0,0);
                 ;     174         // 0123456789ABCDEF
                 ;     175 lcd_putsf("  baru_belajar  ");
000288 e8ea
000289 e0f0      	__POINTW1FN _0,0
00028a 940e 0eeb 	CALL SUBOPT_0x1
                 ;     176 lcd_gotoxy(0,1);
00028c 940e 0eef 	CALL SUBOPT_0x2
                 ;     177 lcd_putsf("      by :      ");
00028e e9eb
00028f e0f0      	__POINTW1FN _0,17
000290 940e 0eeb 	CALL SUBOPT_0x1
                 ;     178 delay_ms(500);
000292 940e 0ef5 	CALL SUBOPT_0x3
                 ;     179 lcd_clear();
                 ;     180 
                 ;     181 delay_ms(125);
000294 940e 0ee0 	CALL SUBOPT_0x0
                 ;     182 lcd_gotoxy(0,0);
                 ;     183         // 0123456789ABCDEF
                 ;     184 lcd_putsf(" ?????????????? ");
000296 eaec
000297 e0f0      	__POINTW1FN _0,34
000298 940e 0eeb 	CALL SUBOPT_0x1
                 ;     185 lcd_gotoxy(0,1);
00029a 940e 0eef 	CALL SUBOPT_0x2
                 ;     186 lcd_putsf(" !!!!!!!!!!!!!! ");
00029c ebed
00029d e0f0      	__POINTW1FN _0,51
00029e 940e 0eeb 	CALL SUBOPT_0x1
                 ;     187 delay_ms(1300);
0002a0 e1e4      	LDI  R30,LOW(1300)
0002a1 e0f5      	LDI  R31,HIGH(1300)
0002a2 940e 0efd 	CALL SUBOPT_0x4
                 ;     188 lcd_clear();
0002a4 940e 0e36 	CALL _lcd_clear
                 ;     189 
                 ;     190 delay_ms(125);
0002a6 940e 0ee0 	CALL SUBOPT_0x0
                 ;     191 lcd_gotoxy(0,0);
                 ;     192         // 0123456789ABCDEF
                 ;     193 lcd_putsf("     LPKTA     ");
0002a8 ecee
0002a9 e0f0      	__POINTW1FN _0,68
0002aa 940e 0eeb 	CALL SUBOPT_0x1
                 ;     194 lcd_gotoxy(0,1);
0002ac 940e 0eef 	CALL SUBOPT_0x2
                 ;     195 lcd_putsf(" FT - UGM - 11 ");
0002ae edee
0002af e0f0      	__POINTW1FN _0,84
0002b0 940e 0eeb 	CALL SUBOPT_0x1
                 ;     196 delay_ms(500);
0002b2 940e 0ef5 	CALL SUBOPT_0x3
                 ;     197 lcd_clear();
                 ;     198 
                 ;     199 TCCR0=0x05;
0002b4 e0e5      	LDI  R30,LOW(5)
0002b5 bfe3      	OUT  0x33,R30
                 ;     200 #asm("sei")
0002b6 9478      	sei
                 ;     201 
                 ;     202 //                    <<-----------SEMI RESET-----------<<
                 ;     203 
                 ;     204 mundur();
0002b7 d557      	RCALL _mundur
                 ;     205 //TesBlink();
                 ;     206 delay_ms(200);
0002b8 940e 0f01 	CALL SUBOPT_0x5
                 ;     207 stop();
0002ba d56d      	RCALL _stop
                 ;     208 // read eeprom
                 ;     209 var_Kp  = Kp;
0002bb 940e 0f04 	CALL SUBOPT_0x6
0002bd e0f0      	LDI  R31,0
0002be 93e0 0194 	STS  _var_Kp,R30
0002c0 93f0 0195 	STS  _var_Kp+1,R31
                 ;     210 var_Ki  = Ki;
0002c2 940e 0f09 	CALL SUBOPT_0x7
0002c4 e0f0      	LDI  R31,0
0002c5 93e0 0196 	STS  _var_Ki,R30
0002c7 93f0 0197 	STS  _var_Ki+1,R31
                 ;     211 var_Kd  = Kd;
0002c9 940e 0f0e 	CALL SUBOPT_0x8
0002cb e0f0      	LDI  R31,0
0002cc 93e0 0198 	STS  _var_Kd,R30
0002ce 93f0 0199 	STS  _var_Kd+1,R31
                 ;     212 MAXPWM  = (int)MAXSpeed + 1;
0002d0 940e 0f13 	CALL SUBOPT_0x9
0002d2 e0f0      	LDI  R31,0
0002d3 9631      	ADIW R30,1
0002d4 93e0 0184 	STS  _MAXPWM,R30
0002d6 93f0 0185 	STS  _MAXPWM+1,R31
                 ;     213 MINPWM  = MINSpeed;
0002d8 940e 0f18 	CALL SUBOPT_0xA
0002da e0f0      	LDI  R31,0
0002db 93e0 0186 	STS  _MINPWM,R30
0002dd 93f0 0187 	STS  _MINPWM+1,R31
                 ;     214 
                 ;     215 intervalPWM = (MAXSpeed - MINSpeed) / 8;
0002df 940e 0f13 	CALL SUBOPT_0x9
0002e1 2e0e      	MOV  R0,R30
0002e2 940e 0f18 	CALL SUBOPT_0xA
0002e4 2da0      	MOV  R26,R0
0002e5 1bae      	SUB  R26,R30
0002e6 2fea      	MOV  R30,R26
0002e7 95e6      	LSR  R30
0002e8 95e6      	LSR  R30
0002e9 95e6      	LSR  R30
0002ea e0f0      	LDI  R31,0
0002eb 93e0 0188 	STS  _intervalPWM,R30
0002ed 93f0 0189 	STS  _intervalPWM+1,R31
                 ;     216 PV = 0;
0002ef e0e0      	LDI  R30,0
0002f0 93e0 018a 	STS  _PV,R30
0002f2 93e0 018b 	STS  _PV+1,R30
                 ;     217 error = 0;
0002f4 e0e0      	LDI  R30,0
0002f5 93e0 018c 	STS  _error,R30
0002f7 93e0 018d 	STS  _error+1,R30
                 ;     218 last_error = 0;
0002f9 e0e0      	LDI  R30,0
0002fa 93e0 018e 	STS  _last_error,R30
0002fc 93e0 018f 	STS  _last_error+1,R30
                 ;     219 
                 ;     220 showMenu();
0002fe d1e0      	RCALL _showMenu
                 ;     221 maju();
0002ff d50a      	RCALL _maju
                 ;     222 //pemercepat();
                 ;     223 //pelambat();
                 ;     224 displaySensorBit();
000300 d49f      	RCALL _displaySensorBit
                 ;     225 while (1)
                 _0x1A:
                 ;     226       {
                 ;     227             displaySensorBit();
000301 d49e      	RCALL _displaySensorBit
                 ;     228             ikuti_garis();
000302 940e 0b30 	CALL _ikuti_garis
                 ;     229       };
000304 cffc      	RJMP _0x1A
                 ;     230 }
                 _0x1D:
000305 cfff      	RJMP _0x1D
                 ;     231 
                 ;     232 void TesBlink()
                 ;     233 {
                 ;     234     for(;;)
                 ;     235     {
                 ;     236         lcd_gotoxy(1,0);
                 ;     237         lcd_putsf("Tes Blink");
                 ;     238         lcd_gotoxy(1,1);
                 ;     239         lcd_putsf("Tes Blink");
                 ;     240         delay_ms(500);
                 ;     241         lcd_gotoxy(1,1);
                 ;     242         lcd_putsf("         ");
                 ;     243         delay_ms(500);
                 ;     244         lcd_clear();
                 ;     245     }
                 ;     246 }
                 ;     247 
                 ;     248 
                 ;     249 void pemercepat()
                 ;     250 {
                 _pemercepat:
                 ;     251         lpwm=0;
000306 940e 0f1d 	CALL SUBOPT_0xB
                 ;     252         rpwm=0;
                 ;     253 
                 ;     254         rotkir();
000308 d51a      	RCALL _rotkir
                 ;     255 
                 ;     256         for(b=0;b<255;b++)
000309 e0e0      	LDI  R30,0
00030a 93e0 01be 	STS  _b,R30
00030c 93e0 01bf 	STS  _b+1,R30
                 _0x22:
00030e 940e 0f28 	CALL SUBOPT_0xC
000310 f48c      	BRGE _0x23
                 ;     257         {
                 ;     258             delay_ms(125);
000311 940e 0f30 	CALL SUBOPT_0xD
                 ;     259 
                 ;     260             lpwm++;
000313 940e 0f33 	CALL SUBOPT_0xE
000315 9631      	ADIW R30,1
000316 940e 0f38 	CALL SUBOPT_0xF
                 ;     261             rpwm++;
000318 940e 0f3d 	CALL SUBOPT_0x10
00031a 9631      	ADIW R30,1
00031b 940e 0f42 	CALL SUBOPT_0x11
                 ;     262 
                 ;     263             lcd_clear();
00031d 940e 0f47 	CALL SUBOPT_0x12
                 ;     264 
                 ;     265             lcd_gotoxy(0,0);
                 ;     266             sprintf(lcd," %d %d",lpwm,rpwm);
                 ;     267             lcd_puts(lcd);
                 ;     268         }
00031f 940e 0f6a 	CALL SUBOPT_0x13
000321 cfec      	RJMP _0x22
                 _0x23:
                 ;     269         lpwm=0;
000322 940e 0f1d 	CALL SUBOPT_0xB
                 ;     270         rpwm=0;
                 ;     271 }
000324 9508      	RET
                 ;     272 
                 ;     273 void pelambat()
                 ;     274 {
                 _pelambat:
                 ;     275         lpwm=255;
000325 efef      	LDI  R30,LOW(255)
000326 e0f0      	LDI  R31,HIGH(255)
000327 940e 0f38 	CALL SUBOPT_0xF
                 ;     276         rpwm=255;
000329 efef      	LDI  R30,LOW(255)
00032a e0f0      	LDI  R31,HIGH(255)
00032b 940e 0f42 	CALL SUBOPT_0x11
                 ;     277 
                 ;     278         rotkan();
00032d d4f0      	RCALL _rotkan
                 ;     279 
                 ;     280         for(b=0;b<255;b++)
00032e e0e0      	LDI  R30,0
00032f 93e0 01be 	STS  _b,R30
000331 93e0 01bf 	STS  _b+1,R30
                 _0x25:
000333 940e 0f28 	CALL SUBOPT_0xC
000335 f48c      	BRGE _0x26
                 ;     281         {
                 ;     282             delay_ms(125);
000336 940e 0f30 	CALL SUBOPT_0xD
                 ;     283 
                 ;     284             lpwm--;
000338 940e 0f33 	CALL SUBOPT_0xE
00033a 9731      	SBIW R30,1
00033b 940e 0f38 	CALL SUBOPT_0xF
                 ;     285             rpwm--;
00033d 940e 0f3d 	CALL SUBOPT_0x10
00033f 9731      	SBIW R30,1
000340 940e 0f42 	CALL SUBOPT_0x11
                 ;     286 
                 ;     287             lcd_clear();
000342 940e 0f47 	CALL SUBOPT_0x12
                 ;     288 
                 ;     289             lcd_gotoxy(0,0);
                 ;     290             sprintf(lcd," %d %d",lpwm,rpwm);
                 ;     291             lcd_puts(lcd);
                 ;     292         }
000344 940e 0f6a 	CALL SUBOPT_0x13
000346 cfec      	RJMP _0x25
                 _0x26:
                 ;     293         lpwm=0;
000347 940e 0f1d 	CALL SUBOPT_0xB
                 ;     294         rpwm=0;
                 ;     295 }
000349 9508      	RET
                 ;     296 
                 ;     297 void baca_sensor()
                 ;     298 {
                 _baca_sensor:
                 ;     299     sensor=0;
00034a 2455      	CLR  R5
                 ;     300     adc0=read_adc(0);
00034b 940e 0f74 	CALL SUBOPT_0x14
00034d 2e4e      	MOV  R4,R30
                 ;     301     adc1=read_adc(1);
00034e 940e 0f78 	CALL SUBOPT_0x15
000350 2e7e      	MOV  R7,R30
                 ;     302     adc2=read_adc(2);
000351 940e 0f7c 	CALL SUBOPT_0x16
000353 2e6e      	MOV  R6,R30
                 ;     303     adc3=read_adc(3);
000354 940e 0f80 	CALL SUBOPT_0x17
000356 2e9e      	MOV  R9,R30
                 ;     304     adc4=read_adc(4);
000357 940e 0f84 	CALL SUBOPT_0x18
000359 2e8e      	MOV  R8,R30
                 ;     305     adc5=read_adc(5);
00035a 940e 0f88 	CALL SUBOPT_0x19
00035c 2ebe      	MOV  R11,R30
                 ;     306     adc6=read_adc(6);
00035d 940e 0f8c 	CALL SUBOPT_0x1A
00035f 2eae      	MOV  R10,R30
                 ;     307     adc7=read_adc(7);
000360 940e 0f90 	CALL SUBOPT_0x1B
000362 2ede      	MOV  R13,R30
                 ;     308 
                 ;     309     if(adc0>bt0){s0=1;sensor=sensor|1<<0;}
000363 940e 0f94 	CALL SUBOPT_0x1C
000365 15e4      	CP   R30,R4
000366 f420      	BRSH _0x27
000367 9468      	SET
000368 f820      	BLD  R2,0
000369 e0e1      	LDI  R30,LOW(1)
00036a c003      	RJMP _0x1C2
                 ;     310     else {s0=0;sensor=sensor|0<<0;}
                 _0x27:
00036b 94e8      	CLT
00036c f820      	BLD  R2,0
00036d e0e0      	LDI  R30,LOW(0)
                 _0x1C2:
00036e 2a5e      	OR   R5,R30
                 ;     311 
                 ;     312     if(adc1>bt1){s1=1;sensor=sensor|1<<1;}
00036f 940e 0f99 	CALL SUBOPT_0x1D
000371 15e7      	CP   R30,R7
000372 f420      	BRSH _0x29
000373 9468      	SET
000374 f821      	BLD  R2,1
000375 e0e2      	LDI  R30,LOW(2)
000376 c003      	RJMP _0x1C3
                 ;     313     else {s1=0;sensor=sensor|0<<1;}
                 _0x29:
000377 94e8      	CLT
000378 f821      	BLD  R2,1
000379 e0e0      	LDI  R30,LOW(0)
                 _0x1C3:
00037a 2a5e      	OR   R5,R30
                 ;     314 
                 ;     315     if(adc2>bt2){s2=1;sensor=sensor|1<<2;}
00037b 940e 0f9e 	CALL SUBOPT_0x1E
00037d 15e6      	CP   R30,R6
00037e f420      	BRSH _0x2B
00037f 9468      	SET
000380 f822      	BLD  R2,2
000381 e0e4      	LDI  R30,LOW(4)
000382 c003      	RJMP _0x1C4
                 ;     316     else {s2=0;sensor=sensor|0<<2;}
                 _0x2B:
000383 94e8      	CLT
000384 f822      	BLD  R2,2
000385 e0e0      	LDI  R30,LOW(0)
                 _0x1C4:
000386 2a5e      	OR   R5,R30
                 ;     317 
                 ;     318     if(adc3>bt3){s3=1;sensor=sensor|1<<3;}
000387 940e 0fa3 	CALL SUBOPT_0x1F
000389 15e9      	CP   R30,R9
00038a f420      	BRSH _0x2D
00038b 9468      	SET
00038c f823      	BLD  R2,3
00038d e0e8      	LDI  R30,LOW(8)
00038e c003      	RJMP _0x1C5
                 ;     319     else {s3=0;sensor=sensor|0<<3;}
                 _0x2D:
00038f 94e8      	CLT
000390 f823      	BLD  R2,3
000391 e0e0      	LDI  R30,LOW(0)
                 _0x1C5:
000392 2a5e      	OR   R5,R30
                 ;     320 
                 ;     321     if(adc4>bt4){s4=1;sensor=sensor|1<<4;}
000393 940e 0fa8 	CALL SUBOPT_0x20
000395 15e8      	CP   R30,R8
000396 f420      	BRSH _0x2F
000397 9468      	SET
000398 f824      	BLD  R2,4
000399 e1e0      	LDI  R30,LOW(16)
00039a c003      	RJMP _0x1C6
                 ;     322     else {s4=0;sensor=sensor|0<<4;}
                 _0x2F:
00039b 94e8      	CLT
00039c f824      	BLD  R2,4
00039d e0e0      	LDI  R30,LOW(0)
                 _0x1C6:
00039e 2a5e      	OR   R5,R30
                 ;     323 
                 ;     324     if(adc5>bt5){s5=1;sensor=sensor|1<<5;}
00039f 940e 0fad 	CALL SUBOPT_0x21
0003a1 15eb      	CP   R30,R11
0003a2 f420      	BRSH _0x31
0003a3 9468      	SET
0003a4 f825      	BLD  R2,5
0003a5 e2e0      	LDI  R30,LOW(32)
0003a6 c003      	RJMP _0x1C7
                 ;     325     else {s5=0;sensor=sensor|0<<5;}
                 _0x31:
0003a7 94e8      	CLT
0003a8 f825      	BLD  R2,5
0003a9 e0e0      	LDI  R30,LOW(0)
                 _0x1C7:
0003aa 2a5e      	OR   R5,R30
                 ;     326 
                 ;     327     if(adc6>bt6){s6=1;sensor=sensor|1<<6;}
0003ab 940e 0fb2 	CALL SUBOPT_0x22
0003ad 15ea      	CP   R30,R10
0003ae f420      	BRSH _0x33
0003af 9468      	SET
0003b0 f826      	BLD  R2,6
0003b1 e4e0      	LDI  R30,LOW(64)
0003b2 c003      	RJMP _0x1C8
                 ;     328     else {s6=0;sensor=sensor|0<<6;}
                 _0x33:
0003b3 94e8      	CLT
0003b4 f826      	BLD  R2,6
0003b5 e0e0      	LDI  R30,LOW(0)
                 _0x1C8:
0003b6 2a5e      	OR   R5,R30
                 ;     329 
                 ;     330     if(adc7>bt7){s7=1;sensor=sensor|1<<7;}
0003b7 940e 0fb7 	CALL SUBOPT_0x23
0003b9 15ed      	CP   R30,R13
0003ba f420      	BRSH _0x35
0003bb 9468      	SET
0003bc f827      	BLD  R2,7
0003bd e8e0      	LDI  R30,LOW(128)
0003be c003      	RJMP _0x1C9
                 ;     331     else {s7=0;sensor=sensor|0<<7;}
                 _0x35:
0003bf 94e8      	CLT
0003c0 f827      	BLD  R2,7
0003c1 e0e0      	LDI  R30,LOW(0)
                 _0x1C9:
0003c2 2a5e      	OR   R5,R30
                 ;     332 }
0003c3 9508      	RET
                 ;     333 
                 ;     334 void tampil(unsigned char dat)
                 ;     335 {
                 _tampil:
                 ;     336     unsigned char data;
                 ;     337 
                 ;     338     data = dat / 100;
0003c4 931a      	ST   -Y,R17
                 ;	dat -> Y+1
                 ;	data -> R17
0003c5 81a9      	LDD  R26,Y+1
0003c6 e6e4      	LDI  R30,LOW(100)
0003c7 940e 0fbc 	CALL SUBOPT_0x24
                 ;     339     data+=0x30;
                 ;     340     lcd_putchar(data);
                 ;     341 
                 ;     342     dat%=100;
0003c9 e6e4      	LDI  R30,LOW(100)
0003ca 940e 1120 	CALL __MODB21U
0003cc 83e9      	STD  Y+1,R30
                 ;     343     data = dat / 10;
0003cd 81a9      	LDD  R26,Y+1
0003ce e0ea      	LDI  R30,LOW(10)
0003cf 940e 0fbc 	CALL SUBOPT_0x24
                 ;     344     data+=0x30;
                 ;     345     lcd_putchar(data);
                 ;     346 
                 ;     347     dat%=10;
0003d1 e0ea      	LDI  R30,LOW(10)
0003d2 940e 1120 	CALL __MODB21U
0003d4 83e9      	STD  Y+1,R30
                 ;     348     data = dat + 0x30;
0003d5 5de0      	SUBI R30,-LOW(48)
0003d6 2f1e      	MOV  R17,R30
                 ;     349     lcd_putchar(data);
0003d7 931a      	ST   -Y,R17
0003d8 940e 0e4e 	CALL _lcd_putchar
                 ;     350 }
0003da 8118      	LDD  R17,Y+0
0003db 9622      	ADIW R28,2
0003dc 9508      	RET
                 ;     351 
                 ;     352 void tulisKeEEPROM ( byte NoMenu, byte NoSubMenu, byte var_in_eeprom )
                 ;     353 {
                 _tulisKeEEPROM:
                 ;     354         lcd_gotoxy(0,0);
                 ;	NoMenu -> Y+2
                 ;	NoSubMenu -> Y+1
                 ;	var_in_eeprom -> Y+0
0003dd 940e 0fc5 	CALL SUBOPT_0x25
                 ;     355         lcd_putsf("Tulis ke EEPROM ");
0003df e0e9
0003e0 e0f1      	__POINTW1FN _0,127
0003e1 940e 0eeb 	CALL SUBOPT_0x1
                 ;     356         lcd_putsf("...             ");
0003e3 e1ea
0003e4 e0f1      	__POINTW1FN _0,144
0003e5 940e 0eeb 	CALL SUBOPT_0x1
                 ;     357         switch (NoMenu)
0003e7 81ea      	LDD  R30,Y+2
                 ;     358         {
                 ;     359           case 1: // PID
0003e8 30e1      	CPI  R30,LOW(0x1)
0003e9 f4c9      	BRNE _0x3A
                 ;     360                 switch (NoSubMenu)
0003ea 81e9      	LDD  R30,Y+1
                 ;     361                 {
                 ;     362                   case 1: // Kp
0003eb 30e1      	CPI  R30,LOW(0x1)
0003ec f431      	BRNE _0x3E
                 ;     363                         Kp = var_in_eeprom;
0003ed 81e8      	LD   R30,Y
0003ee e0a8      	LDI  R26,LOW(_Kp)
0003ef e0b0      	LDI  R27,HIGH(_Kp)
0003f0 940e 114a 	CALL __EEPROMWRB
                 ;     364                         break;
0003f2 c00f      	RJMP _0x3D
                 ;     365                   case 2: // Ki
                 _0x3E:
0003f3 30e2      	CPI  R30,LOW(0x2)
0003f4 f431      	BRNE _0x3F
                 ;     366                         Ki = var_in_eeprom;
0003f5 81e8      	LD   R30,Y
0003f6 e0a9      	LDI  R26,LOW(_Ki)
0003f7 e0b0      	LDI  R27,HIGH(_Ki)
0003f8 940e 114a 	CALL __EEPROMWRB
                 ;     367                         break;
0003fa c007      	RJMP _0x3D
                 ;     368                   case 3: // Kd
                 _0x3F:
0003fb 30e3      	CPI  R30,LOW(0x3)
0003fc f429      	BRNE _0x3D
                 ;     369                         Kd = var_in_eeprom;
0003fd 81e8      	LD   R30,Y
0003fe e0aa      	LDI  R26,LOW(_Kd)
0003ff e0b0      	LDI  R27,HIGH(_Kd)
000400 940e 114a 	CALL __EEPROMWRB
                 ;     370                         break;
                 ;     371                 }
                 _0x3D:
                 ;     372                 break;
000402 c02d      	RJMP _0x39
                 ;     373           case 2: // Speed
                 _0x3A:
000403 30e2      	CPI  R30,LOW(0x2)
000404 f489      	BRNE _0x41
                 ;     374                 switch (NoSubMenu)
000405 81e9      	LDD  R30,Y+1
                 ;     375                 {
                 ;     376                   case 1: // MAX
000406 30e1      	CPI  R30,LOW(0x1)
000407 f431      	BRNE _0x45
                 ;     377                         MAXSpeed = var_in_eeprom;
000408 81e8      	LD   R30,Y
000409 e0ab      	LDI  R26,LOW(_MAXSpeed)
00040a e0b0      	LDI  R27,HIGH(_MAXSpeed)
00040b 940e 114a 	CALL __EEPROMWRB
                 ;     378                         break;
00040d c007      	RJMP _0x44
                 ;     379                   case 2: // MIN
                 _0x45:
00040e 30e2      	CPI  R30,LOW(0x2)
00040f f429      	BRNE _0x44
                 ;     380                         MINSpeed = var_in_eeprom;
000410 81e8      	LD   R30,Y
000411 e0ac      	LDI  R26,LOW(_MINSpeed)
000412 e0b0      	LDI  R27,HIGH(_MINSpeed)
000413 940e 114a 	CALL __EEPROMWRB
                 ;     381                         break;
                 ;     382                 }
                 _0x44:
                 ;     383                 break;
000415 c01a      	RJMP _0x39
                 ;     384           case 3: // Warna Garis
                 _0x41:
000416 30e3      	CPI  R30,LOW(0x3)
000417 f489      	BRNE _0x47
                 ;     385                 switch (NoSubMenu)
000418 81e9      	LDD  R30,Y+1
                 ;     386                 {
                 ;     387                   case 1: // Warna
000419 30e1      	CPI  R30,LOW(0x1)
00041a f431      	BRNE _0x4B
                 ;     388                         WarnaGaris = var_in_eeprom;
00041b 81e8      	LD   R30,Y
00041c e0ad      	LDI  R26,LOW(_WarnaGaris)
00041d e0b0      	LDI  R27,HIGH(_WarnaGaris)
00041e 940e 114a 	CALL __EEPROMWRB
                 ;     389                         break;
000420 c007      	RJMP _0x4A
                 ;     390                   case 2: // SensL
                 _0x4B:
000421 30e2      	CPI  R30,LOW(0x2)
000422 f429      	BRNE _0x4A
                 ;     391                         SensLine = var_in_eeprom;
000423 81e8      	LD   R30,Y
000424 e0ae      	LDI  R26,LOW(_SensLine)
000425 e0b0      	LDI  R27,HIGH(_SensLine)
000426 940e 114a 	CALL __EEPROMWRB
                 ;     392                         break;
                 ;     393                 }
                 _0x4A:
                 ;     394                 break;
000428 c007      	RJMP _0x39
                 ;     395           case 4: // Skenario
                 _0x47:
000429 30e4      	CPI  R30,LOW(0x4)
00042a f429      	BRNE _0x39
                 ;     396                 Skenario = var_in_eeprom;
00042b 81e8      	LD   R30,Y
00042c e0af      	LDI  R26,LOW(_Skenario)
00042d e0b0      	LDI  R27,HIGH(_Skenario)
00042e 940e 114a 	CALL __EEPROMWRB
                 ;     397                 break;
                 ;     398         }
                 _0x39:
                 ;     399         delay_ms(500);
000430 efe4      	LDI  R30,LOW(500)
000431 e0f1      	LDI  R31,HIGH(500)
000432 940e 0efd 	CALL SUBOPT_0x4
                 ;     400 }
000434 9623      	ADIW R28,3
000435 9508      	RET
                 ;     401 
                 ;     402 void setByte( byte NoMenu, byte NoSubMenu )
                 ;     403 {
                 _setByte:
                 ;     404         byte var_in_eeprom;
                 ;     405         byte plus5 = 0;
                 ;     406         char limitPilih = -1;
                 ;     407 
                 ;     408         lcd_clear();
000436 940e 115f 	CALL __SAVELOCR4
                 ;	NoMenu -> Y+5
                 ;	NoSubMenu -> Y+4
                 ;	var_in_eeprom -> R17
                 ;	plus5 -> R16
                 ;	limitPilih -> R19
000438 e000      	LDI  R16,0
000439 ef3f      	LDI  R19,255
00043a 940e 0fca 	CALL SUBOPT_0x26
                 ;     409         lcd_gotoxy(0, 0);
                 ;     410         switch (NoMenu)
00043c 81ed      	LDD  R30,Y+5
                 ;     411         {
                 ;     412           case 1: // PID
00043d 30e1      	CPI  R30,LOW(0x1)
00043e f4e9      	BRNE _0x51
                 ;     413                 switch (NoSubMenu)
00043f 81ec      	LDD  R30,Y+4
                 ;     414                 {
                 ;     415                   case 1: // Kp
000440 30e1      	CPI  R30,LOW(0x1)
000441 f439      	BRNE _0x55
                 ;     416                         lcd_putsf("Set Kp :        ");
000442 e2eb
000443 e0f1      	__POINTW1FN _0,161
000444 940e 0eeb 	CALL SUBOPT_0x1
                 ;     417                         var_in_eeprom = Kp;
000446 940e 0f04 	CALL SUBOPT_0x6
000448 c011      	RJMP _0x1CA
                 ;     418                         break;
                 ;     419                   case 2: // Ki
                 _0x55:
000449 30e2      	CPI  R30,LOW(0x2)
00044a f439      	BRNE _0x56
                 ;     420                         lcd_putsf("Set Ki :        ");
00044b e3ec
00044c e0f1      	__POINTW1FN _0,178
00044d 940e 0eeb 	CALL SUBOPT_0x1
                 ;     421                         var_in_eeprom = Ki;
00044f 940e 0f09 	CALL SUBOPT_0x7
000451 c008      	RJMP _0x1CA
                 ;     422                         break;
                 ;     423                   case 3: // Kd
                 _0x56:
000452 30e3      	CPI  R30,LOW(0x3)
000453 f439      	BRNE _0x54
                 ;     424                         lcd_putsf("Set Kd :        ");
000454 e4ed
000455 e0f1      	__POINTW1FN _0,195
000456 940e 0eeb 	CALL SUBOPT_0x1
                 ;     425                         var_in_eeprom = Kd;
000458 940e 0f0e 	CALL SUBOPT_0x8
                 _0x1CA:
00045a 2f1e      	MOV  R17,R30
                 ;     426                         break;
                 ;     427                 }
                 _0x54:
                 ;     428                 break;
00045b c03f      	RJMP _0x50
                 ;     429           case 2: // Speed
                 _0x51:
00045c 30e2      	CPI  R30,LOW(0x2)
00045d f4a9      	BRNE _0x58
                 ;     430                 plus5 = 1;
00045e e001      	LDI  R16,LOW(1)
                 ;     431                 switch (NoSubMenu)
00045f 81ec      	LDD  R30,Y+4
                 ;     432                 {
                 ;     433                   case 1: // MAX
000460 30e1      	CPI  R30,LOW(0x1)
000461 f439      	BRNE _0x5C
                 ;     434                         lcd_putsf("Set MAX Speed : ");
000462 e5ee
000463 e0f1      	__POINTW1FN _0,212
000464 940e 0eeb 	CALL SUBOPT_0x1
                 ;     435                         var_in_eeprom = MAXSpeed;
000466 940e 0f13 	CALL SUBOPT_0x9
000468 c008      	RJMP _0x1CB
                 ;     436                         break;
                 ;     437                   case 2: // MIN
                 _0x5C:
000469 30e2      	CPI  R30,LOW(0x2)
00046a f439      	BRNE _0x5B
                 ;     438                         lcd_putsf("Set MIN Speed : ");
00046b e6ef
00046c e0f1      	__POINTW1FN _0,229
00046d 940e 0eeb 	CALL SUBOPT_0x1
                 ;     439                         var_in_eeprom = MINSpeed;
00046f 940e 0f18 	CALL SUBOPT_0xA
                 _0x1CB:
000471 2f1e      	MOV  R17,R30
                 ;     440                         break;
                 ;     441                 }
                 _0x5B:
                 ;     442                 break;
000472 c028      	RJMP _0x50
                 ;     443           case 3: // Warna Garis
                 _0x58:
000473 30e3      	CPI  R30,LOW(0x3)
000474 f4d1      	BRNE _0x5E
                 ;     444                 switch (NoSubMenu)
000475 81ec      	LDD  R30,Y+4
                 ;     445                 {
                 ;     446                   case 1: // Warna
000476 30e1      	CPI  R30,LOW(0x1)
000477 f451      	BRNE _0x62
                 ;     447                         limitPilih = 1;
000478 e031      	LDI  R19,LOW(1)
                 ;     448                         lcd_putsf("Warna Garis   : ");
000479 e8e0
00047a e0f1      	__POINTW1FN _0,246
00047b 940e 0eeb 	CALL SUBOPT_0x1
                 ;     449                         var_in_eeprom = WarnaGaris;
00047d e0ad      	LDI  R26,LOW(_WarnaGaris)
00047e e0b0      	LDI  R27,HIGH(_WarnaGaris)
00047f 940e 113e 	CALL __EEPROMRDB
000481 c00b      	RJMP _0x1CC
                 ;     450                         break;
                 ;     451                   case 2: // SensL
                 _0x62:
000482 30e2      	CPI  R30,LOW(0x2)
000483 f451      	BRNE _0x61
                 ;     452                         limitPilih = 3;
000484 e033      	LDI  R19,LOW(3)
                 ;     453                         lcd_putsf("SensLine :      ");
000485 e9e1
000486 e0f1      	__POINTW1FN _0,263
000487 940e 0eeb 	CALL SUBOPT_0x1
                 ;     454                         var_in_eeprom = SensLine;
000489 e0ae      	LDI  R26,LOW(_SensLine)
00048a e0b0      	LDI  R27,HIGH(_SensLine)
00048b 940e 113e 	CALL __EEPROMRDB
                 _0x1CC:
00048d 2f1e      	MOV  R17,R30
                 ;     455                         break;
                 ;     456                 }
                 _0x61:
                 ;     457                 break;
00048e c00c      	RJMP _0x50
                 ;     458           case 4: // Skenario
                 _0x5E:
00048f 30e4      	CPI  R30,LOW(0x4)
000490 f451      	BRNE _0x50
                 ;     459                   lcd_putsf("Skenario :      ");
000491 eae2
000492 e0f1      	__POINTW1FN _0,280
000493 940e 0eeb 	CALL SUBOPT_0x1
                 ;     460                   var_in_eeprom = Skenario;
000495 e0af      	LDI  R26,LOW(_Skenario)
000496 e0b0      	LDI  R27,HIGH(_Skenario)
000497 940e 113e 	CALL __EEPROMRDB
000499 2f1e      	MOV  R17,R30
                 ;     461                   limitPilih = 8;
00049a e038      	LDI  R19,LOW(8)
                 ;     462                   break;
                 ;     463         }
                 _0x50:
                 ;     464 
                 ;     465         while (sw_cancel)
                 _0x65:
00049b 9b99      	SBIS 0x13,1
00049c c038      	RJMP _0x67
                 ;     466         {
                 ;     467                 delay_ms(150);
00049d 940e 0fcd 	CALL SUBOPT_0x27
                 ;     468                 lcd_gotoxy(0, 1);
00049f 940e 0eef 	CALL SUBOPT_0x2
                 ;     469                 tampil(var_in_eeprom);
0004a1 931a      	ST   -Y,R17
0004a2 940e 03c4 	CALL _tampil
                 ;     470 
                 ;     471                 if (!sw_ok)
0004a4 9998      	SBIC 0x13,0
0004a5 c00a      	RJMP _0x68
                 ;     472                 {
                 ;     473                         lcd_clear();
0004a6 940e 0e36 	CALL _lcd_clear
                 ;     474                         tulisKeEEPROM( NoMenu, NoSubMenu, var_in_eeprom );
0004a8 81ed      	LDD  R30,Y+5
0004a9 93ea      	ST   -Y,R30
0004aa 81ed      	LDD  R30,Y+5
0004ab 93ea      	ST   -Y,R30
0004ac 931a      	ST   -Y,R17
0004ad 940e 03dd 	CALL _tulisKeEEPROM
                 ;     475                         goto exitSetByte;
0004af c025      	RJMP _0x69
                 ;     476                 }
                 ;     477                 if (!sw_down)
                 _0x68:
0004b0 999b      	SBIC 0x13,3
0004b1 c010      	RJMP _0x6A
                 ;     478                 {
                 ;     479                         if ( plus5 )
0004b2 3000      	CPI  R16,0
0004b3 f031      	BREQ _0x6B
                 ;     480                                 if ( var_in_eeprom == 0 )
0004b4 3010      	CPI  R17,0
0004b5 f411      	BRNE _0x6C
                 ;     481                                         var_in_eeprom = 255;
0004b6 ef1f      	LDI  R17,LOW(255)
                 ;     482                                 else
0004b7 c001      	RJMP _0x6D
                 _0x6C:
                 ;     483                                         var_in_eeprom -= 5;
0004b8 5015      	SUBI R17,LOW(5)
                 ;     484                         else
                 _0x6D:
0004b9 c008      	RJMP _0x6E
                 _0x6B:
                 ;     485                                 if ( !limitPilih )
0004ba 3030      	CPI  R19,0
0004bb f409      	BRNE _0x6F
                 ;     486                                         var_in_eeprom--;
0004bc c004      	RJMP _0x1CD
                 ;     487                                 else
                 _0x6F:
                 ;     488                                 {
                 ;     489                                         if ( var_in_eeprom == 0 )
0004bd 3010      	CPI  R17,0
0004be f411      	BRNE _0x71
                 ;     490                                           var_in_eeprom = limitPilih;
0004bf 2f13      	MOV  R17,R19
                 ;     491                                         else
0004c0 c001      	RJMP _0x72
                 _0x71:
                 ;     492                                           var_in_eeprom--;
                 _0x1CD:
0004c1 5011      	SUBI R17,1
                 ;     493                                 }
                 _0x72:
                 _0x6E:
                 ;     494                 }
                 ;     495                 if (!sw_up)
                 _0x6A:
0004c2 999a      	SBIC 0x13,2
0004c3 c010      	RJMP _0x73
                 ;     496                 {
                 ;     497                         if ( plus5 )
0004c4 3000      	CPI  R16,0
0004c5 f031      	BREQ _0x74
                 ;     498                                 if ( var_in_eeprom == 255 )
0004c6 3f1f      	CPI  R17,255
0004c7 f411      	BRNE _0x75
                 ;     499                                         var_in_eeprom = 0;
0004c8 e010      	LDI  R17,LOW(0)
                 ;     500                                 else
0004c9 c001      	RJMP _0x76
                 _0x75:
                 ;     501                                         var_in_eeprom += 5;
0004ca 5f1b      	SUBI R17,-LOW(5)
                 ;     502                         else
                 _0x76:
0004cb c008      	RJMP _0x77
                 _0x74:
                 ;     503                                 if ( !limitPilih )
0004cc 3030      	CPI  R19,0
0004cd f409      	BRNE _0x78
                 ;     504                                         var_in_eeprom++;
0004ce c004      	RJMP _0x1CE
                 ;     505                                 else
                 _0x78:
                 ;     506                                 {
                 ;     507                                         if ( var_in_eeprom == limitPilih )
0004cf 1731      	CP   R19,R17
0004d0 f411      	BRNE _0x7A
                 ;     508                                           var_in_eeprom = 0;
0004d1 e010      	LDI  R17,LOW(0)
                 ;     509                                         else
0004d2 c001      	RJMP _0x7B
                 _0x7A:
                 ;     510                                           var_in_eeprom++;
                 _0x1CE:
0004d3 5f1f      	SUBI R17,-1
                 ;     511                                 }
                 _0x7B:
                 _0x77:
                 ;     512                 }
                 ;     513         }
                 _0x73:
0004d4 cfc6      	RJMP _0x65
                 _0x67:
                 ;     514       exitSetByte:
                 _0x69:
                 ;     515         delay_ms(100);
0004d5 e6e4      	LDI  R30,LOW(100)
0004d6 e0f0      	LDI  R31,HIGH(100)
0004d7 940e 0efd 	CALL SUBOPT_0x4
                 ;     516         lcd_clear();
0004d9 940e 0e36 	CALL _lcd_clear
                 ;     517 }
0004db 940e 1166 	CALL __LOADLOCR4
0004dd 9626      	ADIW R28,6
0004de 9508      	RET
                 ;     518 
                 ;     519 void showMenu()
                 ;     520 {
                 _showMenu:
                 ;     521         //TIMSK = 0x00;
                 ;     522         #asm("cli")
0004df 94f8      	cli
                 ;     523         lcd_clear();
0004e0 940e 0e36 	CALL _lcd_clear
                 ;     524     menu01:
                 _0x7C:
                 ;     525         delay_ms(125);   // bouncing sw
0004e2 940e 0ee0 	CALL SUBOPT_0x0
                 ;     526         lcd_gotoxy(0,0);
                 ;     527                 // 0123456789abcdef
                 ;     528         lcd_putsf("  Set PID       ");
0004e4 ebe3
0004e5 e0f1      	__POINTW1FN _0,297
0004e6 940e 0eeb 	CALL SUBOPT_0x1
                 ;     529         lcd_gotoxy(0,1);
0004e8 940e 0eef 	CALL SUBOPT_0x2
                 ;     530         lcd_putsf("  Set Speed     ");
0004ea ece4
0004eb e0f1      	__POINTW1FN _0,314
0004ec 940e 0eeb 	CALL SUBOPT_0x1
                 ;     531 
                 ;     532         // kursor awal
                 ;     533         lcd_gotoxy(0,0);
0004ee 940e 0fc5 	CALL SUBOPT_0x25
                 ;     534         lcd_putchar(0);
0004f0 940e 0fd0 	CALL SUBOPT_0x28
                 ;     535 
                 ;     536         if (!sw_ok)
0004f2 9998      	SBIC 0x13,0
0004f3 c006      	RJMP _0x7D
                 ;     537         {
                 ;     538                 lcd_clear();
0004f4 940e 0e36 	CALL _lcd_clear
                 ;     539                 kursorPID = 1;
0004f6 e0e1      	LDI  R30,LOW(1)
0004f7 93e0 019a 	STS  _kursorPID,R30
                 ;     540                 goto setPID;
0004f9 c09f      	RJMP _0x7E
                 ;     541         }
                 ;     542         if (!sw_down)
                 _0x7D:
0004fa 9b9b      	SBIS 0x13,3
                 ;     543         {
                 ;     544                 goto menu02;
0004fb c006      	RJMP _0x80
                 ;     545         }
                 ;     546         if (!sw_up)
0004fc 999a      	SBIC 0x13,2
0004fd c003      	RJMP _0x81
                 ;     547         {
                 ;     548                 lcd_clear();
0004fe 940e 0e36 	CALL _lcd_clear
                 ;     549                 goto menu06;
000500 c07b      	RJMP _0x82
                 ;     550         }
                 ;     551 
                 ;     552         goto menu01;
                 _0x81:
000501 cfe0      	RJMP _0x7C
                 ;     553     menu02:
                 _0x80:
                 ;     554         delay_ms(125);
000502 940e 0ee0 	CALL SUBOPT_0x0
                 ;     555         lcd_gotoxy(0,0);
                 ;     556                  // 0123456789abcdef
                 ;     557         lcd_putsf("  Set PID       ");
000504 ebe3
000505 e0f1      	__POINTW1FN _0,297
000506 940e 0eeb 	CALL SUBOPT_0x1
                 ;     558         lcd_gotoxy(0,1);
000508 940e 0eef 	CALL SUBOPT_0x2
                 ;     559         lcd_putsf("  Set Speed     ");
00050a ece4
00050b e0f1      	__POINTW1FN _0,314
00050c 940e 0eeb 	CALL SUBOPT_0x1
                 ;     560 
                 ;     561         lcd_gotoxy(0,1);
00050e 940e 0eef 	CALL SUBOPT_0x2
                 ;     562         lcd_putchar(0);
000510 940e 0fd0 	CALL SUBOPT_0x28
                 ;     563 
                 ;     564         if (!sw_ok)
000512 9998      	SBIC 0x13,0
000513 c006      	RJMP _0x83
                 ;     565         {
                 ;     566                 lcd_clear();
000514 940e 0e36 	CALL _lcd_clear
                 ;     567                 kursorSpeed = 1;
000516 e0e1      	LDI  R30,LOW(1)
000517 93e0 019b 	STS  _kursorSpeed,R30
                 ;     568                 goto setSpeed;
000519 c0d3      	RJMP _0x84
                 ;     569         }
                 ;     570         if (!sw_up)
                 _0x83:
00051a 9b9a      	SBIS 0x13,2
                 ;     571         {
                 ;     572                 goto menu01;
00051b cfc6      	RJMP _0x7C
                 ;     573         }
                 ;     574         if (!sw_down)
00051c 999b      	SBIC 0x13,3
00051d c003      	RJMP _0x86
                 ;     575         {
                 ;     576                 lcd_clear();
00051e 940e 0e36 	CALL _lcd_clear
                 ;     577                 goto menu03;
000520 c001      	RJMP _0x87
                 ;     578         }
                 ;     579         goto menu02;
                 _0x86:
000521 cfe0      	RJMP _0x80
                 ;     580     menu03:
                 _0x87:
                 ;     581         delay_ms(125);
000522 940e 0ee0 	CALL SUBOPT_0x0
                 ;     582         lcd_gotoxy(0,0);
                 ;     583                 // 0123456789abcdef
                 ;     584         lcd_putsf("  Set Garis     ");
000524 ede5
000525 e0f1      	__POINTW1FN _0,331
000526 940e 0eeb 	CALL SUBOPT_0x1
                 ;     585         lcd_gotoxy(0,1);
000528 940e 0eef 	CALL SUBOPT_0x2
                 ;     586         lcd_putsf("  Skenario      ");
00052a eee6
00052b e0f1      	__POINTW1FN _0,348
00052c 940e 0eeb 	CALL SUBOPT_0x1
                 ;     587 
                 ;     588         lcd_gotoxy(0,0);
00052e 940e 0fc5 	CALL SUBOPT_0x25
                 ;     589         lcd_putchar(0);
000530 940e 0fd0 	CALL SUBOPT_0x28
                 ;     590 
                 ;     591         if (!sw_ok)
000532 9998      	SBIC 0x13,0
000533 c006      	RJMP _0x88
                 ;     592         {
                 ;     593                 lcd_clear();
000534 940e 0e36 	CALL _lcd_clear
                 ;     594                 kursorGaris = 1;
000536 e0e1      	LDI  R30,LOW(1)
000537 93e0 019c 	STS  _kursorGaris,R30
                 ;     595                 goto setGaris;
000539 c107      	RJMP _0x89
                 ;     596         }
                 ;     597         if (!sw_up)
                 _0x88:
00053a 999a      	SBIC 0x13,2
00053b c003      	RJMP _0x8A
                 ;     598         {
                 ;     599                 lcd_clear();
00053c 940e 0e36 	CALL _lcd_clear
                 ;     600                 goto menu02;
00053e cfc3      	RJMP _0x80
                 ;     601         }
                 ;     602         if (!sw_down)
                 _0x8A:
00053f 9b9b      	SBIS 0x13,3
                 ;     603         {
                 ;     604                 goto menu04;
000540 c001      	RJMP _0x8C
                 ;     605         }
                 ;     606         goto menu03;
000541 cfe0      	RJMP _0x87
                 ;     607     menu04:
                 _0x8C:
                 ;     608         delay_ms(125);
000542 940e 0ee0 	CALL SUBOPT_0x0
                 ;     609         lcd_gotoxy(0,0);
                 ;     610                 // 0123456789abcdef
                 ;     611         lcd_putsf("  Set Garis     ");
000544 ede5
000545 e0f1      	__POINTW1FN _0,331
000546 940e 0eeb 	CALL SUBOPT_0x1
                 ;     612         lcd_gotoxy(0,1);
000548 940e 0eef 	CALL SUBOPT_0x2
                 ;     613         lcd_putsf("  Skenario      ");
00054a eee6
00054b e0f1      	__POINTW1FN _0,348
00054c 940e 0eeb 	CALL SUBOPT_0x1
                 ;     614 
                 ;     615         lcd_gotoxy(0,1);
00054e 940e 0eef 	CALL SUBOPT_0x2
                 ;     616         lcd_putchar(0);
000550 940e 0fd0 	CALL SUBOPT_0x28
                 ;     617 
                 ;     618         if (!sw_ok)
000552 9998      	SBIC 0x13,0
000553 c003      	RJMP _0x8D
                 ;     619         {
                 ;     620                 lcd_clear();
000554 940e 0e36 	CALL _lcd_clear
                 ;     621                 goto setSkenario;
000556 c146      	RJMP _0x8E
                 ;     622         }
                 ;     623         if (!sw_up)
                 _0x8D:
000557 9b9a      	SBIS 0x13,2
                 ;     624         {
                 ;     625                 goto menu03;
000558 cfc9      	RJMP _0x87
                 ;     626         }
                 ;     627         if (!sw_down)
000559 999b      	SBIC 0x13,3
00055a c003      	RJMP _0x90
                 ;     628         {
                 ;     629                 lcd_clear();
00055b 940e 0e36 	CALL _lcd_clear
                 ;     630                 goto menu05;
00055d c001      	RJMP _0x91
                 ;     631         }
                 ;     632         goto menu04;
                 _0x90:
00055e cfe3      	RJMP _0x8C
                 ;     633     menu05:            // Bikin sendiri lhoo ^^d
                 _0x91:
                 ;     634         delay_ms(125);
00055f 940e 0ee0 	CALL SUBOPT_0x0
                 ;     635         lcd_gotoxy(0,0);
                 ;     636         lcd_putsf("  Set Mode         ");
000561 efe7
000562 e0f1      	__POINTW1FN _0,365
000563 940e 0eeb 	CALL SUBOPT_0x1
                 ;     637         lcd_gotoxy(0,1);
000565 940e 0eef 	CALL SUBOPT_0x2
                 ;     638         lcd_putsf("  Start!!      ");
000567 e0eb
000568 e0f2      	__POINTW1FN _0,385
000569 940e 0eeb 	CALL SUBOPT_0x1
                 ;     639 
                 ;     640         lcd_gotoxy(0,0);
00056b 940e 0fc5 	CALL SUBOPT_0x25
                 ;     641         lcd_putchar(0);
00056d 940e 0fd0 	CALL SUBOPT_0x28
                 ;     642 
                 ;     643         if  (!sw_ok)
00056f 9998      	SBIC 0x13,0
000570 c003      	RJMP _0x92
                 ;     644         {
                 ;     645             lcd_clear();
000571 940e 0e36 	CALL _lcd_clear
                 ;     646             goto mode;
000573 c147      	RJMP _0x93
                 ;     647         }
                 ;     648 
                 ;     649         if  (!sw_up)
                 _0x92:
000574 999a      	SBIC 0x13,2
000575 c003      	RJMP _0x94
                 ;     650         {
                 ;     651             lcd_clear();
000576 940e 0e36 	CALL _lcd_clear
                 ;     652             goto menu04;
000578 cfc9      	RJMP _0x8C
                 ;     653         }
                 ;     654 
                 ;     655         if  (!sw_down)
                 _0x94:
000579 9b9b      	SBIS 0x13,3
                 ;     656         {
                 ;     657             goto menu06;
00057a c001      	RJMP _0x82
                 ;     658         }
                 ;     659 
                 ;     660         goto menu05;
00057b cfe3      	RJMP _0x91
                 ;     661     menu06:
                 _0x82:
                 ;     662         delay_ms(125);
00057c 940e 0ee0 	CALL SUBOPT_0x0
                 ;     663         lcd_gotoxy(0,0);
                 ;     664         lcd_putsf("  Set Mode         ");
00057e efe7
00057f e0f1      	__POINTW1FN _0,365
000580 940e 0eeb 	CALL SUBOPT_0x1
                 ;     665         lcd_gotoxy(0,1);
000582 940e 0eef 	CALL SUBOPT_0x2
                 ;     666         lcd_putsf("  Start!!      ");
000584 e0eb
000585 e0f2      	__POINTW1FN _0,385
000586 940e 0eeb 	CALL SUBOPT_0x1
                 ;     667 
                 ;     668         lcd_gotoxy(0,1);
000588 940e 0eef 	CALL SUBOPT_0x2
                 ;     669         lcd_putchar(0);
00058a 940e 0fd0 	CALL SUBOPT_0x28
                 ;     670 
                 ;     671         if (!sw_ok)
00058c 9998      	SBIC 0x13,0
00058d c003      	RJMP _0x96
                 ;     672         {
                 ;     673                 lcd_clear();
00058e 940e 0e36 	CALL _lcd_clear
                 ;     674                 goto startRobot;
000590 c20b      	RJMP _0x97
                 ;     675         }
                 ;     676 
                 ;     677         if (!sw_up)
                 _0x96:
000591 9b9a      	SBIS 0x13,2
                 ;     678         {
                 ;     679                 goto menu05;
000592 cfcc      	RJMP _0x91
                 ;     680         }
                 ;     681 
                 ;     682         if (!sw_down)
000593 999b      	SBIC 0x13,3
000594 c003      	RJMP _0x99
                 ;     683         {
                 ;     684                 lcd_clear();
000595 940e 0e36 	CALL _lcd_clear
                 ;     685                 goto menu01;
000597 cf4a      	RJMP _0x7C
                 ;     686         }
                 ;     687 
                 ;     688         goto menu06;
                 _0x99:
000598 cfe3      	RJMP _0x82
                 ;     689 
                 ;     690 
                 ;     691     setPID:
                 _0x7E:
                 ;     692         delay_ms(150);
000599 940e 0fcd 	CALL SUBOPT_0x27
                 ;     693         lcd_gotoxy(0,0);
00059b 940e 0fc5 	CALL SUBOPT_0x25
                 ;     694                 // 0123456789ABCDEF
                 ;     695         lcd_putsf("  Kp   Ki   Kd  ");
00059d e1eb
00059e e0f2      	__POINTW1FN _0,401
00059f 940e 0eeb 	CALL SUBOPT_0x1
                 ;     696         // lcd_putsf(" 250  200  300  ");
                 ;     697         lcd_putchar(' ');
0005a1 940e 0fd4 	CALL SUBOPT_0x29
                 ;     698         tampil(Kp); lcd_putchar(' '); lcd_putchar(' ');
0005a3 940e 0f04 	CALL SUBOPT_0x6
0005a5 940e 0fd8 	CALL SUBOPT_0x2A
0005a7 940e 0fd4 	CALL SUBOPT_0x29
                 ;     699         tampil(Ki); lcd_putchar(' '); lcd_putchar(' ');
0005a9 940e 0f09 	CALL SUBOPT_0x7
0005ab 940e 0fd8 	CALL SUBOPT_0x2A
0005ad 940e 0fd4 	CALL SUBOPT_0x29
                 ;     700         tampil(Kd); lcd_putchar(' '); lcd_putchar(' ');
0005af 940e 0f0e 	CALL SUBOPT_0x8
0005b1 940e 0fd8 	CALL SUBOPT_0x2A
0005b3 940e 0fd4 	CALL SUBOPT_0x29
                 ;     701 
                 ;     702         switch (kursorPID)
0005b5 91e0 019a 	LDS  R30,_kursorPID
                 ;     703         {
                 ;     704           case 1:
0005b7 30e1      	CPI  R30,LOW(0x1)
0005b8 f411      	BRNE _0x9D
                 ;     705                 lcd_gotoxy(1,0); // kursor Kp
0005b9 e0e1      	LDI  R30,LOW(1)
0005ba c007      	RJMP _0x1CF
                 ;     706                 lcd_putchar(0);
                 ;     707                 break;
                 ;     708           case 2:
                 _0x9D:
0005bb 30e2      	CPI  R30,LOW(0x2)
0005bc f411      	BRNE _0x9E
                 ;     709                 lcd_gotoxy(6,0); // kursor Ki
0005bd e0e6      	LDI  R30,LOW(6)
0005be c003      	RJMP _0x1CF
                 ;     710                 lcd_putchar(0);
                 ;     711                 break;
                 ;     712           case 3:
                 _0x9E:
0005bf 30e3      	CPI  R30,LOW(0x3)
0005c0 f421      	BRNE _0x9C
                 ;     713                 lcd_gotoxy(11,0); // kursor Kd
0005c1 e0eb      	LDI  R30,LOW(11)
                 _0x1CF:
0005c2 93ea      	ST   -Y,R30
0005c3 940e 0fdc 	CALL SUBOPT_0x2B
                 ;     714                 lcd_putchar(0);
                 ;     715                 break;
                 ;     716         }
                 _0x9C:
                 ;     717 
                 ;     718         if (!sw_ok)
0005c5 9998      	SBIC 0x13,0
0005c6 c006      	RJMP _0xA0
                 ;     719         {
                 ;     720                 setByte( 1, kursorPID);
0005c7 e0e1      	LDI  R30,LOW(1)
0005c8 93ea      	ST   -Y,R30
0005c9 91e0 019a 	LDS  R30,_kursorPID
0005cb 940e 0fe1 	CALL SUBOPT_0x2C
                 ;     721                 delay_ms(200);
                 ;     722         }
                 ;     723         if (!sw_up)
                 _0xA0:
0005cd 999a      	SBIC 0x13,2
0005ce c00b      	RJMP _0xA1
                 ;     724         {
                 ;     725                 if (kursorPID == 3) {
0005cf 91a0 019a 	LDS  R26,_kursorPID
0005d1 30a3      	CPI  R26,LOW(0x3)
0005d2 f411      	BRNE _0xA2
                 ;     726                         kursorPID = 1;
0005d3 e0e1      	LDI  R30,LOW(1)
0005d4 c003      	RJMP _0x1D0
                 ;     727                 } else kursorPID++;
                 _0xA2:
0005d5 91e0 019a 	LDS  R30,_kursorPID
0005d7 5fef      	SUBI R30,-LOW(1)
                 _0x1D0:
0005d8 93e0 019a 	STS  _kursorPID,R30
                 ;     728         }
                 ;     729         if (!sw_down)
                 _0xA1:
0005da 999b      	SBIC 0x13,3
0005db c00b      	RJMP _0xA4
                 ;     730         {
                 ;     731                 if (kursorPID == 1) {
0005dc 91a0 019a 	LDS  R26,_kursorPID
0005de 30a1      	CPI  R26,LOW(0x1)
0005df f411      	BRNE _0xA5
                 ;     732                         kursorPID = 3;
0005e0 e0e3      	LDI  R30,LOW(3)
0005e1 c003      	RJMP _0x1D1
                 ;     733                 } else kursorPID--;
                 _0xA5:
0005e2 91e0 019a 	LDS  R30,_kursorPID
0005e4 50e1      	SUBI R30,LOW(1)
                 _0x1D1:
0005e5 93e0 019a 	STS  _kursorPID,R30
                 ;     734         }
                 ;     735 
                 ;     736         if (!sw_cancel)
                 _0xA4:
0005e7 9999      	SBIC 0x13,1
0005e8 c003      	RJMP _0xA7
                 ;     737         {
                 ;     738                 lcd_clear();
0005e9 940e 0e36 	CALL _lcd_clear
                 ;     739                 goto menu01;
0005eb cef6      	RJMP _0x7C
                 ;     740         }
                 ;     741 
                 ;     742         goto setPID;
                 _0xA7:
0005ec cfac      	RJMP _0x7E
                 ;     743 
                 ;     744     setSpeed:
                 _0x84:
                 ;     745         delay_ms(150);
0005ed 940e 0fcd 	CALL SUBOPT_0x27
                 ;     746         lcd_gotoxy(0,0);
0005ef 940e 0fc5 	CALL SUBOPT_0x25
                 ;     747                 // 0123456789ABCDEF
                 ;     748         lcd_putsf("   MAX    MIN   ");
0005f1 e2ec
0005f2 e0f2      	__POINTW1FN _0,418
0005f3 940e 0eeb 	CALL SUBOPT_0x1
                 ;     749         lcd_putchar(' ');lcd_putchar(' ');lcd_putchar(' ');
0005f5 940e 0fd4 	CALL SUBOPT_0x29
0005f7 940e 0fd4 	CALL SUBOPT_0x29
0005f9 940e 0fd4 	CALL SUBOPT_0x29
                 ;     750 
                 ;     751         //lcd_putsf("   250    200   ");
                 ;     752         tampil(MAXSpeed);
0005fb 940e 0f13 	CALL SUBOPT_0x9
0005fd 940e 0fd8 	CALL SUBOPT_0x2A
                 ;     753         lcd_putchar(' '); lcd_putchar(' ');lcd_putchar(' '); lcd_putchar(' ');
0005ff 940e 0fd4 	CALL SUBOPT_0x29
000601 940e 0fd4 	CALL SUBOPT_0x29
000603 940e 0fd4 	CALL SUBOPT_0x29
                 ;     754         tampil(MINSpeed);
000605 940e 0f18 	CALL SUBOPT_0xA
000607 940e 0fd8 	CALL SUBOPT_0x2A
                 ;     755         lcd_putchar(' ');lcd_putchar(' ');lcd_putchar(' ');
000609 940e 0fd4 	CALL SUBOPT_0x29
00060b 940e 0fd4 	CALL SUBOPT_0x29
                 ;     756 
                 ;     757         switch (kursorSpeed)
00060d 91e0 019b 	LDS  R30,_kursorSpeed
                 ;     758         {
                 ;     759           case 1:
00060f 30e1      	CPI  R30,LOW(0x1)
000610 f411      	BRNE _0xAB
                 ;     760                 lcd_gotoxy(2,0); // kursor MAX
000611 e0e2      	LDI  R30,LOW(2)
000612 c003      	RJMP _0x1D2
                 ;     761                 lcd_putchar(0);
                 ;     762                 break;
                 ;     763           case 2:
                 _0xAB:
000613 30e2      	CPI  R30,LOW(0x2)
000614 f421      	BRNE _0xAA
                 ;     764                 lcd_gotoxy(9,0); // kursor MIN
000615 e0e9      	LDI  R30,LOW(9)
                 _0x1D2:
000616 93ea      	ST   -Y,R30
000617 940e 0fdc 	CALL SUBOPT_0x2B
                 ;     765                 lcd_putchar(0);
                 ;     766                 break;
                 ;     767         }
                 _0xAA:
                 ;     768 
                 ;     769         if (!sw_ok)
000619 9998      	SBIC 0x13,0
00061a c006      	RJMP _0xAD
                 ;     770         {
                 ;     771                 setByte( 2, kursorSpeed);
00061b e0e2      	LDI  R30,LOW(2)
00061c 93ea      	ST   -Y,R30
00061d 91e0 019b 	LDS  R30,_kursorSpeed
00061f 940e 0fe1 	CALL SUBOPT_0x2C
                 ;     772                 delay_ms(200);
                 ;     773         }
                 ;     774         if (!sw_up)
                 _0xAD:
000621 999a      	SBIC 0x13,2
000622 c00b      	RJMP _0xAE
                 ;     775         {
                 ;     776                 if (kursorSpeed == 2)
000623 91a0 019b 	LDS  R26,_kursorSpeed
000625 30a2      	CPI  R26,LOW(0x2)
000626 f411      	BRNE _0xAF
                 ;     777                 {
                 ;     778                         kursorSpeed = 1;
000627 e0e1      	LDI  R30,LOW(1)
000628 c003      	RJMP _0x1D3
                 ;     779                 } else kursorSpeed++;
                 _0xAF:
000629 91e0 019b 	LDS  R30,_kursorSpeed
00062b 5fef      	SUBI R30,-LOW(1)
                 _0x1D3:
00062c 93e0 019b 	STS  _kursorSpeed,R30
                 ;     780         }
                 ;     781         if (!sw_down)
                 _0xAE:
00062e 999b      	SBIC 0x13,3
00062f c00b      	RJMP _0xB1
                 ;     782         {
                 ;     783                 if (kursorSpeed == 1)
000630 91a0 019b 	LDS  R26,_kursorSpeed
000632 30a1      	CPI  R26,LOW(0x1)
000633 f411      	BRNE _0xB2
                 ;     784                 {
                 ;     785                         kursorSpeed = 2;
000634 e0e2      	LDI  R30,LOW(2)
000635 c003      	RJMP _0x1D4
                 ;     786                 } else kursorSpeed--;
                 _0xB2:
000636 91e0 019b 	LDS  R30,_kursorSpeed
000638 50e1      	SUBI R30,LOW(1)
                 _0x1D4:
000639 93e0 019b 	STS  _kursorSpeed,R30
                 ;     787         }
                 ;     788 
                 ;     789         if (!sw_cancel)
                 _0xB1:
00063b 9999      	SBIC 0x13,1
00063c c003      	RJMP _0xB4
                 ;     790         {
                 ;     791                 lcd_clear();
00063d 940e 0e36 	CALL _lcd_clear
                 ;     792                 goto menu02;
00063f cec2      	RJMP _0x80
                 ;     793         }
                 ;     794 
                 ;     795         goto setSpeed;
                 _0xB4:
000640 cfac      	RJMP _0x84
                 ;     796 
                 ;     797      setGaris: // not yet
                 _0x89:
                 ;     798         delay_ms(150);
000641 940e 0fcd 	CALL SUBOPT_0x27
                 ;     799         lcd_gotoxy(0,0);
000643 940e 0fc5 	CALL SUBOPT_0x25
                 ;     800                 // 0123456789ABCDEF
                 ;     801         if ( WarnaGaris == 1 )
000645 e0ad      	LDI  R26,LOW(_WarnaGaris)
000646 e0b0      	LDI  R27,HIGH(_WarnaGaris)
000647 940e 113e 	CALL __EEPROMRDB
000649 30e1      	CPI  R30,LOW(0x1)
00064a f419      	BRNE _0xB5
                 ;     802                 lcd_putsf("  WARNA : Putih ");
00064b e3ed
00064c e0f2      	__POINTW1FN _0,435
00064d c002      	RJMP _0x1D5
                 ;     803         else
                 _0xB5:
                 ;     804                 lcd_putsf("  WARNA : Hitam ");
00064e e4ee
00064f e0f2      	__POINTW1FN _0,452
                 _0x1D5:
000650 93fa      	ST   -Y,R31
000651 93ea      	ST   -Y,R30
000652 940e 0e85 	CALL _lcd_putsf
                 ;     805 
                 ;     806         //lcd_putsf("  LEBAR: 1.5 cm ");
                 ;     807         lcd_gotoxy(0,1);
000654 940e 0eef 	CALL SUBOPT_0x2
                 ;     808         lcd_putsf("  SensL :        ");
000656 e5ef
000657 e0f2      	__POINTW1FN _0,469
000658 940e 0eeb 	CALL SUBOPT_0x1
                 ;     809         lcd_gotoxy(10,1);
00065a e0ea      	LDI  R30,LOW(10)
00065b 940e 0fe5 	CALL SUBOPT_0x2D
                 ;     810         tampil( SensLine );
00065d e0ae      	LDI  R26,LOW(_SensLine)
00065e e0b0      	LDI  R27,HIGH(_SensLine)
00065f 940e 113e 	CALL __EEPROMRDB
000661 93ea      	ST   -Y,R30
000662 940e 03c4 	CALL _tampil
                 ;     811 
                 ;     812         switch (kursorGaris)
000664 91e0 019c 	LDS  R30,_kursorGaris
                 ;     813         {
                 ;     814           case 1:
000666 30e1      	CPI  R30,LOW(0x1)
000667 f419      	BRNE _0xBA
                 ;     815                 lcd_gotoxy(0,0); // kursor Warna
000668 e0e0      	LDI  R30,LOW(0)
000669 93ea      	ST   -Y,R30
00066a c005      	RJMP _0x1D6
                 ;     816                 lcd_putchar(0);
                 ;     817                 break;
                 ;     818           case 2:
                 _0xBA:
00066b 30e2      	CPI  R30,LOW(0x2)
00066c f441      	BRNE _0xB9
                 ;     819                 lcd_gotoxy(0,1); // kursor SensL
00066d e0e0      	LDI  R30,LOW(0)
00066e 93ea      	ST   -Y,R30
00066f e0e1      	LDI  R30,LOW(1)
                 _0x1D6:
000670 93ea      	ST   -Y,R30
000671 940e 0e22 	CALL _lcd_gotoxy
                 ;     820                 lcd_putchar(0);
000673 940e 0fd0 	CALL SUBOPT_0x28
                 ;     821                 break;
                 ;     822         }
                 _0xB9:
                 ;     823 
                 ;     824         if (!sw_ok)
000675 9998      	SBIC 0x13,0
000676 c006      	RJMP _0xBC
                 ;     825         {
                 ;     826                 setByte( 3, kursorGaris);
000677 e0e3      	LDI  R30,LOW(3)
000678 93ea      	ST   -Y,R30
000679 91e0 019c 	LDS  R30,_kursorGaris
00067b 940e 0fe1 	CALL SUBOPT_0x2C
                 ;     827                 delay_ms(200);
                 ;     828         }
                 ;     829         if (!sw_up)
                 _0xBC:
00067d 999a      	SBIC 0x13,2
00067e c00b      	RJMP _0xBD
                 ;     830         {
                 ;     831                 if (kursorGaris == 2)
00067f 91a0 019c 	LDS  R26,_kursorGaris
000681 30a2      	CPI  R26,LOW(0x2)
000682 f411      	BRNE _0xBE
                 ;     832                 {
                 ;     833                         kursorGaris = 1;
000683 e0e1      	LDI  R30,LOW(1)
000684 c003      	RJMP _0x1D7
                 ;     834                 } else kursorGaris++;
                 _0xBE:
000685 91e0 019c 	LDS  R30,_kursorGaris
000687 5fef      	SUBI R30,-LOW(1)
                 _0x1D7:
000688 93e0 019c 	STS  _kursorGaris,R30
                 ;     835         }
                 ;     836         if (!sw_down)
                 _0xBD:
00068a 999b      	SBIC 0x13,3
00068b c00b      	RJMP _0xC0
                 ;     837         {
                 ;     838                 if (kursorGaris == 1)
00068c 91a0 019c 	LDS  R26,_kursorGaris
00068e 30a1      	CPI  R26,LOW(0x1)
00068f f411      	BRNE _0xC1
                 ;     839                 {
                 ;     840                         kursorGaris = 2;
000690 e0e2      	LDI  R30,LOW(2)
000691 c003      	RJMP _0x1D8
                 ;     841                 } else kursorGaris--;
                 _0xC1:
000692 91e0 019c 	LDS  R30,_kursorGaris
000694 50e1      	SUBI R30,LOW(1)
                 _0x1D8:
000695 93e0 019c 	STS  _kursorGaris,R30
                 ;     842         }
                 ;     843 
                 ;     844         if (!sw_cancel)
                 _0xC0:
000697 9999      	SBIC 0x13,1
000698 c003      	RJMP _0xC3
                 ;     845         {
                 ;     846                 lcd_clear();
000699 940e 0e36 	CALL _lcd_clear
                 ;     847                 goto menu03;
00069b ce86      	RJMP _0x87
                 ;     848         }
                 ;     849 
                 ;     850         goto setGaris;
                 _0xC3:
00069c cfa4      	RJMP _0x89
                 ;     851 
                 ;     852      setSkenario:
                 _0x8E:
                 ;     853         delay_ms(150);
00069d 940e 0fcd 	CALL SUBOPT_0x27
                 ;     854         lcd_gotoxy(0,0);
00069f 940e 0fc5 	CALL SUBOPT_0x25
                 ;     855                 // 0123456789ABCDEF
                 ;     856         lcd_putsf("Sken. yg  dpake:");
0006a1 e7e1
0006a2 e0f2      	__POINTW1FN _0,487
0006a3 940e 0eeb 	CALL SUBOPT_0x1
                 ;     857         lcd_gotoxy(0, 1);
0006a5 940e 0eef 	CALL SUBOPT_0x2
                 ;     858         tampil( Skenario );
0006a7 e0af      	LDI  R26,LOW(_Skenario)
0006a8 e0b0      	LDI  R27,HIGH(_Skenario)
0006a9 940e 113e 	CALL __EEPROMRDB
0006ab 93ea      	ST   -Y,R30
0006ac 940e 03c4 	CALL _tampil
                 ;     859 
                 ;     860         if (!sw_ok)
0006ae 9998      	SBIC 0x13,0
0006af c005      	RJMP _0xC4
                 ;     861         {
                 ;     862                 setByte( 4, 0);
0006b0 e0e4      	LDI  R30,LOW(4)
0006b1 93ea      	ST   -Y,R30
0006b2 e0e0      	LDI  R30,LOW(0)
0006b3 940e 0fe1 	CALL SUBOPT_0x2C
                 ;     863                 delay_ms(200);
                 ;     864         }
                 ;     865 
                 ;     866         if (!sw_cancel)
                 _0xC4:
0006b5 9999      	SBIC 0x13,1
0006b6 c003      	RJMP _0xC5
                 ;     867         {
                 ;     868                 lcd_clear();
0006b7 940e 0e36 	CALL _lcd_clear
                 ;     869                 goto menu04;
0006b9 ce88      	RJMP _0x8C
                 ;     870         }
                 ;     871 
                 ;     872         goto setSkenario;
                 _0xC5:
0006ba cfe2      	RJMP _0x8E
                 ;     873 
                 ;     874      mode:
                 _0x93:
                 ;     875         delay_ms(125);
0006bb 940e 0f30 	CALL SUBOPT_0xD
                 ;     876         if  (!sw_up)
0006bd 999a      	SBIC 0x13,2
0006be c011      	RJMP _0xC6
                 ;     877         {
                 ;     878             if (Mode==6)
0006bf 940e 0fea 	CALL SUBOPT_0x2E
0006c1 30e6      	CPI  R30,LOW(0x6)
0006c2 f431      	BRNE _0xC7
                 ;     879             {
                 ;     880                 Mode=1;
0006c3 e0e1      	LDI  R30,LOW(1)
0006c4 e1a0      	LDI  R26,LOW(_Mode)
0006c5 e0b0      	LDI  R27,HIGH(_Mode)
0006c6 940e 114a 	CALL __EEPROMWRB
                 ;     881             }
                 ;     882 
                 ;     883             else Mode++;
0006c8 c006      	RJMP _0xC8
                 _0xC7:
0006c9 940e 0fea 	CALL SUBOPT_0x2E
0006cb 5fef      	SUBI R30,-LOW(1)
0006cc 940e 114a 	CALL __EEPROMWRB
0006ce 50e1      	SUBI R30,LOW(1)
                 ;     884 
                 ;     885             goto nomorMode;
                 _0xC8:
0006cf c012      	RJMP _0xC9
                 ;     886         }
                 ;     887 
                 ;     888         if  (!sw_down)
                 _0xC6:
0006d0 999b      	SBIC 0x13,3
0006d1 c010      	RJMP _0xCA
                 ;     889         {
                 ;     890             if  (Mode==1)
0006d2 940e 0fea 	CALL SUBOPT_0x2E
0006d4 30e1      	CPI  R30,LOW(0x1)
0006d5 f431      	BRNE _0xCB
                 ;     891             {
                 ;     892                 Mode=6;
0006d6 e0e6      	LDI  R30,LOW(6)
0006d7 e1a0      	LDI  R26,LOW(_Mode)
0006d8 e0b0      	LDI  R27,HIGH(_Mode)
0006d9 940e 114a 	CALL __EEPROMWRB
                 ;     893             }
                 ;     894 
                 ;     895             else Mode--;
0006db c006      	RJMP _0xCC
                 _0xCB:
0006dc 940e 0fea 	CALL SUBOPT_0x2E
0006de 50e1      	SUBI R30,LOW(1)
0006df 940e 114a 	CALL __EEPROMWRB
0006e1 5fef      	SUBI R30,-LOW(1)
                 ;     896 
                 ;     897             goto nomorMode;
                 _0xCC:
                 ;     898         }
                 ;     899 
                 ;     900         nomorMode:
                 _0xCA:
                 _0xC9:
                 ;     901             if (Mode==1)
0006e2 940e 0fea 	CALL SUBOPT_0x2E
0006e4 30e1      	CPI  R30,LOW(0x1)
0006e5 f451      	BRNE _0xCD
                 ;     902             {
                 ;     903                 lcd_clear();
0006e6 940e 0fca 	CALL SUBOPT_0x26
                 ;     904                 lcd_gotoxy(0,0);
                 ;     905                 lcd_putsf(" Mode :         ");
0006e8 940e 0fef 	CALL SUBOPT_0x2F
                 ;     906                 lcd_gotoxy(0,1);
0006ea 940e 0eef 	CALL SUBOPT_0x2
                 ;     907                 lcd_putsf(" 1.Lihat ADC");
0006ec e9e3
0006ed e0f2      	__POINTW1FN _0,521
0006ee 940e 0eeb 	CALL SUBOPT_0x1
                 ;     908             }
                 ;     909 
                 ;     910             if  (Mode==2)
                 _0xCD:
0006f0 940e 0fea 	CALL SUBOPT_0x2E
0006f2 30e2      	CPI  R30,LOW(0x2)
0006f3 f451      	BRNE _0xCE
                 ;     911             {
                 ;     912                 lcd_clear();
0006f4 940e 0fca 	CALL SUBOPT_0x26
                 ;     913                 lcd_gotoxy(0,0);
                 ;     914                 lcd_putsf(" Mode :         ");
0006f6 940e 0fef 	CALL SUBOPT_0x2F
                 ;     915                 lcd_gotoxy(0,1);
0006f8 940e 0eef 	CALL SUBOPT_0x2
                 ;     916                 lcd_putsf(" 2.Test Mode");
0006fa eae0
0006fb e0f2      	__POINTW1FN _0,534
0006fc 940e 0eeb 	CALL SUBOPT_0x1
                 ;     917             }
                 ;     918 
                 ;     919             if  (Mode==3)
                 _0xCE:
0006fe 940e 0fea 	CALL SUBOPT_0x2E
000700 30e3      	CPI  R30,LOW(0x3)
000701 f451      	BRNE _0xCF
                 ;     920             {
                 ;     921                 lcd_clear();
000702 940e 0fca 	CALL SUBOPT_0x26
                 ;     922                 lcd_gotoxy(0,0);
                 ;     923                 lcd_putsf(" Mode :         ");
000704 940e 0fef 	CALL SUBOPT_0x2F
                 ;     924                 lcd_gotoxy(0,1);
000706 940e 0eef 	CALL SUBOPT_0x2
                 ;     925                 lcd_putsf(" 3.Cek Sensor ");
000708 eaed
000709 e0f2      	__POINTW1FN _0,547
00070a 940e 0eeb 	CALL SUBOPT_0x1
                 ;     926             }
                 ;     927 
                 ;     928             if  (Mode==4)
                 _0xCF:
00070c 940e 0fea 	CALL SUBOPT_0x2E
00070e 30e4      	CPI  R30,LOW(0x4)
00070f f451      	BRNE _0xD0
                 ;     929             {
                 ;     930                 lcd_clear();
000710 940e 0fca 	CALL SUBOPT_0x26
                 ;     931                 lcd_gotoxy(0,0);
                 ;     932                 lcd_putsf(" Mode :         ");
000712 940e 0fef 	CALL SUBOPT_0x2F
                 ;     933                 lcd_gotoxy(0,1);
000714 940e 0eef 	CALL SUBOPT_0x2
                 ;     934                 lcd_putsf(" 4.Auto Tune 1-1");
000716 ebec
000717 e0f2      	__POINTW1FN _0,562
000718 940e 0eeb 	CALL SUBOPT_0x1
                 ;     935             }
                 ;     936 
                 ;     937              if  (Mode==5)
                 _0xD0:
00071a 940e 0fea 	CALL SUBOPT_0x2E
00071c 30e5      	CPI  R30,LOW(0x5)
00071d f451      	BRNE _0xD1
                 ;     938             {
                 ;     939                 lcd_clear();
00071e 940e 0fca 	CALL SUBOPT_0x26
                 ;     940                 lcd_gotoxy(0,0);
                 ;     941                 lcd_putsf(" Mode :         ");
000720 940e 0fef 	CALL SUBOPT_0x2F
                 ;     942                 lcd_gotoxy(0,1);
000722 940e 0eef 	CALL SUBOPT_0x2
                 ;     943                 lcd_putsf(" 5.Auto Tune ");
000724 eced
000725 e0f2      	__POINTW1FN _0,579
000726 940e 0eeb 	CALL SUBOPT_0x1
                 ;     944             }
                 ;     945 
                 ;     946             if  (Mode==6)
                 _0xD1:
000728 940e 0fea 	CALL SUBOPT_0x2E
00072a 30e6      	CPI  R30,LOW(0x6)
00072b f451      	BRNE _0xD2
                 ;     947             {
                 ;     948                 lcd_clear();
00072c 940e 0fca 	CALL SUBOPT_0x26
                 ;     949                 lcd_gotoxy(0,0);
                 ;     950                 lcd_putsf(" Mode :         ");
00072e 940e 0fef 	CALL SUBOPT_0x2F
                 ;     951                 lcd_gotoxy(0,1);
000730 940e 0eef 	CALL SUBOPT_0x2
                 ;     952                 lcd_putsf(" 6.Cek PWM Aktif");
000732 edeb
000733 e0f2      	__POINTW1FN _0,593
000734 940e 0eeb 	CALL SUBOPT_0x1
                 ;     953             }
                 ;     954 
                 ;     955         if  (!sw_ok)
                 _0xD2:
000736 9998      	SBIC 0x13,0
000737 c05e      	RJMP _0xD3
                 ;     956         {
                 ;     957             switch  (Mode)
000738 940e 0fea 	CALL SUBOPT_0x2E
                 ;     958             {
                 ;     959                 case 1:
00073a 30e1      	CPI  R30,LOW(0x1)
00073b f011      	BREQ PC+3
00073c 940c 077f 	JMP _0xD7
                 ;     960                 {
                 ;     961                     for(;;)
                 _0xD9:
                 ;     962                     {
                 ;     963                         lcd_gotoxy(2,0);
00073e e0e2      	LDI  R30,LOW(2)
00073f 940e 0ff2 	CALL SUBOPT_0x30
                 ;     964                         sprintf(lcd,"  %d %d %d %d",read_adc(3),read_adc(2),read_adc(1),read_adc(0));
000741 940e 0ff7 	CALL SUBOPT_0x31
000743 eeec
000744 e0f2      	__POINTW1FN _0,610
000745 93fa      	ST   -Y,R31
000746 93ea      	ST   -Y,R30
000747 940e 0f80 	CALL SUBOPT_0x17
000749 940e 0ffc 	CALL SUBOPT_0x32
00074b 940e 0f7c 	CALL SUBOPT_0x16
00074d 940e 0ffc 	CALL SUBOPT_0x32
00074f 940e 0f78 	CALL SUBOPT_0x15
000751 940e 0ffc 	CALL SUBOPT_0x32
000753 940e 0f74 	CALL SUBOPT_0x14
000755 940e 0ffc 	CALL SUBOPT_0x32
000757 940e 1002 	CALL SUBOPT_0x33
                 ;     965                         lcd_puts(lcd);
000759 940e 0e76 	CALL _lcd_puts
                 ;     966                         lcd_gotoxy(1,1);
00075b e0e1      	LDI  R30,LOW(1)
00075c 940e 0fe5 	CALL SUBOPT_0x2D
                 ;     967                         sprintf(lcd,"%d %d %d %d",read_adc(7),read_adc(6),read_adc(5),read_adc(4));
00075e 940e 0ff7 	CALL SUBOPT_0x31
000760 eeee
000761 e0f2      	__POINTW1FN _0,612
000762 93fa      	ST   -Y,R31
000763 93ea      	ST   -Y,R30
000764 940e 0f90 	CALL SUBOPT_0x1B
000766 940e 0ffc 	CALL SUBOPT_0x32
000768 940e 0f8c 	CALL SUBOPT_0x1A
00076a 940e 0ffc 	CALL SUBOPT_0x32
00076c 940e 0f88 	CALL SUBOPT_0x19
00076e 940e 0ffc 	CALL SUBOPT_0x32
000770 940e 0f84 	CALL SUBOPT_0x18
000772 940e 0ffc 	CALL SUBOPT_0x32
000774 940e 1002 	CALL SUBOPT_0x33
                 ;     968                         lcd_puts(lcd);
000776 940e 0e76 	CALL _lcd_puts
                 ;     969                         delay_ms(100);
000778 e6e4      	LDI  R30,LOW(100)
000779 e0f0      	LDI  R31,HIGH(100)
00077a 940e 0efd 	CALL SUBOPT_0x4
                 ;     970                         lcd_clear();
00077c 940e 0e36 	CALL _lcd_clear
                 ;     971                     }
00077e cfbf      	RJMP _0xD9
                 ;     972                 }
                 ;     973                 break;
                 ;     974 
                 ;     975                 case 2:
                 _0xD7:
00077f 30e2      	CPI  R30,LOW(0x2)
000780 f411      	BRNE _0xDB
                 ;     976                 {
                 ;     977                     cek_sensor();
000781 d0ab      	RCALL _cek_sensor
                 ;     978                 }
                 ;     979                 break;
000782 c013      	RJMP _0xD6
                 ;     980 
                 ;     981                 case 3:
                 _0xDB:
000783 30e3      	CPI  R30,LOW(0x3)
000784 f411      	BRNE _0xDC
                 ;     982                 {
                 ;     983                     cek_sensor();
000785 d0a7      	RCALL _cek_sensor
                 ;     984                 }
                 ;     985                 break;
000786 c00f      	RJMP _0xD6
                 ;     986 
                 ;     987                 case 4:
                 _0xDC:
000787 30e4      	CPI  R30,LOW(0x4)
000788 f411      	BRNE _0xDD
                 ;     988                 {
                 ;     989                     tune_batas();
000789 d0bd      	RCALL _tune_batas
                 ;     990 
                 ;     991                 }
                 ;     992                 break;
00078a c00b      	RJMP _0xD6
                 ;     993 
                 ;     994                 case 5:
                 _0xDD:
00078b 30e5      	CPI  R30,LOW(0x5)
00078c f411      	BRNE _0xDE
                 ;     995                 {
                 ;     996                     auto_scan();
00078d d29f      	RCALL _auto_scan
                 ;     997                     goto menu01;
00078e cd53      	RJMP _0x7C
                 ;     998                 }
                 ;     999                 break;
                 ;    1000 
                 ;    1001                 case 6:
                 _0xDE:
00078f 30e6      	CPI  R30,LOW(0x6)
000790 f429      	BRNE _0xD6
                 ;    1002                 {
                 ;    1003                     pemercepat();
000791 940e 0306 	CALL _pemercepat
                 ;    1004                     pelambat();
000793 940e 0325 	CALL _pelambat
                 ;    1005                     goto menu01;
000795 cd4c      	RJMP _0x7C
                 ;    1006                 }
                 ;    1007                 break;
                 ;    1008             }
                 _0xD6:
                 ;    1009         }
                 ;    1010 
                 ;    1011         if  (!sw_cancel)
                 _0xD3:
000796 9999      	SBIC 0x13,1
000797 c003      	RJMP _0xE0
                 ;    1012         {
                 ;    1013             lcd_clear();
000798 940e 0e36 	CALL _lcd_clear
                 ;    1014             goto menu05;
00079a cdc4      	RJMP _0x91
                 ;    1015         }
                 ;    1016 
                 ;    1017         goto mode;
                 _0xE0:
00079b cf1f      	RJMP _0x93
                 ;    1018 
                 ;    1019      startRobot:
                 _0x97:
                 ;    1020         //TIMSK = 0x01;
                 ;    1021         #asm("sei")
00079c 9478      	sei
                 ;    1022         lcd_clear();
00079d 940e 0e36 	CALL _lcd_clear
                 ;    1023 }
00079f 9508      	RET
                 ;    1024 
                 ;    1025 void displaySensorBit()
                 ;    1026 {
                 _displaySensorBit:
                 ;    1027     baca_sensor();
0007a0 940e 034a 	CALL _baca_sensor
                 ;    1028 
                 ;    1029     lcd_gotoxy(2,1);
0007a2 e0e2      	LDI  R30,LOW(2)
0007a3 940e 0fe5 	CALL SUBOPT_0x2D
                 ;    1030     if (s7) lcd_putchar('1');
0007a5 fe27      	SBRS R2,7
0007a6 c002      	RJMP _0xE1
0007a7 e3e1      	LDI  R30,LOW(49)
0007a8 c001      	RJMP _0x1D9
                 ;    1031     else    lcd_putchar('0');
                 _0xE1:
0007a9 e3e0      	LDI  R30,LOW(48)
                 _0x1D9:
0007aa 93ea      	ST   -Y,R30
0007ab 940e 0e4e 	CALL _lcd_putchar
                 ;    1032     if (s6) lcd_putchar('1');
0007ad fe26      	SBRS R2,6
0007ae c002      	RJMP _0xE3
0007af e3e1      	LDI  R30,LOW(49)
0007b0 c001      	RJMP _0x1DA
                 ;    1033     else    lcd_putchar('0');
                 _0xE3:
0007b1 e3e0      	LDI  R30,LOW(48)
                 _0x1DA:
0007b2 93ea      	ST   -Y,R30
0007b3 940e 0e4e 	CALL _lcd_putchar
                 ;    1034     if (s5) lcd_putchar('1');
0007b5 fe25      	SBRS R2,5
0007b6 c002      	RJMP _0xE5
0007b7 e3e1      	LDI  R30,LOW(49)
0007b8 c001      	RJMP _0x1DB
                 ;    1035     else    lcd_putchar('0');
                 _0xE5:
0007b9 e3e0      	LDI  R30,LOW(48)
                 _0x1DB:
0007ba 93ea      	ST   -Y,R30
0007bb 940e 0e4e 	CALL _lcd_putchar
                 ;    1036     if (s4) lcd_putchar('1');
0007bd fe24      	SBRS R2,4
0007be c002      	RJMP _0xE7
0007bf e3e1      	LDI  R30,LOW(49)
0007c0 c001      	RJMP _0x1DC
                 ;    1037     else    lcd_putchar('0');
                 _0xE7:
0007c1 e3e0      	LDI  R30,LOW(48)
                 _0x1DC:
0007c2 93ea      	ST   -Y,R30
0007c3 940e 0e4e 	CALL _lcd_putchar
                 ;    1038     if (s3) lcd_putchar('1');
0007c5 fe23      	SBRS R2,3
0007c6 c002      	RJMP _0xE9
0007c7 e3e1      	LDI  R30,LOW(49)
0007c8 c001      	RJMP _0x1DD
                 ;    1039     else    lcd_putchar('0');
                 _0xE9:
0007c9 e3e0      	LDI  R30,LOW(48)
                 _0x1DD:
0007ca 93ea      	ST   -Y,R30
0007cb 940e 0e4e 	CALL _lcd_putchar
                 ;    1040     if (s2) lcd_putchar('1');
0007cd fe22      	SBRS R2,2
0007ce c002      	RJMP _0xEB
0007cf e3e1      	LDI  R30,LOW(49)
0007d0 c001      	RJMP _0x1DE
                 ;    1041     else    lcd_putchar('0');
                 _0xEB:
0007d1 e3e0      	LDI  R30,LOW(48)
                 _0x1DE:
0007d2 93ea      	ST   -Y,R30
0007d3 940e 0e4e 	CALL _lcd_putchar
                 ;    1042     if (s1) lcd_putchar('1');
0007d5 fe21      	SBRS R2,1
0007d6 c002      	RJMP _0xED
0007d7 e3e1      	LDI  R30,LOW(49)
0007d8 c001      	RJMP _0x1DF
                 ;    1043     else    lcd_putchar('0');
                 _0xED:
0007d9 e3e0      	LDI  R30,LOW(48)
                 _0x1DF:
0007da 93ea      	ST   -Y,R30
0007db 940e 0e4e 	CALL _lcd_putchar
                 ;    1044     if (s0) lcd_putchar('1');
0007dd fe20      	SBRS R2,0
0007de c002      	RJMP _0xEF
0007df e3e1      	LDI  R30,LOW(49)
0007e0 c001      	RJMP _0x1E0
                 ;    1045     else    lcd_putchar('0');
                 _0xEF:
0007e1 e3e0      	LDI  R30,LOW(48)
                 _0x1E0:
0007e2 93ea      	ST   -Y,R30
0007e3 940e 0e4e 	CALL _lcd_putchar
                 ;    1046 }
0007e5 9508      	RET
                 ;    1047 
                 ;    1048 interrupt [TIM0_OVF] void timer0_ovf_isr(void)
                 ;    1049 {
                 _timer0_ovf_isr:
0007e6 93aa      	ST   -Y,R26
0007e7 93ba      	ST   -Y,R27
0007e8 93ea      	ST   -Y,R30
0007e9 93fa      	ST   -Y,R31
0007ea b7ef      	IN   R30,SREG
0007eb 93ea      	ST   -Y,R30
                 ;    1050         xcount++;
0007ec 91e0 017f 	LDS  R30,_xcount
0007ee 5fef      	SUBI R30,-LOW(1)
0007ef 93e0 017f 	STS  _xcount,R30
                 ;    1051         if(xcount<=lpwm)Enki=1; // PORTC.1 = 1;
0007f1 940e 0f33 	CALL SUBOPT_0xE
0007f3 940e 1007 	CALL SUBOPT_0x34
0007f5 f014      	BRLT _0xF1
0007f6 9a94      	SBI  0x12,4
                 ;    1052         else Enki=0;  // PORTC.1 = 0;
0007f7 c001      	RJMP _0xF2
                 _0xF1:
0007f8 9894      	CBI  0x12,4
                 ;    1053         if(xcount<=rpwm)Enka=1;
                 _0xF2:
0007f9 940e 0f3d 	CALL SUBOPT_0x10
0007fb 940e 1007 	CALL SUBOPT_0x34
0007fd f014      	BRLT _0xF3
0007fe 9a95      	SBI  0x12,5
                 ;    1054         else Enka=0;
0007ff c001      	RJMP _0xF4
                 _0xF3:
000800 9895      	CBI  0x12,5
                 ;    1055         TCNT0=0xFF;
                 _0xF4:
000801 efef      	LDI  R30,LOW(255)
000802 bfe2      	OUT  0x32,R30
                 ;    1056 }
000803 91e9      	LD   R30,Y+
000804 bfef      	OUT  SREG,R30
000805 91f9      	LD   R31,Y+
000806 91e9      	LD   R30,Y+
000807 91b9      	LD   R27,Y+
000808 91a9      	LD   R26,Y+
000809 9518      	RETI
                 ;    1057 
                 ;    1058 void maju(){kaplus=1;kamin=0;kirplus=1;kirmin=0;}
                 _maju:
00080a 9a91      	SBI  0x12,1
00080b 9890      	CBI  0x12,0
00080c 9a96      	SBI  0x12,6
00080d 9893      	CBI  0x12,3
00080e 9508      	RET
                 ;    1059 
                 ;    1060 void mundur(){kaplus=0;kamin=1;kirplus=0;kirmin=1;}
                 _mundur:
00080f 9891      	CBI  0x12,1
000810 9a90      	SBI  0x12,0
000811 9896      	CBI  0x12,6
000812 9a93      	SBI  0x12,3
000813 9508      	RET
                 ;    1061 
                 ;    1062 void bkan(){kaplus=0;kamin=0;kirplus=1;kirmin=0;}
                 _bkan:
000814 9891      	CBI  0x12,1
000815 9890      	CBI  0x12,0
000816 9a96      	SBI  0x12,6
000817 9893      	CBI  0x12,3
000818 9508      	RET
                 ;    1063 
                 ;    1064 void bkir(){kaplus=1;kamin=0;kirplus=0;kirmin=0;}
                 _bkir:
000819 9a91      	SBI  0x12,1
00081a 9890      	CBI  0x12,0
00081b 9896      	CBI  0x12,6
00081c 9893      	CBI  0x12,3
00081d 9508      	RET
                 ;    1065 
                 ;    1066 void rotkan(){kaplus=0;kamin=1;kirplus=1;kirmin=0;}
                 _rotkan:
00081e 9891      	CBI  0x12,1
00081f 9a90      	SBI  0x12,0
000820 9a96      	SBI  0x12,6
000821 9893      	CBI  0x12,3
000822 9508      	RET
                 ;    1067 
                 ;    1068 void rotkir(){kaplus=1;kamin=0;kirplus=0;kirmin=1;}
                 _rotkir:
000823 9a91      	SBI  0x12,1
000824 9890      	CBI  0x12,0
000825 9896      	CBI  0x12,6
000826 9a93      	SBI  0x12,3
000827 9508      	RET
                 ;    1069 
                 ;    1070 void stop(){ kaplus=0;kamin=0;kirplus=0;kirmin=0; }
                 _stop:
000828 9891      	CBI  0x12,1
000829 9890      	CBI  0x12,0
00082a 9896      	CBI  0x12,6
00082b 9893      	CBI  0x12,3
00082c 9508      	RET
                 ;    1071 
                 ;    1072 void cek_sensor()
                 ;    1073 {
                 _cek_sensor:
                 ;    1074         int t;
                 ;    1075 
                 ;    1076         baca_sensor();
00082d 931a      	ST   -Y,R17
00082e 930a      	ST   -Y,R16
                 ;	t -> R16,R17
00082f 940e 034a 	CALL _baca_sensor
                 ;    1077         lcd_clear();
000831 940e 0e36 	CALL _lcd_clear
                 ;    1078         delay_ms(125);
000833 940e 0ee0 	CALL SUBOPT_0x0
                 ;    1079                 // wait 125ms
                 ;    1080         lcd_gotoxy(0,0);
                 ;    1081                 //0123456789abcdef
                 ;    1082         lcd_putsf(" Test:Sensor    ");
000835 efea
000836 e0f2      	__POINTW1FN _0,624
000837 940e 0eeb 	CALL SUBOPT_0x1
                 ;    1083 
                 ;    1084         for (t=0; t<30000; t++) {displaySensorBit();}
000839 e000
00083a e010      	__GETWRN 16,17,0
                 _0xF6:
00083b 3300
00083c e7e5
00083d 071e      	__CPWRN 16,17,30000
00083e f42c      	BRGE _0xF7
00083f 940e 07a0 	CALL _displaySensorBit
000841 5f0f
000842 4f1f      	__ADDWRN 16,17,1
000843 cff7      	RJMP _0xF6
                 _0xF7:
                 ;    1085 }
000844 9109      	LD   R16,Y+
000845 9119      	LD   R17,Y+
000846 9508      	RET
                 ;    1086 
                 ;    1087 void tune_batas()
                 ;    1088 {
                 _tune_batas:
                 ;    1089     lcd_clear();
000847 940e 0e36 	CALL _lcd_clear
                 ;    1090     for(;;)
                 _0xF9:
                 ;    1091     {
                 ;    1092         read_adc(0);
000849 940e 0f74 	CALL SUBOPT_0x14
                 ;    1093         if  (read_adc(0)<bb0)   {bb0=read_adc(0);}
00084b 940e 0f74 	CALL SUBOPT_0x14
00084d 2fae      	MOV  R26,R30
00084e 91e0 017e 	LDS  R30,_bb0
000850 17ae      	CP   R26,R30
000851 f420      	BRSH _0xFB
000852 940e 0f74 	CALL SUBOPT_0x14
000854 93e0 017e 	STS  _bb0,R30
                 ;    1094         if  (read_adc(0)>ba0)   {ba0=read_adc(0);}
                 _0xFB:
000856 940e 0f74 	CALL SUBOPT_0x14
000858 2fae      	MOV  R26,R30
000859 91e0 0176 	LDS  R30,_ba0
00085b 17ea      	CP   R30,R26
00085c f420      	BRSH _0xFC
00085d 940e 0f74 	CALL SUBOPT_0x14
00085f 93e0 0176 	STS  _ba0,R30
                 ;    1095 
                 ;    1096         bt0=((bb0+ba0)/2);
                 _0xFC:
000861 940e 100d 	CALL SUBOPT_0x35
                 ;    1097 
                 ;    1098         lcd_clear();
000863 940e 1019 	CALL SUBOPT_0x36
                 ;    1099         lcd_gotoxy(1,0);
                 ;    1100         lcd_putsf(" bb0  ba0  bt0");
000865 e0eb
000866 e0f3      	__POINTW1FN _0,641
000867 940e 0eeb 	CALL SUBOPT_0x1
                 ;    1101         lcd_gotoxy(1,1);
000869 e0e1      	LDI  R30,LOW(1)
00086a 940e 0fe5 	CALL SUBOPT_0x2D
                 ;    1102         sprintf(lcd," %d  %d  %d",bb0,ba0,bt0);
00086c 940e 0ff7 	CALL SUBOPT_0x31
00086e 940e 101d 	CALL SUBOPT_0x37
000870 91e0 017e 	LDS  R30,_bb0
000872 940e 0ffc 	CALL SUBOPT_0x32
000874 91e0 0176 	LDS  R30,_ba0
000876 940e 0ffc 	CALL SUBOPT_0x32
000878 940e 0f94 	CALL SUBOPT_0x1C
00087a 940e 0ffc 	CALL SUBOPT_0x32
00087c 940e 1022 	CALL SUBOPT_0x38
                 ;    1103         lcd_puts(lcd);
00087e 940e 1027 	CALL SUBOPT_0x39
                 ;    1104         delay_ms(50);
                 ;    1105 
                 ;    1106         if(!sw_ok)
000880 9998      	SBIC 0x13,0
000881 c003      	RJMP _0xFD
                 ;    1107         {
                 ;    1108             delay_ms(125);
000882 940e 0f30 	CALL SUBOPT_0xD
                 ;    1109             goto sensor1;
000884 c001      	RJMP _0xFE
                 ;    1110         }
                 ;    1111     }
                 _0xFD:
000885 cfc3      	RJMP _0xF9
                 ;    1112     sensor1:
                 _0xFE:
                 ;    1113     for(;;)
                 _0x100:
                 ;    1114     {
                 ;    1115         read_adc(1);
000886 940e 0f78 	CALL SUBOPT_0x15
                 ;    1116         if  (read_adc(1)<bb1)   {bb1=read_adc(1);}
000888 940e 0f78 	CALL SUBOPT_0x15
00088a 2fae      	MOV  R26,R30
00088b 91e0 017d 	LDS  R30,_bb1
00088d 17ae      	CP   R26,R30
00088e f420      	BRSH _0x102
00088f 940e 0f78 	CALL SUBOPT_0x15
000891 93e0 017d 	STS  _bb1,R30
                 ;    1117         if  (read_adc(1)>ba1)   {ba1=read_adc(1);}
                 _0x102:
000893 940e 0f78 	CALL SUBOPT_0x15
000895 2fae      	MOV  R26,R30
000896 91e0 0175 	LDS  R30,_ba1
000898 17ea      	CP   R30,R26
000899 f420      	BRSH _0x103
00089a 940e 0f78 	CALL SUBOPT_0x15
00089c 93e0 0175 	STS  _ba1,R30
                 ;    1118 
                 ;    1119         bt1=((bb1+ba1)/2);
                 _0x103:
00089e 940e 102c 	CALL SUBOPT_0x3A
                 ;    1120 
                 ;    1121         lcd_clear();
0008a0 940e 1019 	CALL SUBOPT_0x36
                 ;    1122         lcd_gotoxy(1,0);
                 ;    1123         lcd_putsf(" bb1  ba1  bt1");
0008a2 e2e6
0008a3 e0f3      	__POINTW1FN _0,668
0008a4 940e 0eeb 	CALL SUBOPT_0x1
                 ;    1124         lcd_gotoxy(1,1);
0008a6 e0e1      	LDI  R30,LOW(1)
0008a7 940e 0fe5 	CALL SUBOPT_0x2D
                 ;    1125         sprintf(lcd," %d  %d  %d",bb1,ba1,bt1);
0008a9 940e 0ff7 	CALL SUBOPT_0x31
0008ab 940e 101d 	CALL SUBOPT_0x37
0008ad 91e0 017d 	LDS  R30,_bb1
0008af 940e 0ffc 	CALL SUBOPT_0x32
0008b1 91e0 0175 	LDS  R30,_ba1
0008b3 940e 0ffc 	CALL SUBOPT_0x32
0008b5 940e 0f99 	CALL SUBOPT_0x1D
0008b7 940e 0ffc 	CALL SUBOPT_0x32
0008b9 940e 1022 	CALL SUBOPT_0x38
                 ;    1126         lcd_puts(lcd);
0008bb 940e 1027 	CALL SUBOPT_0x39
                 ;    1127         delay_ms(50);
                 ;    1128 
                 ;    1129         if(!sw_ok)
0008bd 9998      	SBIC 0x13,0
0008be c003      	RJMP _0x104
                 ;    1130         {
                 ;    1131             delay_ms(150);
0008bf 940e 0fcd 	CALL SUBOPT_0x27
                 ;    1132             goto sensor2;
0008c1 c001      	RJMP _0x105
                 ;    1133         }
                 ;    1134     }
                 _0x104:
0008c2 cfc3      	RJMP _0x100
                 ;    1135     sensor2:
                 _0x105:
                 ;    1136     for(;;)
                 _0x107:
                 ;    1137     {
                 ;    1138         read_adc(2);
0008c3 940e 0f7c 	CALL SUBOPT_0x16
                 ;    1139         if  (read_adc(2)<bb2)   {bb2=read_adc(2);}
0008c5 940e 0f7c 	CALL SUBOPT_0x16
0008c7 2fae      	MOV  R26,R30
0008c8 91e0 017c 	LDS  R30,_bb2
0008ca 17ae      	CP   R26,R30
0008cb f420      	BRSH _0x109
0008cc 940e 0f7c 	CALL SUBOPT_0x16
0008ce 93e0 017c 	STS  _bb2,R30
                 ;    1140         if  (read_adc(2)>ba2)   {ba2=read_adc(2);}
                 _0x109:
0008d0 940e 0f7c 	CALL SUBOPT_0x16
0008d2 2fae      	MOV  R26,R30
0008d3 91e0 0174 	LDS  R30,_ba2
0008d5 17ea      	CP   R30,R26
0008d6 f420      	BRSH _0x10A
0008d7 940e 0f7c 	CALL SUBOPT_0x16
0008d9 93e0 0174 	STS  _ba2,R30
                 ;    1141 
                 ;    1142         bt2=((bb2+ba2)/2);
                 _0x10A:
0008db 940e 1038 	CALL SUBOPT_0x3B
                 ;    1143 
                 ;    1144         lcd_clear();
0008dd 940e 1019 	CALL SUBOPT_0x36
                 ;    1145         lcd_gotoxy(1,0);
                 ;    1146         lcd_putsf(" bb2  ba2  bt2");
0008df e3e5
0008e0 e0f3      	__POINTW1FN _0,683
0008e1 940e 0eeb 	CALL SUBOPT_0x1
                 ;    1147         lcd_gotoxy(1,1);
0008e3 e0e1      	LDI  R30,LOW(1)
0008e4 940e 0fe5 	CALL SUBOPT_0x2D
                 ;    1148         sprintf(lcd," %d  %d  %d",bb2,ba2,bt2);
0008e6 940e 0ff7 	CALL SUBOPT_0x31
0008e8 940e 101d 	CALL SUBOPT_0x37
0008ea 91e0 017c 	LDS  R30,_bb2
0008ec 940e 0ffc 	CALL SUBOPT_0x32
0008ee 91e0 0174 	LDS  R30,_ba2
0008f0 940e 0ffc 	CALL SUBOPT_0x32
0008f2 940e 0f9e 	CALL SUBOPT_0x1E
0008f4 940e 0ffc 	CALL SUBOPT_0x32
0008f6 940e 1022 	CALL SUBOPT_0x38
                 ;    1149         lcd_puts(lcd);
0008f8 940e 1044 	CALL SUBOPT_0x3C
                 ;    1150         delay_ms(10);
                 ;    1151 
                 ;    1152         if(!sw_ok)
0008fa 9998      	SBIC 0x13,0
0008fb c003      	RJMP _0x10B
                 ;    1153         {
                 ;    1154             delay_ms(150);
0008fc 940e 0fcd 	CALL SUBOPT_0x27
                 ;    1155             goto sensor3;
0008fe c001      	RJMP _0x10C
                 ;    1156         }
                 ;    1157     }
                 _0x10B:
0008ff cfc3      	RJMP _0x107
                 ;    1158     sensor3:
                 _0x10C:
                 ;    1159     for(;;)
                 _0x10E:
                 ;    1160     {
                 ;    1161         read_adc(3);
000900 940e 0f80 	CALL SUBOPT_0x17
                 ;    1162         if  (read_adc(3)<bb3)   {bb3=read_adc(3);}
000902 940e 0f80 	CALL SUBOPT_0x17
000904 2fae      	MOV  R26,R30
000905 91e0 017b 	LDS  R30,_bb3
000907 17ae      	CP   R26,R30
000908 f420      	BRSH _0x110
000909 940e 0f80 	CALL SUBOPT_0x17
00090b 93e0 017b 	STS  _bb3,R30
                 ;    1163         if  (read_adc(3)>ba3)   {ba3=read_adc(3);}
                 _0x110:
00090d 940e 0f80 	CALL SUBOPT_0x17
00090f 2fae      	MOV  R26,R30
000910 91e0 0173 	LDS  R30,_ba3
000912 17ea      	CP   R30,R26
000913 f420      	BRSH _0x111
000914 940e 0f80 	CALL SUBOPT_0x17
000916 93e0 0173 	STS  _ba3,R30
                 ;    1164 
                 ;    1165         bt3=((bb3+ba3)/2);
                 _0x111:
000918 940e 1049 	CALL SUBOPT_0x3D
                 ;    1166 
                 ;    1167         lcd_clear();
00091a 940e 1019 	CALL SUBOPT_0x36
                 ;    1168         lcd_gotoxy(1,0);
                 ;    1169         lcd_putsf(" bb3  ba3  bt3");
00091c e4e4
00091d e0f3      	__POINTW1FN _0,698
00091e 940e 0eeb 	CALL SUBOPT_0x1
                 ;    1170         lcd_gotoxy(1,1);
000920 e0e1      	LDI  R30,LOW(1)
000921 940e 0fe5 	CALL SUBOPT_0x2D
                 ;    1171         sprintf(lcd," %d  %d  %d",bb3,ba3,bt3);
000923 940e 0ff7 	CALL SUBOPT_0x31
000925 940e 101d 	CALL SUBOPT_0x37
000927 91e0 017b 	LDS  R30,_bb3
000929 940e 0ffc 	CALL SUBOPT_0x32
00092b 91e0 0173 	LDS  R30,_ba3
00092d 940e 0ffc 	CALL SUBOPT_0x32
00092f 940e 0fa3 	CALL SUBOPT_0x1F
000931 940e 0ffc 	CALL SUBOPT_0x32
000933 940e 1022 	CALL SUBOPT_0x38
                 ;    1172         lcd_puts(lcd);
000935 940e 1044 	CALL SUBOPT_0x3C
                 ;    1173         delay_ms(10);
                 ;    1174 
                 ;    1175         if(!sw_ok)
000937 9998      	SBIC 0x13,0
000938 c003      	RJMP _0x112
                 ;    1176         {
                 ;    1177             delay_ms(150);
000939 940e 0fcd 	CALL SUBOPT_0x27
                 ;    1178             goto sensor4;
00093b c001      	RJMP _0x113
                 ;    1179         }
                 ;    1180     }
                 _0x112:
00093c cfc3      	RJMP _0x10E
                 ;    1181     sensor4:
                 _0x113:
                 ;    1182     for(;;)
                 _0x115:
                 ;    1183     {
                 ;    1184         read_adc(4);
00093d 940e 0f84 	CALL SUBOPT_0x18
                 ;    1185         if  (read_adc(4)<bb4)   {bb4=read_adc(4);}
00093f 940e 0f84 	CALL SUBOPT_0x18
000941 2fae      	MOV  R26,R30
000942 91e0 017a 	LDS  R30,_bb4
000944 17ae      	CP   R26,R30
000945 f420      	BRSH _0x117
000946 940e 0f84 	CALL SUBOPT_0x18
000948 93e0 017a 	STS  _bb4,R30
                 ;    1186         if  (read_adc(4)>ba4)   {ba4=read_adc(4);}
                 _0x117:
00094a 940e 0f84 	CALL SUBOPT_0x18
00094c 2fae      	MOV  R26,R30
00094d 91e0 0172 	LDS  R30,_ba4
00094f 17ea      	CP   R30,R26
000950 f420      	BRSH _0x118
000951 940e 0f84 	CALL SUBOPT_0x18
000953 93e0 0172 	STS  _ba4,R30
                 ;    1187 
                 ;    1188         bt4=((bb4+ba4)/2);
                 _0x118:
000955 940e 1055 	CALL SUBOPT_0x3E
                 ;    1189 
                 ;    1190         lcd_clear();
000957 940e 1019 	CALL SUBOPT_0x36
                 ;    1191         lcd_gotoxy(1,0);
                 ;    1192         lcd_putsf(" bb4  ba4  bt4");
000959 e5e3
00095a e0f3      	__POINTW1FN _0,713
00095b 940e 0eeb 	CALL SUBOPT_0x1
                 ;    1193         lcd_gotoxy(1,1);
00095d e0e1      	LDI  R30,LOW(1)
00095e 940e 0fe5 	CALL SUBOPT_0x2D
                 ;    1194         sprintf(lcd," %d  %d  %d",bb4,ba4,bt4);
000960 940e 0ff7 	CALL SUBOPT_0x31
000962 940e 101d 	CALL SUBOPT_0x37
000964 91e0 017a 	LDS  R30,_bb4
000966 940e 0ffc 	CALL SUBOPT_0x32
000968 91e0 0172 	LDS  R30,_ba4
00096a 940e 0ffc 	CALL SUBOPT_0x32
00096c 940e 0fa8 	CALL SUBOPT_0x20
00096e 940e 0ffc 	CALL SUBOPT_0x32
000970 940e 1022 	CALL SUBOPT_0x38
                 ;    1195         lcd_puts(lcd);
000972 940e 1044 	CALL SUBOPT_0x3C
                 ;    1196         delay_ms(10);
                 ;    1197 
                 ;    1198         if(!sw_ok)
000974 9998      	SBIC 0x13,0
000975 c003      	RJMP _0x119
                 ;    1199         {
                 ;    1200             delay_ms(150);
000976 940e 0fcd 	CALL SUBOPT_0x27
                 ;    1201             goto sensor5;
000978 c001      	RJMP _0x11A
                 ;    1202         }
                 ;    1203     }
                 _0x119:
000979 cfc3      	RJMP _0x115
                 ;    1204     sensor5:
                 _0x11A:
                 ;    1205     for(;;)
                 _0x11C:
                 ;    1206     {
                 ;    1207         read_adc(5);
00097a 940e 0f88 	CALL SUBOPT_0x19
                 ;    1208         if  (read_adc(5)<bb5)   {bb5=read_adc(5);}
00097c 940e 0f88 	CALL SUBOPT_0x19
00097e 2fae      	MOV  R26,R30
00097f 91e0 0179 	LDS  R30,_bb5
000981 17ae      	CP   R26,R30
000982 f420      	BRSH _0x11E
000983 940e 0f88 	CALL SUBOPT_0x19
000985 93e0 0179 	STS  _bb5,R30
                 ;    1209         if  (read_adc(5)>ba5)   {ba5=read_adc(5);}
                 _0x11E:
000987 940e 0f88 	CALL SUBOPT_0x19
000989 2fae      	MOV  R26,R30
00098a 91e0 0171 	LDS  R30,_ba5
00098c 17ea      	CP   R30,R26
00098d f420      	BRSH _0x11F
00098e 940e 0f88 	CALL SUBOPT_0x19
000990 93e0 0171 	STS  _ba5,R30
                 ;    1210 
                 ;    1211         bt5=((bb5+ba5)/2);
                 _0x11F:
000992 940e 1061 	CALL SUBOPT_0x3F
                 ;    1212 
                 ;    1213         lcd_clear();
000994 940e 1019 	CALL SUBOPT_0x36
                 ;    1214         lcd_gotoxy(1,0);
                 ;    1215         lcd_putsf(" bb5  ba5  bt5");
000996 e6e2
000997 e0f3      	__POINTW1FN _0,728
000998 940e 0eeb 	CALL SUBOPT_0x1
                 ;    1216         lcd_gotoxy(1,1);
00099a e0e1      	LDI  R30,LOW(1)
00099b 940e 0fe5 	CALL SUBOPT_0x2D
                 ;    1217         sprintf(lcd," %d  %d  %d",bb5,ba5,bt5);
00099d 940e 0ff7 	CALL SUBOPT_0x31
00099f 940e 101d 	CALL SUBOPT_0x37
0009a1 91e0 0179 	LDS  R30,_bb5
0009a3 940e 0ffc 	CALL SUBOPT_0x32
0009a5 91e0 0171 	LDS  R30,_ba5
0009a7 940e 0ffc 	CALL SUBOPT_0x32
0009a9 940e 0fad 	CALL SUBOPT_0x21
0009ab 940e 0ffc 	CALL SUBOPT_0x32
0009ad 940e 1022 	CALL SUBOPT_0x38
                 ;    1218         lcd_puts(lcd);
0009af 940e 1044 	CALL SUBOPT_0x3C
                 ;    1219         delay_ms(10);
                 ;    1220 
                 ;    1221         if(!sw_ok)
0009b1 9998      	SBIC 0x13,0
0009b2 c003      	RJMP _0x120
                 ;    1222         {
                 ;    1223             delay_ms(150);
0009b3 940e 0fcd 	CALL SUBOPT_0x27
                 ;    1224             goto sensor6;
0009b5 c001      	RJMP _0x121
                 ;    1225         }
                 ;    1226     }
                 _0x120:
0009b6 cfc3      	RJMP _0x11C
                 ;    1227     sensor6:
                 _0x121:
                 ;    1228     for(;;)
                 _0x123:
                 ;    1229     {
                 ;    1230         read_adc(06);
0009b7 940e 0f8c 	CALL SUBOPT_0x1A
                 ;    1231         if  (read_adc(6)<bb6)   {bb6=read_adc(6);}
0009b9 940e 0f8c 	CALL SUBOPT_0x1A
0009bb 2fae      	MOV  R26,R30
0009bc 91e0 0178 	LDS  R30,_bb6
0009be 17ae      	CP   R26,R30
0009bf f420      	BRSH _0x125
0009c0 940e 0f8c 	CALL SUBOPT_0x1A
0009c2 93e0 0178 	STS  _bb6,R30
                 ;    1232         if  (read_adc(6)>ba6)   {ba6=read_adc(6);}
                 _0x125:
0009c4 940e 0f8c 	CALL SUBOPT_0x1A
0009c6 2fae      	MOV  R26,R30
0009c7 91e0 0170 	LDS  R30,_ba6
0009c9 17ea      	CP   R30,R26
0009ca f420      	BRSH _0x126
0009cb 940e 0f8c 	CALL SUBOPT_0x1A
0009cd 93e0 0170 	STS  _ba6,R30
                 ;    1233 
                 ;    1234         bt6=((bb6+ba6)/2);
                 _0x126:
0009cf 940e 106d 	CALL SUBOPT_0x40
                 ;    1235 
                 ;    1236         lcd_clear();
0009d1 940e 1019 	CALL SUBOPT_0x36
                 ;    1237         lcd_gotoxy(1,0);
                 ;    1238         lcd_putsf(" bb6  ba6  bt6");
0009d3 e7e1
0009d4 e0f3      	__POINTW1FN _0,743
0009d5 940e 0eeb 	CALL SUBOPT_0x1
                 ;    1239         lcd_gotoxy(1,1);
0009d7 e0e1      	LDI  R30,LOW(1)
0009d8 940e 0fe5 	CALL SUBOPT_0x2D
                 ;    1240         sprintf(lcd," %d  %d  %d",bb6,ba6,bt6);
0009da 940e 0ff7 	CALL SUBOPT_0x31
0009dc 940e 101d 	CALL SUBOPT_0x37
0009de 91e0 0178 	LDS  R30,_bb6
0009e0 940e 0ffc 	CALL SUBOPT_0x32
0009e2 91e0 0170 	LDS  R30,_ba6
0009e4 940e 0ffc 	CALL SUBOPT_0x32
0009e6 940e 0fb2 	CALL SUBOPT_0x22
0009e8 940e 0ffc 	CALL SUBOPT_0x32
0009ea 940e 1022 	CALL SUBOPT_0x38
                 ;    1241         lcd_puts(lcd);
0009ec 940e 1044 	CALL SUBOPT_0x3C
                 ;    1242         delay_ms(10);
                 ;    1243 
                 ;    1244         if(!sw_ok)
0009ee 9998      	SBIC 0x13,0
0009ef c003      	RJMP _0x127
                 ;    1245         {
                 ;    1246             delay_ms(150);
0009f0 940e 0fcd 	CALL SUBOPT_0x27
                 ;    1247             goto sensor7;
0009f2 c001      	RJMP _0x128
                 ;    1248         }
                 ;    1249     }
                 _0x127:
0009f3 cfc3      	RJMP _0x123
                 ;    1250     sensor7:
                 _0x128:
                 ;    1251     for(;;)
                 _0x12A:
                 ;    1252     {
                 ;    1253         read_adc(7);
0009f4 940e 0f90 	CALL SUBOPT_0x1B
                 ;    1254         if  (read_adc(7)<bb7)   {bb7=read_adc(7);}
0009f6 940e 0f90 	CALL SUBOPT_0x1B
0009f8 2fae      	MOV  R26,R30
0009f9 91e0 0177 	LDS  R30,_bb7
0009fb 17ae      	CP   R26,R30
0009fc f420      	BRSH _0x12C
0009fd 940e 0f90 	CALL SUBOPT_0x1B
0009ff 93e0 0177 	STS  _bb7,R30
                 ;    1255         if  (read_adc(7)>ba7)   {ba7=read_adc(7);}
                 _0x12C:
000a01 940e 0f90 	CALL SUBOPT_0x1B
000a03 16ce      	CP   R12,R30
000a04 f418      	BRSH _0x12D
000a05 940e 0f90 	CALL SUBOPT_0x1B
000a07 2ece      	MOV  R12,R30
                 ;    1256 
                 ;    1257         bt7=((bb7+ba7)/2);
                 _0x12D:
000a08 940e 1079 	CALL SUBOPT_0x41
                 ;    1258 
                 ;    1259         lcd_clear();
                 ;    1260         lcd_gotoxy(1,0);
                 ;    1261         lcd_putsf(" bb7  ba7  bt7");
000a0a e8e0
000a0b e0f3      	__POINTW1FN _0,758
000a0c 940e 0eeb 	CALL SUBOPT_0x1
                 ;    1262         lcd_gotoxy(1,1);
000a0e e0e1      	LDI  R30,LOW(1)
000a0f 940e 0fe5 	CALL SUBOPT_0x2D
                 ;    1263         sprintf(lcd," %d  %d  %d",bb7,ba7,bt7);
000a11 940e 0ff7 	CALL SUBOPT_0x31
000a13 940e 101d 	CALL SUBOPT_0x37
000a15 91e0 0177 	LDS  R30,_bb7
000a17 940e 0ffc 	CALL SUBOPT_0x32
000a19 2dec      	MOV  R30,R12
000a1a 940e 0ffc 	CALL SUBOPT_0x32
000a1c 940e 0fb7 	CALL SUBOPT_0x23
000a1e 940e 0ffc 	CALL SUBOPT_0x32
000a20 940e 1022 	CALL SUBOPT_0x38
                 ;    1264         lcd_puts(lcd);
000a22 940e 1044 	CALL SUBOPT_0x3C
                 ;    1265         delay_ms(10);
                 ;    1266 
                 ;    1267         if(!sw_ok)
000a24 9998      	SBIC 0x13,0
000a25 c003      	RJMP _0x12E
                 ;    1268         {
                 ;    1269             delay_ms(150);
000a26 940e 0fcd 	CALL SUBOPT_0x27
                 ;    1270             goto selesai;
000a28 c001      	RJMP _0x12F
                 ;    1271         }
                 ;    1272     }
                 _0x12E:
000a29 cfca      	RJMP _0x12A
                 ;    1273     selesai:
                 _0x12F:
                 ;    1274     lcd_clear();
000a2a 940e 0e36 	CALL _lcd_clear
                 ;    1275 }
000a2c 9508      	RET
                 ;    1276 
                 ;    1277 void auto_scan()
                 ;    1278 {
                 _auto_scan:
                 ;    1279     for(;;)
                 _0x131:
                 ;    1280     {
                 ;    1281     read_adc(0);
000a2d 940e 0f74 	CALL SUBOPT_0x14
                 ;    1282         if  (read_adc(0)<bb0)   {bb0=read_adc(0);}
000a2f 940e 0f74 	CALL SUBOPT_0x14
000a31 2fae      	MOV  R26,R30
000a32 91e0 017e 	LDS  R30,_bb0
000a34 17ae      	CP   R26,R30
000a35 f420      	BRSH _0x133
000a36 940e 0f74 	CALL SUBOPT_0x14
000a38 93e0 017e 	STS  _bb0,R30
                 ;    1283         if  (read_adc(0)>ba0)   {ba0=read_adc(0);}
                 _0x133:
000a3a 940e 0f74 	CALL SUBOPT_0x14
000a3c 2fae      	MOV  R26,R30
000a3d 91e0 0176 	LDS  R30,_ba0
000a3f 17ea      	CP   R30,R26
000a40 f420      	BRSH _0x134
000a41 940e 0f74 	CALL SUBOPT_0x14
000a43 93e0 0176 	STS  _ba0,R30
                 ;    1284 
                 ;    1285         bt0=((bb0+ba0)/2);
                 _0x134:
000a45 940e 100d 	CALL SUBOPT_0x35
                 ;    1286 
                 ;    1287     read_adc(1);
000a47 940e 0f78 	CALL SUBOPT_0x15
                 ;    1288         if  (read_adc(1)<bb1)   {bb1=read_adc(1);}
000a49 940e 0f78 	CALL SUBOPT_0x15
000a4b 2fae      	MOV  R26,R30
000a4c 91e0 017d 	LDS  R30,_bb1
000a4e 17ae      	CP   R26,R30
000a4f f420      	BRSH _0x135
000a50 940e 0f78 	CALL SUBOPT_0x15
000a52 93e0 017d 	STS  _bb1,R30
                 ;    1289         if  (read_adc(1)>ba1)   {ba1=read_adc(1);}
                 _0x135:
000a54 940e 0f78 	CALL SUBOPT_0x15
000a56 2fae      	MOV  R26,R30
000a57 91e0 0175 	LDS  R30,_ba1
000a59 17ea      	CP   R30,R26
000a5a f420      	BRSH _0x136
000a5b 940e 0f78 	CALL SUBOPT_0x15
000a5d 93e0 0175 	STS  _ba1,R30
                 ;    1290 
                 ;    1291         bt1=((bb1+ba1)/2);
                 _0x136:
000a5f 940e 102c 	CALL SUBOPT_0x3A
                 ;    1292 
                 ;    1293     read_adc(2);
000a61 940e 0f7c 	CALL SUBOPT_0x16
                 ;    1294         if  (read_adc(2)<bb2)   {bb2=read_adc(2);}
000a63 940e 0f7c 	CALL SUBOPT_0x16
000a65 2fae      	MOV  R26,R30
000a66 91e0 017c 	LDS  R30,_bb2
000a68 17ae      	CP   R26,R30
000a69 f420      	BRSH _0x137
000a6a 940e 0f7c 	CALL SUBOPT_0x16
000a6c 93e0 017c 	STS  _bb2,R30
                 ;    1295         if  (read_adc(2)>ba2)   {ba2=read_adc(2);}
                 _0x137:
000a6e 940e 0f7c 	CALL SUBOPT_0x16
000a70 2fae      	MOV  R26,R30
000a71 91e0 0174 	LDS  R30,_ba2
000a73 17ea      	CP   R30,R26
000a74 f420      	BRSH _0x138
000a75 940e 0f7c 	CALL SUBOPT_0x16
000a77 93e0 0174 	STS  _ba2,R30
                 ;    1296 
                 ;    1297         bt2=((bb2+ba2)/2);
                 _0x138:
000a79 940e 1038 	CALL SUBOPT_0x3B
                 ;    1298 
                 ;    1299     read_adc(3);
000a7b 940e 0f80 	CALL SUBOPT_0x17
                 ;    1300         if  (read_adc(3)<bb3)   {bb3=read_adc(3);}
000a7d 940e 0f80 	CALL SUBOPT_0x17
000a7f 2fae      	MOV  R26,R30
000a80 91e0 017b 	LDS  R30,_bb3
000a82 17ae      	CP   R26,R30
000a83 f420      	BRSH _0x139
000a84 940e 0f80 	CALL SUBOPT_0x17
000a86 93e0 017b 	STS  _bb3,R30
                 ;    1301         if  (read_adc(3)>ba3)   {ba3=read_adc(3);}
                 _0x139:
000a88 940e 0f80 	CALL SUBOPT_0x17
000a8a 2fae      	MOV  R26,R30
000a8b 91e0 0173 	LDS  R30,_ba3
000a8d 17ea      	CP   R30,R26
000a8e f420      	BRSH _0x13A
000a8f 940e 0f80 	CALL SUBOPT_0x17
000a91 93e0 0173 	STS  _ba3,R30
                 ;    1302 
                 ;    1303         bt3=((bb3+ba3)/2);
                 _0x13A:
000a93 940e 1049 	CALL SUBOPT_0x3D
                 ;    1304 
                 ;    1305     read_adc(4);
000a95 940e 0f84 	CALL SUBOPT_0x18
                 ;    1306         if  (read_adc(4)<bb4)   {bb4=read_adc(4);}
000a97 940e 0f84 	CALL SUBOPT_0x18
000a99 2fae      	MOV  R26,R30
000a9a 91e0 017a 	LDS  R30,_bb4
000a9c 17ae      	CP   R26,R30
000a9d f420      	BRSH _0x13B
000a9e 940e 0f84 	CALL SUBOPT_0x18
000aa0 93e0 017a 	STS  _bb4,R30
                 ;    1307         if  (read_adc(4)>ba4)   {ba4=read_adc(4);}
                 _0x13B:
000aa2 940e 0f84 	CALL SUBOPT_0x18
000aa4 2fae      	MOV  R26,R30
000aa5 91e0 0172 	LDS  R30,_ba4
000aa7 17ea      	CP   R30,R26
000aa8 f420      	BRSH _0x13C
000aa9 940e 0f84 	CALL SUBOPT_0x18
000aab 93e0 0172 	STS  _ba4,R30
                 ;    1308 
                 ;    1309         bt4=((bb4+ba4)/2);
                 _0x13C:
000aad 940e 1055 	CALL SUBOPT_0x3E
                 ;    1310 
                 ;    1311     read_adc(5);
000aaf 940e 0f88 	CALL SUBOPT_0x19
                 ;    1312         if  (read_adc(5)<bb5)   {bb5=read_adc(5);}
000ab1 940e 0f88 	CALL SUBOPT_0x19
000ab3 2fae      	MOV  R26,R30
000ab4 91e0 0179 	LDS  R30,_bb5
000ab6 17ae      	CP   R26,R30
000ab7 f420      	BRSH _0x13D
000ab8 940e 0f88 	CALL SUBOPT_0x19
000aba 93e0 0179 	STS  _bb5,R30
                 ;    1313         if  (read_adc(5)>ba5)   {ba5=read_adc(5);}
                 _0x13D:
000abc 940e 0f88 	CALL SUBOPT_0x19
000abe 2fae      	MOV  R26,R30
000abf 91e0 0171 	LDS  R30,_ba5
000ac1 17ea      	CP   R30,R26
000ac2 f420      	BRSH _0x13E
000ac3 940e 0f88 	CALL SUBOPT_0x19
000ac5 93e0 0171 	STS  _ba5,R30
                 ;    1314 
                 ;    1315         bt5=((bb5+ba5)/2);
                 _0x13E:
000ac7 940e 1061 	CALL SUBOPT_0x3F
                 ;    1316 
                 ;    1317     read_adc(6);
000ac9 940e 0f8c 	CALL SUBOPT_0x1A
                 ;    1318         if  (read_adc(6)<bb6)   {bb6=read_adc(6);}
000acb 940e 0f8c 	CALL SUBOPT_0x1A
000acd 2fae      	MOV  R26,R30
000ace 91e0 0178 	LDS  R30,_bb6
000ad0 17ae      	CP   R26,R30
000ad1 f420      	BRSH _0x13F
000ad2 940e 0f8c 	CALL SUBOPT_0x1A
000ad4 93e0 0178 	STS  _bb6,R30
                 ;    1319         if  (read_adc(6)>ba6)   {ba6=read_adc(6);}
                 _0x13F:
000ad6 940e 0f8c 	CALL SUBOPT_0x1A
000ad8 2fae      	MOV  R26,R30
000ad9 91e0 0170 	LDS  R30,_ba6
000adb 17ea      	CP   R30,R26
000adc f420      	BRSH _0x140
000add 940e 0f8c 	CALL SUBOPT_0x1A
000adf 93e0 0170 	STS  _ba6,R30
                 ;    1320 
                 ;    1321         bt6=((bb6+ba6)/2);
                 _0x140:
000ae1 940e 106d 	CALL SUBOPT_0x40
                 ;    1322 
                 ;    1323     read_adc(7);
000ae3 940e 0f90 	CALL SUBOPT_0x1B
                 ;    1324         if  (read_adc(7)<bb7)   {bb7=read_adc(7);}
000ae5 940e 0f90 	CALL SUBOPT_0x1B
000ae7 2fae      	MOV  R26,R30
000ae8 91e0 0177 	LDS  R30,_bb7
000aea 17ae      	CP   R26,R30
000aeb f420      	BRSH _0x141
000aec 940e 0f90 	CALL SUBOPT_0x1B
000aee 93e0 0177 	STS  _bb7,R30
                 ;    1325         if  (read_adc(7)>ba7)   {ba7=read_adc(7);}
                 _0x141:
000af0 940e 0f90 	CALL SUBOPT_0x1B
000af2 16ce      	CP   R12,R30
000af3 f418      	BRSH _0x142
000af4 940e 0f90 	CALL SUBOPT_0x1B
000af6 2ece      	MOV  R12,R30
                 ;    1326 
                 ;    1327         bt7=((bb7+ba7)/2);
                 _0x142:
000af7 940e 1079 	CALL SUBOPT_0x41
                 ;    1328 
                 ;    1329         lcd_clear();
                 ;    1330         lcd_gotoxy(1,0);
                 ;    1331         sprintf(lcd,"%d %d %d %d %d %d %d %d",bt7,bt6,bt5,bt4,bt3,bt2,bt1,bt0);
000af9 940e 0ff7 	CALL SUBOPT_0x31
000afb e8ef
000afc e0f3      	__POINTW1FN _0,773
000afd 93fa      	ST   -Y,R31
000afe 93ea      	ST   -Y,R30
000aff 940e 0fb7 	CALL SUBOPT_0x23
000b01 940e 0ffc 	CALL SUBOPT_0x32
000b03 940e 0fb2 	CALL SUBOPT_0x22
000b05 940e 0ffc 	CALL SUBOPT_0x32
000b07 940e 0fad 	CALL SUBOPT_0x21
000b09 940e 0ffc 	CALL SUBOPT_0x32
000b0b 940e 0fa8 	CALL SUBOPT_0x20
000b0d 940e 0ffc 	CALL SUBOPT_0x32
000b0f 940e 0fa3 	CALL SUBOPT_0x1F
000b11 940e 0ffc 	CALL SUBOPT_0x32
000b13 940e 0f9e 	CALL SUBOPT_0x1E
000b15 940e 0ffc 	CALL SUBOPT_0x32
000b17 940e 0f99 	CALL SUBOPT_0x1D
000b19 940e 0ffc 	CALL SUBOPT_0x32
000b1b 940e 0f94 	CALL SUBOPT_0x1C
000b1d 940e 0ffc 	CALL SUBOPT_0x32
000b1f e280      	LDI  R24,32
000b20 940e 0dad 	CALL _sprintf
000b22 96a4      	ADIW R28,36
                 ;    1332         lcd_puts(lcd);
000b23 940e 0ff7 	CALL SUBOPT_0x31
000b25 940e 0e76 	CALL _lcd_puts
                 ;    1333         delay_ms(120);
000b27 e7e8      	LDI  R30,LOW(120)
000b28 e0f0      	LDI  R31,HIGH(120)
000b29 940e 0efd 	CALL SUBOPT_0x4
                 ;    1334 
                 ;    1335         if (!sw_ok){showMenu();}
000b2b 9998      	SBIC 0x13,0
000b2c c002      	RJMP _0x143
000b2d 940e 04df 	CALL _showMenu
                 ;    1336     }
                 _0x143:
000b2f cefd      	RJMP _0x131
                 ;    1337 }
                 ;    1338 
                 ;    1339 int x;
                 
                 	.DSEG
                 _x:
0001c0           	.BYTE 0x2
                 ;    1340 void ikuti_garis()
                 ;    1341 {
                 
                 	.CSEG
                 _ikuti_garis:
                 ;    1342     baca_sensor();
000b30 940e 034a 	CALL _baca_sensor
                 ;    1343 
                 ;    1344     // MAXSpeed-Kp*
                 ;    1345 
                 ;    1346     if(sensor==0b00000001){bkan();      error = 15;     x=1;}  //kanan
000b32 e0e1      	LDI  R30,LOW(1)
000b33 15e5      	CP   R30,R5
000b34 f431      	BRNE _0x144
000b35 940e 0814 	CALL _bkan
000b37 e0ef      	LDI  R30,LOW(15)
000b38 e0f0      	LDI  R31,HIGH(15)
000b39 940e 1084 	CALL SUBOPT_0x42
                 ;    1347     if(sensor==0b00000011){bkan();      error = 10;     x=1;}
                 _0x144:
000b3b e0e3      	LDI  R30,LOW(3)
000b3c 15e5      	CP   R30,R5
000b3d f431      	BRNE _0x145
000b3e 940e 0814 	CALL _bkan
000b40 e0ea      	LDI  R30,LOW(10)
000b41 e0f0      	LDI  R31,HIGH(10)
000b42 940e 1084 	CALL SUBOPT_0x42
                 ;    1348     if(sensor==0b00000010){maju();      error = 8;      x=1;}
                 _0x145:
000b44 e0e2      	LDI  R30,LOW(2)
000b45 15e5      	CP   R30,R5
000b46 f431      	BRNE _0x146
000b47 940e 080a 	CALL _maju
000b49 e0e8      	LDI  R30,LOW(8)
000b4a e0f0      	LDI  R31,HIGH(8)
000b4b 940e 1084 	CALL SUBOPT_0x42
                 ;    1349     if(sensor==0b00000110){maju();      error = 5;      x=1;}
                 _0x146:
000b4d e0e6      	LDI  R30,LOW(6)
000b4e 15e5      	CP   R30,R5
000b4f f431      	BRNE _0x147
000b50 940e 080a 	CALL _maju
000b52 e0e5      	LDI  R30,LOW(5)
000b53 e0f0      	LDI  R31,HIGH(5)
000b54 940e 1084 	CALL SUBOPT_0x42
                 ;    1350     if(sensor==0b00000100){maju();      error = 3;      x=1;}
                 _0x147:
000b56 e0e4      	LDI  R30,LOW(4)
000b57 15e5      	CP   R30,R5
000b58 f431      	BRNE _0x148
000b59 940e 080a 	CALL _maju
000b5b e0e3      	LDI  R30,LOW(3)
000b5c e0f0      	LDI  R31,HIGH(3)
000b5d 940e 1084 	CALL SUBOPT_0x42
                 ;    1351     if(sensor==0b00001100){maju();      error = 2;      x=1;}
                 _0x148:
000b5f e0ec      	LDI  R30,LOW(12)
000b60 15e5      	CP   R30,R5
000b61 f431      	BRNE _0x149
000b62 940e 080a 	CALL _maju
000b64 e0e2      	LDI  R30,LOW(2)
000b65 e0f0      	LDI  R31,HIGH(2)
000b66 940e 1084 	CALL SUBOPT_0x42
                 ;    1352     if(sensor==0b00001000){maju();      error = 1;      x=1;}
                 _0x149:
000b68 e0e8      	LDI  R30,LOW(8)
000b69 15e5      	CP   R30,R5
000b6a f431      	BRNE _0x14A
000b6b 940e 080a 	CALL _maju
000b6d e0e1      	LDI  R30,LOW(1)
000b6e e0f0      	LDI  R31,HIGH(1)
000b6f 940e 1084 	CALL SUBOPT_0x42
                 ;    1353 
                 ;    1354     //if(sensor==0b00011000){maju();rpwm=75;lpwm=75;}  //tengah
                 ;    1355 
                 ;    1356     if(sensor==0b00010000){maju();      error = -1;     x=0;}
                 _0x14A:
000b71 e1e0      	LDI  R30,LOW(16)
000b72 15e5      	CP   R30,R5
000b73 f431      	BRNE _0x14B
000b74 940e 080a 	CALL _maju
000b76 efef      	LDI  R30,LOW(65535)
000b77 efff      	LDI  R31,HIGH(65535)
000b78 940e 108f 	CALL SUBOPT_0x43
                 ;    1357     if(sensor==0b00110000){maju();      error = -2;     x=0;}
                 _0x14B:
000b7a e3e0      	LDI  R30,LOW(48)
000b7b 15e5      	CP   R30,R5
000b7c f431      	BRNE _0x14C
000b7d 940e 080a 	CALL _maju
000b7f efee      	LDI  R30,LOW(65534)
000b80 efff      	LDI  R31,HIGH(65534)
000b81 940e 108f 	CALL SUBOPT_0x43
                 ;    1358     if(sensor==0b00100000){maju();      error = -3;     x=0;}
                 _0x14C:
000b83 e2e0      	LDI  R30,LOW(32)
000b84 15e5      	CP   R30,R5
000b85 f431      	BRNE _0x14D
000b86 940e 080a 	CALL _maju
000b88 efed      	LDI  R30,LOW(65533)
000b89 efff      	LDI  R31,HIGH(65533)
000b8a 940e 108f 	CALL SUBOPT_0x43
                 ;    1359     if(sensor==0b01100000){maju();      error = -5;     x=0;}
                 _0x14D:
000b8c e6e0      	LDI  R30,LOW(96)
000b8d 15e5      	CP   R30,R5
000b8e f431      	BRNE _0x14E
000b8f 940e 080a 	CALL _maju
000b91 efeb      	LDI  R30,LOW(65531)
000b92 efff      	LDI  R31,HIGH(65531)
000b93 940e 108f 	CALL SUBOPT_0x43
                 ;    1360     if(sensor==0b01000000){maju();      error = -8;     x=0;}
                 _0x14E:
000b95 e4e0      	LDI  R30,LOW(64)
000b96 15e5      	CP   R30,R5
000b97 f431      	BRNE _0x14F
000b98 940e 080a 	CALL _maju
000b9a efe8      	LDI  R30,LOW(65528)
000b9b efff      	LDI  R31,HIGH(65528)
000b9c 940e 108f 	CALL SUBOPT_0x43
                 ;    1361     if(sensor==0b11000000){bkir();      error = -10;    x=0;}
                 _0x14F:
000b9e ece0      	LDI  R30,LOW(192)
000b9f 15e5      	CP   R30,R5
000ba0 f431      	BRNE _0x150
000ba1 940e 0819 	CALL _bkir
000ba3 efe6      	LDI  R30,LOW(65526)
000ba4 efff      	LDI  R31,HIGH(65526)
000ba5 940e 108f 	CALL SUBOPT_0x43
                 ;    1362     if(sensor==0b10000000){bkir();      error = -15;    x=0;}  //kiri
                 _0x150:
000ba7 e8e0      	LDI  R30,LOW(128)
000ba8 15e5      	CP   R30,R5
000ba9 f431      	BRNE _0x151
000baa 940e 0819 	CALL _bkir
000bac efe1      	LDI  R30,LOW(65521)
000bad efff      	LDI  R31,HIGH(65521)
000bae 940e 108f 	CALL SUBOPT_0x43
                 ;    1363 
                 ;    1364         d_error =error-last_error;
                 _0x151:
000bb0 91a0 018e 	LDS  R26,_last_error
000bb2 91b0 018f 	LDS  R27,_last_error+1
000bb4 940e 1099 	CALL SUBOPT_0x44
000bb6 1bea      	SUB  R30,R26
000bb7 0bfb      	SBC  R31,R27
000bb8 93e0 0190 	STS  _d_error,R30
000bba 93f0 0191 	STS  _d_error+1,R31
                 ;    1365         PV      =(Kp*error)+(Kd*d_error);
000bbc 940e 0f04 	CALL SUBOPT_0x6
000bbe 2fae      	MOV  R26,R30
000bbf 940e 1099 	CALL SUBOPT_0x44
000bc1 e0b0      	LDI  R27,0
000bc2 940e 110d 	CALL __MULW12
000bc4 01bf      	MOVW R22,R30
000bc5 940e 0f0e 	CALL SUBOPT_0x8
000bc7 2fae      	MOV  R26,R30
000bc8 91e0 0190 	LDS  R30,_d_error
000bca 91f0 0191 	LDS  R31,_d_error+1
000bcc e0b0      	LDI  R27,0
000bcd 940e 110d 	CALL __MULW12
000bcf 0fe6      	ADD  R30,R22
000bd0 1ff7      	ADC  R31,R23
000bd1 93e0 018a 	STS  _PV,R30
000bd3 93f0 018b 	STS  _PV+1,R31
                 ;    1366 
                 ;    1367         rpwm=MAXPWM+PV;
000bd5 91a0 0184 	LDS  R26,_MAXPWM
000bd7 91b0 0185 	LDS  R27,_MAXPWM+1
000bd9 0fea      	ADD  R30,R26
000bda 1ffb      	ADC  R31,R27
000bdb 940e 0f42 	CALL SUBOPT_0x11
                 ;    1368         lpwm=MAXPWM-PV;
000bdd 91a0 018a 	LDS  R26,_PV
000bdf 91b0 018b 	LDS  R27,_PV+1
000be1 91e0 0184 	LDS  R30,_MAXPWM
000be3 91f0 0185 	LDS  R31,_MAXPWM+1
000be5 1bea      	SUB  R30,R26
000be6 0bfb      	SBC  R31,R27
000be7 940e 0f38 	CALL SUBOPT_0xF
                 ;    1369 
                 ;    1370         last_error=error;
000be9 940e 1099 	CALL SUBOPT_0x44
000beb 93e0 018e 	STS  _last_error,R30
000bed 93f0 018f 	STS  _last_error+1,R31
                 ;    1371 
                 ;    1372     /*if(sensor==0b00000000)                                  //lepas
                 ;    1373     {
                 ;    1374         if(x)
                 ;    1375         {
                 ;    1376             stop();rotkan();rpwm=150;lpwm=150;
                 ;    1377         }
                 ;    1378 
                 ;    1379         else
                 ;    1380         {
                 ;    1381             stop();rotkir();rpwm=150;lpwm=150;
                 ;    1382         }
                 ;    1383     }
                 ;    1384 
                 ;    1385     //sudutkanan
                 ;    1386     sensor&=0b00001011;
                 ;    1387     if(sensor==0b00001011)
                 ;    1388     {
                 ;    1389         stop();
                 ;    1390         delay_ms(2);
                 ;    1391         sensor&=0b00001111;
                 ;    1392         if(sensor==0b00001111)
                 ;    1393         {
                 ;    1394             delay_ms(2);
                 ;    1395             sensor&=0b00001110;
                 ;    1396             if(sensor==0b00001110)
                 ;    1397             {
                 ;    1398                 delay_ms(2);
                 ;    1399                 sensor&=0b00001100;
                 ;    1400                 if(sensor==0b00001100)
                 ;    1401                 {
                 ;    1402                     bkan();rpwm=0;lpwm=250;
                 ;    1403                 }
                 ;    1404             }
                 ;    1405         }
                 ;    1406     }
                 ;    1407 
                 ;    1408 
                 ;    1409     //sudutkiri
                 ;    1410     sensor&=0b11010000;
                 ;    1411     if(sensor==0b11010000)
                 ;    1412     {
                 ;    1413         stop();
                 ;    1414         delay_ms(2);
                 ;    1415         sensor&=0b11110000;
                 ;    1416         if(sensor==0b11110000)
                 ;    1417         {
                 ;    1418             delay_ms(2);
                 ;    1419             sensor&=0b01110000;
                 ;    1420             if(sensor==0b01110000)
                 ;    1421             {
                 ;    1422                 delay_ms(2);
                 ;    1423                 sensor&=0b00110000;
                 ;    1424                 if(sensor==0b00110000)
                 ;    1425                 {
                 ;    1426                     bkir();rpwm=250;lpwm=0;
                 ;    1427                 }
                 ;    1428             }
                 ;    1429         }
                 ;    1430     }*/
                 ;    1431 
                 ;    1432     if(lpwm>=255)       lpwm = 255;
000bef 91a0 0180 	LDS  R26,_lpwm
000bf1 91b0 0181 	LDS  R27,_lpwm+1
000bf3 3faf      	CPI  R26,LOW(0xFF)
000bf4 e0e0      	LDI  R30,HIGH(0xFF)
000bf5 07be      	CPC  R27,R30
000bf6 f024      	BRLT _0x152
000bf7 efef      	LDI  R30,LOW(255)
000bf8 e0f0      	LDI  R31,HIGH(255)
000bf9 940e 0f38 	CALL SUBOPT_0xF
                 ;    1433     if(lpwm<=0)         lpwm = 0;
                 _0x152:
000bfb 91a0 0180 	LDS  R26,_lpwm
000bfd 91b0 0181 	LDS  R27,_lpwm+1
000bff 940e 1159 	CALL __CPW02
000c01 f02c      	BRLT _0x153
000c02 e0e0      	LDI  R30,0
000c03 93e0 0180 	STS  _lpwm,R30
000c05 93e0 0181 	STS  _lpwm+1,R30
                 ;    1434 
                 ;    1435     if(rpwm>=255)       rpwm = 255;
                 _0x153:
000c07 91a0 0182 	LDS  R26,_rpwm
000c09 91b0 0183 	LDS  R27,_rpwm+1
000c0b 3faf      	CPI  R26,LOW(0xFF)
000c0c e0e0      	LDI  R30,HIGH(0xFF)
000c0d 07be      	CPC  R27,R30
000c0e f024      	BRLT _0x154
000c0f efef      	LDI  R30,LOW(255)
000c10 e0f0      	LDI  R31,HIGH(255)
000c11 940e 0f42 	CALL SUBOPT_0x11
                 ;    1436     if(rpwm<=0)         rpwm = 0;
                 _0x154:
000c13 91a0 0182 	LDS  R26,_rpwm
000c15 91b0 0183 	LDS  R27,_rpwm+1
000c17 940e 1159 	CALL __CPW02
000c19 f02c      	BRLT _0x155
000c1a e0e0      	LDI  R30,0
000c1b 93e0 0182 	STS  _rpwm,R30
000c1d 93e0 0183 	STS  _rpwm+1,R30
                 ;    1437 
                 ;    1438     sprintf(lcd_buffer,"%d   %d",lpwm, rpwm);
                 _0x155:
000c1f e9ed      	LDI  R30,LOW(_lcd_buffer)
000c20 e0f1      	LDI  R31,HIGH(_lcd_buffer)
000c21 93fa      	ST   -Y,R31
000c22 93ea      	ST   -Y,R30
000c23 eae7
000c24 e0f3      	__POINTW1FN _0,797
000c25 93fa      	ST   -Y,R31
000c26 93ea      	ST   -Y,R30
000c27 940e 0f33 	CALL SUBOPT_0xE
000c29 940e 1100 	CALL __CWD1
000c2b 940e 1139 	CALL __PUTPARD1
000c2d 940e 0f3d 	CALL SUBOPT_0x10
000c2f 940e 1100 	CALL __CWD1
000c31 940e 1139 	CALL __PUTPARD1
000c33 e088      	LDI  R24,8
000c34 940e 0dad 	CALL _sprintf
000c36 962c      	ADIW R28,12
                 ;    1439     lcd_gotoxy(0, 0);
000c37 940e 0fc5 	CALL SUBOPT_0x25
                 ;    1440     lcd_putsf("                ");
000c39 eaef
000c3a e0f3      	__POINTW1FN _0,805
000c3b 940e 0eeb 	CALL SUBOPT_0x1
                 ;    1441     lcd_gotoxy(0, 0);
000c3d 940e 0fc5 	CALL SUBOPT_0x25
                 ;    1442     lcd_puts(lcd_buffer);
000c3f e9ed      	LDI  R30,LOW(_lcd_buffer)
000c40 e0f1      	LDI  R31,HIGH(_lcd_buffer)
000c41 93fa      	ST   -Y,R31
000c42 93ea      	ST   -Y,R30
000c43 940e 0e76 	CALL _lcd_puts
                 ;    1443     delay_ms(5);
000c45 e0e5      	LDI  R30,LOW(5)
000c46 e0f0      	LDI  R31,HIGH(5)
000c47 940e 0efd 	CALL SUBOPT_0x4
                 ;    1444 }
000c49 9508      	RET
                 
                 _getchar:
000c4a 9b5f           sbis usr,rxc
000c4b cffe           rjmp _getchar
000c4c b1ec           in   r30,udr
000c4d 9508      	RET
                 _putchar:
000c4e 9b5d           sbis usr,udre
000c4f cffe           rjmp _putchar
000c50 81e8           ld   r30,y
000c51 b9ec           out  udr,r30
000c52 9621      	ADIW R28,1
000c53 9508      	RET
                 __put_G2:
000c54 931a      	ST   -Y,R17
000c55 930a      	ST   -Y,R16
000c56 81ac      	LDD  R26,Y+4
000c57 81bd      	LDD  R27,Y+4+1
000c58 940e 1131 	CALL __GETW1P
000c5a 9730      	SBIW R30,0
000c5b f0d9      	BREQ _0x156
000c5c 81aa      	LDD  R26,Y+2
000c5d 81bb      	LDD  R27,Y+2+1
000c5e 940e 1131 	CALL __GETW1P
000c60 018f      	MOVW R16,R30
000c61 9730      	SBIW R30,0
000c62 f049      	BREQ _0x158
000c63 3002
000c64 e0e0
000c65 071e      	__CPWRN 16,17,2
000c66 f078      	BRLO _0x159
000c67 01f8      	MOVW R30,R16
000c68 9731      	SBIW R30,1
000c69 018f      	MOVW R16,R30
000c6a 93ed      	ST   X+,R30
000c6b 93fc      	ST   X,R31
                 _0x158:
000c6c 81ac      	LDD  R26,Y+4
000c6d 81bd      	LDD  R27,Y+4+1
000c6e 91ed      	LD   R30,X+
000c6f 91fd      	LD   R31,X+
000c70 9631      	ADIW R30,1
000c71 93fe      	ST   -X,R31
000c72 93ee      	ST   -X,R30
000c73 9731      	SBIW R30,1
000c74 81ae      	LDD  R26,Y+6
000c75 83a0      	STD  Z+0,R26
                 _0x159:
000c76 c004      	RJMP _0x15A
                 _0x156:
000c77 81ee      	LDD  R30,Y+6
000c78 93ea      	ST   -Y,R30
000c79 940e 0c4e 	CALL _putchar
                 _0x15A:
000c7b 8119      	LDD  R17,Y+1
000c7c 8108      	LDD  R16,Y+0
000c7d 9627      	ADIW R28,7
000c7e 9508      	RET
                 __print_G2:
000c7f 9726      	SBIW R28,6
000c80 940e 115d 	CALL __SAVELOCR6
000c82 e010      	LDI  R17,0
                 _0x15B:
000c83 89ea      	LDD  R30,Y+18
000c84 89fb      	LDD  R31,Y+18+1
000c85 9631      	ADIW R30,1
000c86 8bea      	STD  Y+18,R30
000c87 8bfb      	STD  Y+18+1,R31
000c88 9731      	SBIW R30,1
000c89 91e4      	LPM  R30,Z
000c8a 2f2e      	MOV  R18,R30
000c8b 30e0      	CPI  R30,0
000c8c f411      	BRNE PC+3
000c8d 940c 0da9 	JMP _0x15D
000c8f 2fe1      	MOV  R30,R17
000c90 30e0      	CPI  R30,0
000c91 f439      	BRNE _0x161
000c92 3225      	CPI  R18,37
000c93 f411      	BRNE _0x162
000c94 e011      	LDI  R17,LOW(1)
000c95 c002      	RJMP _0x163
                 _0x162:
000c96 940e 109e 	CALL SUBOPT_0x45
                 _0x163:
000c98 c10f      	RJMP _0x160
                 _0x161:
000c99 30e1      	CPI  R30,LOW(0x1)
000c9a f4a9      	BRNE _0x164
000c9b 3225      	CPI  R18,37
000c9c f419      	BRNE _0x165
000c9d 940e 109e 	CALL SUBOPT_0x45
000c9f c107      	RJMP _0x1E1
                 _0x165:
000ca0 e012      	LDI  R17,LOW(2)
000ca1 e040      	LDI  R20,LOW(0)
000ca2 e000      	LDI  R16,LOW(0)
000ca3 322d      	CPI  R18,45
000ca4 f411      	BRNE _0x166
000ca5 e001      	LDI  R16,LOW(1)
000ca6 c101      	RJMP _0x160
                 _0x166:
000ca7 322b      	CPI  R18,43
000ca8 f411      	BRNE _0x167
000ca9 e24b      	LDI  R20,LOW(43)
000caa c0fd      	RJMP _0x160
                 _0x167:
000cab 3220      	CPI  R18,32
000cac f411      	BRNE _0x168
000cad e240      	LDI  R20,LOW(32)
000cae c0f9      	RJMP _0x160
                 _0x168:
000caf c002      	RJMP _0x169
                 _0x164:
000cb0 30e2      	CPI  R30,LOW(0x2)
000cb1 f439      	BRNE _0x16A
                 _0x169:
000cb2 e050      	LDI  R21,LOW(0)
000cb3 e013      	LDI  R17,LOW(3)
000cb4 3320      	CPI  R18,48
000cb5 f411      	BRNE _0x16B
000cb6 6800      	ORI  R16,LOW(128)
000cb7 c0f0      	RJMP _0x160
                 _0x16B:
000cb8 c004      	RJMP _0x16C
                 _0x16A:
000cb9 30e3      	CPI  R30,LOW(0x3)
000cba f011      	BREQ PC+3
000cbb 940c 0da8 	JMP _0x160
                 _0x16C:
000cbd 3320      	CPI  R18,48
000cbe f010      	BRLO _0x16F
000cbf 332a      	CPI  R18,58
000cc0 f008      	BRLO _0x170
                 _0x16F:
000cc1 c009      	RJMP _0x16E
                 _0x170:
000cc2 2fa5      	MOV  R26,R21
000cc3 e0ea      	LDI  R30,LOW(10)
000cc4 9fea      	MUL  R30,R26
000cc5 01f0      	MOVW R30,R0
000cc6 2f5e      	MOV  R21,R30
000cc7 2fe2      	MOV  R30,R18
000cc8 53e0      	SUBI R30,LOW(48)
000cc9 0f5e      	ADD  R21,R30
000cca c0dd      	RJMP _0x160
                 _0x16E:
000ccb 2fe2      	MOV  R30,R18
000ccc 36e3      	CPI  R30,LOW(0x63)
000ccd f431      	BRNE _0x174
000cce 940e 10a9 	CALL SUBOPT_0x46
000cd0 91ec      	LD   R30,X
000cd1 940e 10b0 	CALL SUBOPT_0x47
000cd3 c0d3      	RJMP _0x175
                 _0x174:
000cd4 37e3      	CPI  R30,LOW(0x73)
000cd5 f441      	BRNE _0x177
000cd6 940e 10a9 	CALL SUBOPT_0x46
000cd8 940e 10bb 	CALL SUBOPT_0x48
000cda 940e 10d7 	CALL _strlen
000cdc 2f1e      	MOV  R17,R30
000cdd c00a      	RJMP _0x178
                 _0x177:
000cde 37e0      	CPI  R30,LOW(0x70)
000cdf f461      	BRNE _0x17A
000ce0 940e 10a9 	CALL SUBOPT_0x46
000ce2 940e 10bb 	CALL SUBOPT_0x48
000ce4 940e 10e1 	CALL _strlenf
000ce6 2f1e      	MOV  R17,R30
000ce7 6008      	ORI  R16,LOW(8)
                 _0x178:
000ce8 6002      	ORI  R16,LOW(2)
000ce9 770f      	ANDI R16,LOW(127)
000cea e030      	LDI  R19,LOW(0)
000ceb c038      	RJMP _0x17B
                 _0x17A:
000cec 36e4      	CPI  R30,LOW(0x64)
000ced f011      	BREQ _0x17E
000cee 36e9      	CPI  R30,LOW(0x69)
000cef f411      	BRNE _0x17F
                 _0x17E:
000cf0 6004      	ORI  R16,LOW(4)
000cf1 c002      	RJMP _0x180
                 _0x17F:
000cf2 37e5      	CPI  R30,LOW(0x75)
000cf3 f431      	BRNE _0x181
                 _0x180:
000cf4 e7e6      	LDI  R30,LOW(_tbl10_G2*2)
000cf5 e0f0      	LDI  R31,HIGH(_tbl10_G2*2)
000cf6 83ee      	STD  Y+6,R30
000cf7 83ff      	STD  Y+6+1,R31
000cf8 e015      	LDI  R17,LOW(5)
000cf9 c00d      	RJMP _0x182
                 _0x181:
000cfa 35e8      	CPI  R30,LOW(0x58)
000cfb f411      	BRNE _0x184
000cfc 6008      	ORI  R16,LOW(8)
000cfd c004      	RJMP _0x185
                 _0x184:
000cfe 37e8      	CPI  R30,LOW(0x78)
000cff f011      	BREQ PC+3
000d00 940c 0da7 	JMP _0x1B6
                 _0x185:
000d02 e8e0      	LDI  R30,LOW(_tbl16_G2*2)
000d03 e0f0      	LDI  R31,HIGH(_tbl16_G2*2)
000d04 83ee      	STD  Y+6,R30
000d05 83ff      	STD  Y+6+1,R31
000d06 e014      	LDI  R17,LOW(4)
                 _0x182:
000d07 ff02      	SBRS R16,2
000d08 c015      	RJMP _0x187
000d09 940e 10a9 	CALL SUBOPT_0x46
000d0b 940e 1131 	CALL __GETW1P
000d0d 87ea      	STD  Y+10,R30
000d0e 87fb      	STD  Y+10+1,R31
000d0f 85aa      	LDD  R26,Y+10
000d10 85bb      	LDD  R27,Y+10+1
000d11 9710      	SBIW R26,0
000d12 f42c      	BRGE _0x188
000d13 940e 10fc 	CALL __ANEGW1
000d15 87ea      	STD  Y+10,R30
000d16 87fb      	STD  Y+10+1,R31
000d17 e24d      	LDI  R20,LOW(45)
                 _0x188:
000d18 3040      	CPI  R20,0
000d19 f011      	BREQ _0x189
000d1a 5f1f      	SUBI R17,-LOW(1)
000d1b c001      	RJMP _0x18A
                 _0x189:
000d1c 7f0b      	ANDI R16,LOW(251)
                 _0x18A:
000d1d c006      	RJMP _0x18B
                 _0x187:
000d1e 940e 10a9 	CALL SUBOPT_0x46
000d20 940e 1131 	CALL __GETW1P
000d22 87ea      	STD  Y+10,R30
000d23 87fb      	STD  Y+10+1,R31
                 _0x18B:
                 _0x17B:
000d24 fd00      	SBRC R16,0
000d25 c011      	RJMP _0x18C
                 _0x18D:
000d26 1715      	CP   R17,R21
000d27 f478      	BRSH _0x18F
000d28 ff07      	SBRS R16,7
000d29 c008      	RJMP _0x190
000d2a ff02      	SBRS R16,2
000d2b c004      	RJMP _0x191
000d2c 7f0b      	ANDI R16,LOW(251)
000d2d 2f24      	MOV  R18,R20
000d2e 5011      	SUBI R17,LOW(1)
000d2f c001      	RJMP _0x192
                 _0x191:
000d30 e320      	LDI  R18,LOW(48)
                 _0x192:
000d31 c001      	RJMP _0x193
                 _0x190:
000d32 e220      	LDI  R18,LOW(32)
                 _0x193:
000d33 940e 109e 	CALL SUBOPT_0x45
000d35 5051      	SUBI R21,LOW(1)
000d36 cfef      	RJMP _0x18D
                 _0x18F:
                 _0x18C:
000d37 2f31      	MOV  R19,R17
000d38 ff01      	SBRS R16,1
000d39 c01a      	RJMP _0x194
                 _0x195:
000d3a 3030      	CPI  R19,0
000d3b f0b9      	BREQ _0x197
000d3c ff03      	SBRS R16,3
000d3d c008      	RJMP _0x198
000d3e 81ee      	LDD  R30,Y+6
000d3f 81ff      	LDD  R31,Y+6+1
000d40 9631      	ADIW R30,1
000d41 83ee      	STD  Y+6,R30
000d42 83ff      	STD  Y+6+1,R31
000d43 9731      	SBIW R30,1
000d44 91e4      	LPM  R30,Z
000d45 c005      	RJMP _0x1E2
                 _0x198:
000d46 81ae      	LDD  R26,Y+6
000d47 81bf      	LDD  R27,Y+6+1
000d48 91ed      	LD   R30,X+
000d49 83ae      	STD  Y+6,R26
000d4a 83bf      	STD  Y+6+1,R27
                 _0x1E2:
000d4b 93ea      	ST   -Y,R30
000d4c 940e 10c2 	CALL SUBOPT_0x49
000d4e 3050      	CPI  R21,0
000d4f f009      	BREQ _0x19A
000d50 5051      	SUBI R21,LOW(1)
                 _0x19A:
000d51 5031      	SUBI R19,LOW(1)
000d52 cfe7      	RJMP _0x195
                 _0x197:
000d53 c04a      	RJMP _0x19B
                 _0x194:
                 _0x19D:
000d54 e320      	LDI  R18,LOW(48)
000d55 81ee      	LDD  R30,Y+6
000d56 81ff      	LDD  R31,Y+6+1
000d57 9632      	ADIW R30,2
000d58 83ee      	STD  Y+6,R30
000d59 83ff      	STD  Y+6+1,R31
000d5a 9732      	SBIW R30,2
000d5b 940e 1135 	CALL __GETW1PF
000d5d 87e8      	STD  Y+8,R30
000d5e 87f9      	STD  Y+8+1,R31
                 _0x19F:
000d5f 85e8      	LDD  R30,Y+8
000d60 85f9      	LDD  R31,Y+8+1
000d61 85aa      	LDD  R26,Y+10
000d62 85bb      	LDD  R27,Y+10+1
000d63 17ae      	CP   R26,R30
000d64 07bf      	CPC  R27,R31
000d65 f050      	BRLO _0x1A1
000d66 5f2f      	SUBI R18,-LOW(1)
000d67 85a8      	LDD  R26,Y+8
000d68 85b9      	LDD  R27,Y+8+1
000d69 85ea      	LDD  R30,Y+10
000d6a 85fb      	LDD  R31,Y+10+1
000d6b 1bea      	SUB  R30,R26
000d6c 0bfb      	SBC  R31,R27
000d6d 87ea      	STD  Y+10,R30
000d6e 87fb      	STD  Y+10+1,R31
000d6f cfef      	RJMP _0x19F
                 _0x1A1:
000d70 332a      	CPI  R18,58
000d71 f028      	BRLO _0x1A2
000d72 ff03      	SBRS R16,3
000d73 c002      	RJMP _0x1A3
000d74 5f29      	SUBI R18,-LOW(7)
000d75 c001      	RJMP _0x1A4
                 _0x1A3:
000d76 5d29      	SUBI R18,-LOW(39)
                 _0x1A4:
                 _0x1A2:
000d77 fd04      	SBRC R16,4
000d78 c01a      	RJMP _0x1A6
000d79 3321      	CPI  R18,49
000d7a f420      	BRSH _0x1A8
000d7b 85a8      	LDD  R26,Y+8
000d7c 85b9      	LDD  R27,Y+8+1
000d7d 9711      	SBIW R26,1
000d7e f409      	BRNE _0x1A7
                 _0x1A8:
000d7f c009      	RJMP _0x1E3
                 _0x1A7:
000d80 1753      	CP   R21,R19
000d81 f010      	BRLO _0x1AC
000d82 ff00      	SBRS R16,0
000d83 c001      	RJMP _0x1AD
                 _0x1AC:
000d84 c013      	RJMP _0x1AB
                 _0x1AD:
000d85 e220      	LDI  R18,LOW(32)
000d86 ff07      	SBRS R16,7
000d87 c00b      	RJMP _0x1AE
000d88 e320      	LDI  R18,LOW(48)
                 _0x1E3:
000d89 6100      	ORI  R16,LOW(16)
000d8a ff02      	SBRS R16,2
000d8b c007      	RJMP _0x1AF
000d8c 7f0b      	ANDI R16,LOW(251)
000d8d 934a      	ST   -Y,R20
000d8e 940e 10c2 	CALL SUBOPT_0x49
000d90 3050      	CPI  R21,0
000d91 f009      	BREQ _0x1B0
000d92 5051      	SUBI R21,LOW(1)
                 _0x1B0:
                 _0x1AF:
                 _0x1AE:
                 _0x1A6:
000d93 940e 109e 	CALL SUBOPT_0x45
000d95 3050      	CPI  R21,0
000d96 f009      	BREQ _0x1B1
000d97 5051      	SUBI R21,LOW(1)
                 _0x1B1:
                 _0x1AB:
000d98 5031      	SUBI R19,LOW(1)
000d99 85a8      	LDD  R26,Y+8
000d9a 85b9      	LDD  R27,Y+8+1
000d9b 9712      	SBIW R26,2
000d9c f008      	BRLO _0x19E
000d9d cfb6      	RJMP _0x19D
                 _0x19E:
                 _0x19B:
000d9e ff00      	SBRS R16,0
000d9f c007      	RJMP _0x1B2
                 _0x1B3:
000da0 3050      	CPI  R21,0
000da1 f029      	BREQ _0x1B5
000da2 5051      	SUBI R21,LOW(1)
000da3 e2e0      	LDI  R30,LOW(32)
000da4 940e 10b0 	CALL SUBOPT_0x47
000da6 cff9      	RJMP _0x1B3
                 _0x1B5:
                 _0x1B2:
                 _0x1B6:
                 _0x175:
                 _0x1E1:
000da7 e010      	LDI  R17,LOW(0)
                 _0x160:
000da8 ceda      	RJMP _0x15B
                 _0x15D:
000da9 940e 1164 	CALL __LOADLOCR6
000dab 9664      	ADIW R28,20
000dac 9508      	RET
                 _sprintf:
000dad 92ff      	PUSH R15
000dae 2ef8      	MOV  R15,R24
000daf 9722      	SBIW R28,2
000db0 931a      	ST   -Y,R17
000db1 930a      	ST   -Y,R16
000db2 01de      	MOVW R26,R28
000db3 940e 10f8 	CALL __ADDW2R15
000db5 018d      	MOVW R16,R26
000db6 01de      	MOVW R26,R28
000db7 9616      	ADIW R26,6
000db8 940e 10f8 	CALL __ADDW2R15
000dba 940e 1131 	CALL __GETW1P
000dbc 83ea      	STD  Y+2,R30
000dbd 83fb      	STD  Y+2+1,R31
000dbe 01de      	MOVW R26,R28
000dbf 9614      	ADIW R26,4
000dc0 940e 10f8 	CALL __ADDW2R15
000dc2 940e 1131 	CALL __GETW1P
000dc4 93fa      	ST   -Y,R31
000dc5 93ea      	ST   -Y,R30
000dc6 931a      	ST   -Y,R17
000dc7 930a      	ST   -Y,R16
000dc8 01fe      	MOVW R30,R28
000dc9 9636      	ADIW R30,6
000dca 93fa      	ST   -Y,R31
000dcb 93ea      	ST   -Y,R30
000dcc e0e0      	LDI  R30,LOW(0)
000dcd e0f0      	LDI  R31,HIGH(0)
000dce 93fa      	ST   -Y,R31
000dcf 93ea      	ST   -Y,R30
000dd0 940e 0c7f 	CALL __print_G2
000dd2 81aa      	LDD  R26,Y+2
000dd3 81bb      	LDD  R27,Y+2+1
000dd4 e0e0      	LDI  R30,LOW(0)
000dd5 93ec      	ST   X,R30
000dd6 8119      	LDD  R17,Y+1
000dd7 8108      	LDD  R16,Y+0
000dd8 9624      	ADIW R28,4
000dd9 90ff      	POP  R15
000dda 9508      	RET
                     .equ __lcd_direction=__lcd_port-1
                     .equ __lcd_pin=__lcd_port-2
                     .equ __lcd_rs=0
                     .equ __lcd_rd=1
                     .equ __lcd_enable=2
                     .equ __lcd_busy_flag=7
                 
                 	.DSEG
                 __base_y_G3:
0001c2           	.BYTE 0x4
                 __lcd_x:
0001c6           	.BYTE 0x1
                 __lcd_y:
0001c7           	.BYTE 0x1
                 __lcd_maxx:
0001c8           	.BYTE 0x1
                 
                 	.CSEG
                 __lcd_delay_G3:
000ddb e0ff          ldi   r31,15
                 __lcd_delay0:
000ddc 95fa          dec   r31
000ddd f7f1          brne  __lcd_delay0
000dde 9508      	RET
                 __lcd_ready:
000ddf b3a7          in    r26,__lcd_direction
000de0 70af          andi  r26,0xf                 ;set as input
000de1 bba7          out   __lcd_direction,r26
000de2 9ac1          sbi   __lcd_port,__lcd_rd     ;RD=1
000de3 98c0          cbi   __lcd_port,__lcd_rs     ;RS=0
                 __lcd_busy:
000de4 940e 0ddb 	CALL __lcd_delay_G3
000de6 9ac2          sbi   __lcd_port,__lcd_enable ;EN=1
000de7 940e 0ddb 	CALL __lcd_delay_G3
000de9 b3a6          in    r26,__lcd_pin
000dea 98c2          cbi   __lcd_port,__lcd_enable ;EN=0
000deb 940e 0ddb 	CALL __lcd_delay_G3
000ded 9ac2          sbi   __lcd_port,__lcd_enable ;EN=1
000dee 940e 0ddb 	CALL __lcd_delay_G3
000df0 98c2          cbi   __lcd_port,__lcd_enable ;EN=0
000df1 fda7          sbrc  r26,__lcd_busy_flag
000df2 cff1          rjmp  __lcd_busy
000df3 9508      	RET
                 __lcd_write_nibble_G3:
000df4 7fa0          andi  r26,0xf0
000df5 2bab          or    r26,r27
000df6 bba8          out   __lcd_port,r26          ;write
000df7 9ac2          sbi   __lcd_port,__lcd_enable ;EN=1
000df8 940e 0ddb 	CALL __lcd_delay_G3
000dfa 98c2          cbi   __lcd_port,__lcd_enable ;EN=0
000dfb 940e 0ddb 	CALL __lcd_delay_G3
000dfd 9508      	RET
                 __lcd_write_data:
000dfe 98c1          cbi  __lcd_port,__lcd_rd 	  ;RD=0
000dff b3a7          in    r26,__lcd_direction
000e00 6fa7          ori   r26,0xf0 | (1<<__lcd_rs) | (1<<__lcd_rd) | (1<<__lcd_enable) ;set as output    
000e01 bba7          out   __lcd_direction,r26
000e02 b3b8          in    r27,__lcd_port
000e03 70bf          andi  r27,0xf
000e04 81a8          ld    r26,y
000e05 940e 0df4 	CALL __lcd_write_nibble_G3
000e07 81a8          ld    r26,y
000e08 95a2          swap  r26
000e09 940e 0df4 	CALL __lcd_write_nibble_G3
000e0b 9ac1          sbi   __lcd_port,__lcd_rd     ;RD=1
000e0c 9621      	ADIW R28,1
000e0d 9508      	RET
                 __lcd_read_nibble_G3:
000e0e 9ac2          sbi   __lcd_port,__lcd_enable ;EN=1
000e0f 940e 0ddb 	CALL __lcd_delay_G3
000e11 b3e6          in    r30,__lcd_pin           ;read
000e12 98c2          cbi   __lcd_port,__lcd_enable ;EN=0
000e13 940e 0ddb 	CALL __lcd_delay_G3
000e15 7fe0          andi  r30,0xf0
000e16 9508      	RET
                 _lcd_read_byte0_G3:
000e17 940e 0ddb 	CALL __lcd_delay_G3
000e19 940e 0e0e 	CALL __lcd_read_nibble_G3
000e1b 2fae          mov   r26,r30
000e1c 940e 0e0e 	CALL __lcd_read_nibble_G3
000e1e 98c1          cbi   __lcd_port,__lcd_rd     ;RD=0
000e1f 95e2          swap  r30
000e20 2bea          or    r30,r26
000e21 9508      	RET
                 _lcd_gotoxy:
000e22 940e 0ddf 	CALL __lcd_ready
000e24 81e8      	LD   R30,Y
000e25 e0f0      	LDI  R31,0
000e26 53ee      	SUBI R30,LOW(-__base_y_G3)
000e27 4ffe      	SBCI R31,HIGH(-__base_y_G3)
000e28 81e0      	LD   R30,Z
000e29 81a9      	LDD  R26,Y+1
000e2a 0fea      	ADD  R30,R26
000e2b 93ea      	ST   -Y,R30
000e2c 940e 0dfe 	CALL __lcd_write_data
000e2e 81e9      	LDD  R30,Y+1
000e2f 93e0 01c6 	STS  __lcd_x,R30
000e31 81e8      	LD   R30,Y
000e32 93e0 01c7 	STS  __lcd_y,R30
000e34 9622      	ADIW R28,2
000e35 9508      	RET
                 _lcd_clear:
000e36 940e 0ddf 	CALL __lcd_ready
000e38 e0e2      	LDI  R30,LOW(2)
000e39 93ea      	ST   -Y,R30
000e3a 940e 0dfe 	CALL __lcd_write_data
000e3c 940e 0ddf 	CALL __lcd_ready
000e3e e0ec      	LDI  R30,LOW(12)
000e3f 93ea      	ST   -Y,R30
000e40 940e 0dfe 	CALL __lcd_write_data
000e42 940e 0ddf 	CALL __lcd_ready
000e44 e0e1      	LDI  R30,LOW(1)
000e45 93ea      	ST   -Y,R30
000e46 940e 0dfe 	CALL __lcd_write_data
000e48 e0e0      	LDI  R30,LOW(0)
000e49 93e0 01c7 	STS  __lcd_y,R30
000e4b 93e0 01c6 	STS  __lcd_x,R30
000e4d 9508      	RET
                 _lcd_putchar:
000e4e 93ef          push r30
000e4f 93ff          push r31
000e50 81a8          ld   r26,y
000e51 9468          set
000e52 30aa          cpi  r26,10
000e53 f061          breq __lcd_putchar1
000e54 94e8          clt
000e55 91e0 01c6 	LDS  R30,__lcd_x
000e57 5fef      	SUBI R30,-LOW(1)
000e58 93e0 01c6 	STS  __lcd_x,R30
000e5a 91e0 01c8 	LDS  R30,__lcd_maxx
000e5c 91a0 01c6 	LDS  R26,__lcd_x
000e5e 17ea      	CP   R30,R26
000e5f f468      	BRSH _0x1B8
                 	__lcd_putchar1:
000e60 91e0 01c7 	LDS  R30,__lcd_y
000e62 5fef      	SUBI R30,-LOW(1)
000e63 93e0 01c7 	STS  __lcd_y,R30
000e65 e0e0      	LDI  R30,LOW(0)
000e66 93ea      	ST   -Y,R30
000e67 91e0 01c7 	LDS  R30,__lcd_y
000e69 93ea      	ST   -Y,R30
000e6a 940e 0e22 	CALL _lcd_gotoxy
000e6c f02e      	brts __lcd_putchar0
                 _0x1B8:
000e6d df71          rcall __lcd_ready
000e6e 9ac0          sbi  __lcd_port,__lcd_rs ;RS=1
000e6f 81a8          ld   r26,y
000e70 93aa          st   -y,r26
000e71 df8c          rcall __lcd_write_data
                 __lcd_putchar0:
000e72 91ff          pop  r31
000e73 91ef          pop  r30
000e74 9621      	ADIW R28,1
000e75 9508      	RET
                 _lcd_puts:
000e76 931a      	ST   -Y,R17
                 _0x1B9:
000e77 81a9      	LDD  R26,Y+1
000e78 81ba      	LDD  R27,Y+1+1
000e79 91ed      	LD   R30,X+
000e7a 83a9      	STD  Y+1,R26
000e7b 83ba      	STD  Y+1+1,R27
000e7c 2f1e      	MOV  R17,R30
000e7d 30e0      	CPI  R30,0
000e7e f021      	BREQ _0x1BB
000e7f 931a      	ST   -Y,R17
000e80 940e 0e4e 	CALL _lcd_putchar
000e82 cff4      	RJMP _0x1B9
                 _0x1BB:
000e83 8118      	LDD  R17,Y+0
000e84 c010      	RJMP _0x1C1
                 _lcd_putsf:
000e85 931a      	ST   -Y,R17
                 _0x1BC:
000e86 81e9      	LDD  R30,Y+1
000e87 81fa      	LDD  R31,Y+1+1
000e88 9631      	ADIW R30,1
000e89 83e9      	STD  Y+1,R30
000e8a 83fa      	STD  Y+1+1,R31
000e8b 9731      	SBIW R30,1
000e8c 91e4      	LPM  R30,Z
000e8d 2f1e      	MOV  R17,R30
000e8e 30e0      	CPI  R30,0
000e8f f021      	BREQ _0x1BE
000e90 931a      	ST   -Y,R17
000e91 940e 0e4e 	CALL _lcd_putchar
000e93 cff2      	RJMP _0x1BC
                 _0x1BE:
000e94 8118      	LDD  R17,Y+0
                 _0x1C1:
000e95 9623      	ADIW R28,3
000e96 9508      	RET
                 __long_delay_G3:
000e97 27aa          clr   r26
000e98 27bb          clr   r27
                 __long_delay0:
000e99 9711          sbiw  r26,1         ;2 cycles
000e9a f7f1          brne  __long_delay0 ;2 cycles
000e9b 9508      	RET
                 __lcd_init_write_G3:
000e9c 98c1          cbi  __lcd_port,__lcd_rd 	  ;RD=0
000e9d b3a7          in    r26,__lcd_direction
000e9e 6fa7          ori   r26,0xf7                ;set as output
000e9f bba7          out   __lcd_direction,r26
000ea0 b3b8          in    r27,__lcd_port
000ea1 70bf          andi  r27,0xf
000ea2 81a8          ld    r26,y
000ea3 940e 0df4 	CALL __lcd_write_nibble_G3
000ea5 9ac1          sbi   __lcd_port,__lcd_rd     ;RD=1
000ea6 9621      	ADIW R28,1
000ea7 9508      	RET
                 _lcd_init:
000ea8 98c2          cbi   __lcd_port,__lcd_enable ;EN=0
000ea9 98c0          cbi   __lcd_port,__lcd_rs     ;RS=0
000eaa 81e8      	LD   R30,Y
000eab 93e0 01c8 	STS  __lcd_maxx,R30
000ead 58e0      	SUBI R30,-LOW(128)
000eae 93e0 01c4 	__PUTB1MN __base_y_G3,2
000eb0 81e8      	LD   R30,Y
000eb1 54e0      	SUBI R30,-LOW(192)
000eb2 93e0 01c5 	__PUTB1MN __base_y_G3,3
000eb4 940e 10cc 	CALL SUBOPT_0x4A
000eb6 940e 10cc 	CALL SUBOPT_0x4A
000eb8 940e 10cc 	CALL SUBOPT_0x4A
000eba 940e 0e97 	CALL __long_delay_G3
000ebc e2e0      	LDI  R30,LOW(32)
000ebd 93ea      	ST   -Y,R30
000ebe 940e 0e9c 	CALL __lcd_init_write_G3
000ec0 940e 0e97 	CALL __long_delay_G3
000ec2 e2e8      	LDI  R30,LOW(40)
000ec3 940e 10d2 	CALL SUBOPT_0x4B
000ec5 e0e4      	LDI  R30,LOW(4)
000ec6 940e 10d2 	CALL SUBOPT_0x4B
000ec8 e8e5      	LDI  R30,LOW(133)
000ec9 940e 10d2 	CALL SUBOPT_0x4B
000ecb b3a7          in    r26,__lcd_direction
000ecc 70af          andi  r26,0xf                 ;set as input
000ecd bba7          out   __lcd_direction,r26
000ece 9ac1          sbi   __lcd_port,__lcd_rd     ;RD=1
000ecf 940e 0e17 	CALL _lcd_read_byte0_G3
000ed1 30e5      	CPI  R30,LOW(0x5)
000ed2 f011      	BREQ _0x1BF
000ed3 e0e0      	LDI  R30,LOW(0)
000ed4 c009      	RJMP _0x1C0
                 _0x1BF:
000ed5 940e 0ddf 	CALL __lcd_ready
000ed7 e0e6      	LDI  R30,LOW(6)
000ed8 93ea      	ST   -Y,R30
000ed9 940e 0dfe 	CALL __lcd_write_data
000edb 940e 0e36 	CALL _lcd_clear
000edd e0e1      	LDI  R30,LOW(1)
                 _0x1C0:
000ede 9621      	ADIW R28,1
000edf 9508      	RET
                 
                 ;OPTIMIZER ADDED SUBROUTINE, CALLED 10 TIMES, CODE SIZE REDUCTION:87 WORDS
                 SUBOPT_0x0:
000ee0 e7ed      	LDI  R30,LOW(125)
000ee1 e0f0      	LDI  R31,HIGH(125)
000ee2 93fa      	ST   -Y,R31
000ee3 93ea      	ST   -Y,R30
000ee4 940e 10ec 	CALL _delay_ms
000ee6 e0e0      	LDI  R30,LOW(0)
000ee7 93ea      	ST   -Y,R30
000ee8 93ea      	ST   -Y,R30
000ee9 940c 0e22 	JMP  _lcd_gotoxy
                 
                 ;OPTIMIZER ADDED SUBROUTINE, CALLED 54 TIMES, CODE SIZE REDUCTION:103 WORDS
                 SUBOPT_0x1:
000eeb 93fa      	ST   -Y,R31
000eec 93ea      	ST   -Y,R30
000eed 940c 0e85 	JMP  _lcd_putsf
                 
                 ;OPTIMIZER ADDED SUBROUTINE, CALLED 21 TIMES, CODE SIZE REDUCTION:77 WORDS
                 SUBOPT_0x2:
000eef e0e0      	LDI  R30,LOW(0)
000ef0 93ea      	ST   -Y,R30
000ef1 e0e1      	LDI  R30,LOW(1)
000ef2 93ea      	ST   -Y,R30
000ef3 940c 0e22 	JMP  _lcd_gotoxy
                 
                 ;OPTIMIZER ADDED SUBROUTINE, CALLED 2 TIMES, CODE SIZE REDUCTION:3 WORDS
                 SUBOPT_0x3:
000ef5 efe4      	LDI  R30,LOW(500)
000ef6 e0f1      	LDI  R31,HIGH(500)
000ef7 93fa      	ST   -Y,R31
000ef8 93ea      	ST   -Y,R30
000ef9 940e 10ec 	CALL _delay_ms
000efb 940c 0e36 	JMP  _lcd_clear
                 
                 ;OPTIMIZER ADDED SUBROUTINE, CALLED 35 TIMES, CODE SIZE REDUCTION:65 WORDS
                 SUBOPT_0x4:
000efd 93fa      	ST   -Y,R31
000efe 93ea      	ST   -Y,R30
000eff 940c 10ec 	JMP  _delay_ms
                 
                 ;OPTIMIZER ADDED SUBROUTINE, CALLED 5 TIMES, CODE SIZE REDUCTION:5 WORDS
                 SUBOPT_0x5:
000f01 ece8      	LDI  R30,LOW(200)
000f02 e0f0      	LDI  R31,HIGH(200)
000f03 cff9      	RJMP SUBOPT_0x4
                 
                 ;OPTIMIZER ADDED SUBROUTINE, CALLED 4 TIMES, CODE SIZE REDUCTION:3 WORDS
                 SUBOPT_0x6:
000f04 e0a8      	LDI  R26,LOW(_Kp)
000f05 e0b0      	LDI  R27,HIGH(_Kp)
000f06 940e 113e 	CALL __EEPROMRDB
000f08 9508      	RET
                 
                 ;OPTIMIZER ADDED SUBROUTINE, CALLED 3 TIMES, CODE SIZE REDUCTION:1 WORDS
                 SUBOPT_0x7:
000f09 e0a9      	LDI  R26,LOW(_Ki)
000f0a e0b0      	LDI  R27,HIGH(_Ki)
000f0b 940e 113e 	CALL __EEPROMRDB
000f0d 9508      	RET
                 
                 ;OPTIMIZER ADDED SUBROUTINE, CALLED 4 TIMES, CODE SIZE REDUCTION:3 WORDS
                 SUBOPT_0x8:
000f0e e0aa      	LDI  R26,LOW(_Kd)
000f0f e0b0      	LDI  R27,HIGH(_Kd)
000f10 940e 113e 	CALL __EEPROMRDB
000f12 9508      	RET
                 
                 ;OPTIMIZER ADDED SUBROUTINE, CALLED 4 TIMES, CODE SIZE REDUCTION:3 WORDS
                 SUBOPT_0x9:
000f13 e0ab      	LDI  R26,LOW(_MAXSpeed)
000f14 e0b0      	LDI  R27,HIGH(_MAXSpeed)
000f15 940e 113e 	CALL __EEPROMRDB
000f17 9508      	RET
                 
                 ;OPTIMIZER ADDED SUBROUTINE, CALLED 4 TIMES, CODE SIZE REDUCTION:3 WORDS
                 SUBOPT_0xA:
000f18 e0ac      	LDI  R26,LOW(_MINSpeed)
000f19 e0b0      	LDI  R27,HIGH(_MINSpeed)
000f1a 940e 113e 	CALL __EEPROMRDB
000f1c 9508      	RET
                 
                 ;OPTIMIZER ADDED SUBROUTINE, CALLED 3 TIMES, CODE SIZE REDUCTION:13 WORDS
                 SUBOPT_0xB:
000f1d e0e0      	LDI  R30,0
000f1e 93e0 0180 	STS  _lpwm,R30
000f20 93e0 0181 	STS  _lpwm+1,R30
000f22 e0e0      	LDI  R30,0
000f23 93e0 0182 	STS  _rpwm,R30
000f25 93e0 0183 	STS  _rpwm+1,R30
000f27 9508      	RET
                 
                 ;OPTIMIZER ADDED SUBROUTINE, CALLED 2 TIMES, CODE SIZE REDUCTION:2 WORDS
                 SUBOPT_0xC:
000f28 91a0 01be 	LDS  R26,_b
000f2a 91b0 01bf 	LDS  R27,_b+1
000f2c 3faf      	CPI  R26,LOW(0xFF)
000f2d e0e0      	LDI  R30,HIGH(0xFF)
000f2e 07be      	CPC  R27,R30
000f2f 9508      	RET
                 
                 ;OPTIMIZER ADDED SUBROUTINE, CALLED 4 TIMES, CODE SIZE REDUCTION:3 WORDS
                 SUBOPT_0xD:
000f30 e7ed      	LDI  R30,LOW(125)
000f31 e0f0      	LDI  R31,HIGH(125)
000f32 cfca      	RJMP SUBOPT_0x4
                 
                 ;OPTIMIZER ADDED SUBROUTINE, CALLED 6 TIMES, CODE SIZE REDUCTION:7 WORDS
                 SUBOPT_0xE:
000f33 91e0 0180 	LDS  R30,_lpwm
000f35 91f0 0181 	LDS  R31,_lpwm+1
000f37 9508      	RET
                 
                 ;OPTIMIZER ADDED SUBROUTINE, CALLED 5 TIMES, CODE SIZE REDUCTION:5 WORDS
                 SUBOPT_0xF:
000f38 93e0 0180 	STS  _lpwm,R30
000f3a 93f0 0181 	STS  _lpwm+1,R31
000f3c 9508      	RET
                 
                 ;OPTIMIZER ADDED SUBROUTINE, CALLED 6 TIMES, CODE SIZE REDUCTION:7 WORDS
                 SUBOPT_0x10:
000f3d 91e0 0182 	LDS  R30,_rpwm
000f3f 91f0 0183 	LDS  R31,_rpwm+1
000f41 9508      	RET
                 
                 ;OPTIMIZER ADDED SUBROUTINE, CALLED 5 TIMES, CODE SIZE REDUCTION:5 WORDS
                 SUBOPT_0x11:
000f42 93e0 0182 	STS  _rpwm,R30
000f44 93f0 0183 	STS  _rpwm+1,R31
000f46 9508      	RET
                 
                 ;OPTIMIZER ADDED SUBROUTINE, CALLED 2 TIMES, CODE SIZE REDUCTION:33 WORDS
                 SUBOPT_0x12:
000f47 940e 0e36 	CALL _lcd_clear
000f49 e0e0      	LDI  R30,LOW(0)
000f4a 93ea      	ST   -Y,R30
000f4b 93ea      	ST   -Y,R30
000f4c 940e 0e22 	CALL _lcd_gotoxy
000f4e e6e0      	LDI  R30,LOW(_lcd)
000f4f e0f1      	LDI  R31,HIGH(_lcd)
000f50 93fa      	ST   -Y,R31
000f51 93ea      	ST   -Y,R30
000f52 e0e2
000f53 e0f1      	__POINTW1FN _0,120
000f54 93fa      	ST   -Y,R31
000f55 93ea      	ST   -Y,R30
000f56 dfdc      	RCALL SUBOPT_0xE
000f57 940e 1100 	CALL __CWD1
000f59 940e 1139 	CALL __PUTPARD1
000f5b dfe1      	RCALL SUBOPT_0x10
000f5c 940e 1100 	CALL __CWD1
000f5e 940e 1139 	CALL __PUTPARD1
000f60 e088      	LDI  R24,8
000f61 940e 0dad 	CALL _sprintf
000f63 962c      	ADIW R28,12
000f64 e6e0      	LDI  R30,LOW(_lcd)
000f65 e0f1      	LDI  R31,HIGH(_lcd)
000f66 93fa      	ST   -Y,R31
000f67 93ea      	ST   -Y,R30
000f68 940c 0e76 	JMP  _lcd_puts
                 
                 ;OPTIMIZER ADDED SUBROUTINE, CALLED 2 TIMES, CODE SIZE REDUCTION:4 WORDS
                 SUBOPT_0x13:
000f6a 91e0 01be 	LDS  R30,_b
000f6c 91f0 01bf 	LDS  R31,_b+1
000f6e 9631      	ADIW R30,1
000f6f 93e0 01be 	STS  _b,R30
000f71 93f0 01bf 	STS  _b+1,R31
000f73 9508      	RET
                 
                 ;OPTIMIZER ADDED SUBROUTINE, CALLED 12 TIMES, CODE SIZE REDUCTION:19 WORDS
                 SUBOPT_0x14:
000f74 e0e0      	LDI  R30,LOW(0)
000f75 93ea      	ST   -Y,R30
000f76 940c 0247 	JMP  _read_adc
                 
                 ;OPTIMIZER ADDED SUBROUTINE, CALLED 12 TIMES, CODE SIZE REDUCTION:19 WORDS
                 SUBOPT_0x15:
000f78 e0e1      	LDI  R30,LOW(1)
000f79 93ea      	ST   -Y,R30
000f7a 940c 0247 	JMP  _read_adc
                 
                 ;OPTIMIZER ADDED SUBROUTINE, CALLED 12 TIMES, CODE SIZE REDUCTION:19 WORDS
                 SUBOPT_0x16:
000f7c e0e2      	LDI  R30,LOW(2)
000f7d 93ea      	ST   -Y,R30
000f7e 940c 0247 	JMP  _read_adc
                 
                 ;OPTIMIZER ADDED SUBROUTINE, CALLED 12 TIMES, CODE SIZE REDUCTION:19 WORDS
                 SUBOPT_0x17:
000f80 e0e3      	LDI  R30,LOW(3)
000f81 93ea      	ST   -Y,R30
000f82 940c 0247 	JMP  _read_adc
                 
                 ;OPTIMIZER ADDED SUBROUTINE, CALLED 12 TIMES, CODE SIZE REDUCTION:19 WORDS
                 SUBOPT_0x18:
000f84 e0e4      	LDI  R30,LOW(4)
000f85 93ea      	ST   -Y,R30
000f86 940c 0247 	JMP  _read_adc
                 
                 ;OPTIMIZER ADDED SUBROUTINE, CALLED 12 TIMES, CODE SIZE REDUCTION:19 WORDS
                 SUBOPT_0x19:
000f88 e0e5      	LDI  R30,LOW(5)
000f89 93ea      	ST   -Y,R30
000f8a 940c 0247 	JMP  _read_adc
                 
                 ;OPTIMIZER ADDED SUBROUTINE, CALLED 12 TIMES, CODE SIZE REDUCTION:19 WORDS
                 SUBOPT_0x1A:
000f8c e0e6      	LDI  R30,LOW(6)
000f8d 93ea      	ST   -Y,R30
000f8e 940c 0247 	JMP  _read_adc
                 
                 ;OPTIMIZER ADDED SUBROUTINE, CALLED 12 TIMES, CODE SIZE REDUCTION:19 WORDS
                 SUBOPT_0x1B:
000f90 e0e7      	LDI  R30,LOW(7)
000f91 93ea      	ST   -Y,R30
000f92 940c 0247 	JMP  _read_adc
                 
                 ;OPTIMIZER ADDED SUBROUTINE, CALLED 3 TIMES, CODE SIZE REDUCTION:1 WORDS
                 SUBOPT_0x1C:
000f94 e0a7      	LDI  R26,LOW(_bt0)
000f95 e0b0      	LDI  R27,HIGH(_bt0)
000f96 940e 113e 	CALL __EEPROMRDB
000f98 9508      	RET
                 
                 ;OPTIMIZER ADDED SUBROUTINE, CALLED 3 TIMES, CODE SIZE REDUCTION:1 WORDS
                 SUBOPT_0x1D:
000f99 e0a6      	LDI  R26,LOW(_bt1)
000f9a e0b0      	LDI  R27,HIGH(_bt1)
000f9b 940e 113e 	CALL __EEPROMRDB
000f9d 9508      	RET
                 
                 ;OPTIMIZER ADDED SUBROUTINE, CALLED 3 TIMES, CODE SIZE REDUCTION:1 WORDS
                 SUBOPT_0x1E:
000f9e e0a5      	LDI  R26,LOW(_bt2)
000f9f e0b0      	LDI  R27,HIGH(_bt2)
000fa0 940e 113e 	CALL __EEPROMRDB
000fa2 9508      	RET
                 
                 ;OPTIMIZER ADDED SUBROUTINE, CALLED 3 TIMES, CODE SIZE REDUCTION:1 WORDS
                 SUBOPT_0x1F:
000fa3 e0a4      	LDI  R26,LOW(_bt3)
000fa4 e0b0      	LDI  R27,HIGH(_bt3)
000fa5 940e 113e 	CALL __EEPROMRDB
000fa7 9508      	RET
                 
                 ;OPTIMIZER ADDED SUBROUTINE, CALLED 3 TIMES, CODE SIZE REDUCTION:1 WORDS
                 SUBOPT_0x20:
000fa8 e0a3      	LDI  R26,LOW(_bt4)
000fa9 e0b0      	LDI  R27,HIGH(_bt4)
000faa 940e 113e 	CALL __EEPROMRDB
000fac 9508      	RET
                 
                 ;OPTIMIZER ADDED SUBROUTINE, CALLED 3 TIMES, CODE SIZE REDUCTION:1 WORDS
                 SUBOPT_0x21:
000fad e0a2      	LDI  R26,LOW(_bt5)
000fae e0b0      	LDI  R27,HIGH(_bt5)
000faf 940e 113e 	CALL __EEPROMRDB
000fb1 9508      	RET
                 
                 ;OPTIMIZER ADDED SUBROUTINE, CALLED 3 TIMES, CODE SIZE REDUCTION:1 WORDS
                 SUBOPT_0x22:
000fb2 e0a1      	LDI  R26,LOW(_bt6)
000fb3 e0b0      	LDI  R27,HIGH(_bt6)
000fb4 940e 113e 	CALL __EEPROMRDB
000fb6 9508      	RET
                 
                 ;OPTIMIZER ADDED SUBROUTINE, CALLED 3 TIMES, CODE SIZE REDUCTION:1 WORDS
                 SUBOPT_0x23:
000fb7 e0a0      	LDI  R26,LOW(_bt7)
000fb8 e0b0      	LDI  R27,HIGH(_bt7)
000fb9 940e 113e 	CALL __EEPROMRDB
000fbb 9508      	RET
                 
                 ;OPTIMIZER ADDED SUBROUTINE, CALLED 2 TIMES, CODE SIZE REDUCTION:3 WORDS
                 SUBOPT_0x24:
000fbc 940e 1112 	CALL __DIVB21U
000fbe 2f1e      	MOV  R17,R30
000fbf 5d10      	SUBI R17,-LOW(48)
000fc0 931a      	ST   -Y,R17
000fc1 940e 0e4e 	CALL _lcd_putchar
000fc3 81a9      	LDD  R26,Y+1
000fc4 9508      	RET
                 
                 ;OPTIMIZER ADDED SUBROUTINE, CALLED 17 TIMES, CODE SIZE REDUCTION:61 WORDS
                 SUBOPT_0x25:
000fc5 e0e0      	LDI  R30,LOW(0)
000fc6 93ea      	ST   -Y,R30
000fc7 93ea      	ST   -Y,R30
000fc8 940c 0e22 	JMP  _lcd_gotoxy
                 
                 ;OPTIMIZER ADDED SUBROUTINE, CALLED 7 TIMES, CODE SIZE REDUCTION:9 WORDS
                 SUBOPT_0x26:
000fca 940e 0e36 	CALL _lcd_clear
000fcc cff8      	RJMP SUBOPT_0x25
                 
                 ;OPTIMIZER ADDED SUBROUTINE, CALLED 12 TIMES, CODE SIZE REDUCTION:19 WORDS
                 SUBOPT_0x27:
000fcd e9e6      	LDI  R30,LOW(150)
000fce e0f0      	LDI  R31,HIGH(150)
000fcf cf2d      	RJMP SUBOPT_0x4
                 
                 ;OPTIMIZER ADDED SUBROUTINE, CALLED 9 TIMES, CODE SIZE REDUCTION:13 WORDS
                 SUBOPT_0x28:
000fd0 e0e0      	LDI  R30,LOW(0)
000fd1 93ea      	ST   -Y,R30
000fd2 940c 0e4e 	JMP  _lcd_putchar
                 
                 ;OPTIMIZER ADDED SUBROUTINE, CALLED 17 TIMES, CODE SIZE REDUCTION:29 WORDS
                 SUBOPT_0x29:
000fd4 e2e0      	LDI  R30,LOW(32)
000fd5 93ea      	ST   -Y,R30
000fd6 940c 0e4e 	JMP  _lcd_putchar
                 
                 ;OPTIMIZER ADDED SUBROUTINE, CALLED 5 TIMES, CODE SIZE REDUCTION:9 WORDS
                 SUBOPT_0x2A:
000fd8 93ea      	ST   -Y,R30
000fd9 940e 03c4 	CALL _tampil
000fdb cff8      	RJMP SUBOPT_0x29
                 
                 ;OPTIMIZER ADDED SUBROUTINE, CALLED 2 TIMES, CODE SIZE REDUCTION:1 WORDS
                 SUBOPT_0x2B:
000fdc e0e0      	LDI  R30,LOW(0)
000fdd 93ea      	ST   -Y,R30
000fde 940e 0e22 	CALL _lcd_gotoxy
000fe0 cfef      	RJMP SUBOPT_0x28
                 
                 ;OPTIMIZER ADDED SUBROUTINE, CALLED 4 TIMES, CODE SIZE REDUCTION:6 WORDS
                 SUBOPT_0x2C:
000fe1 93ea      	ST   -Y,R30
000fe2 940e 0436 	CALL _setByte
000fe4 cf1c      	RJMP SUBOPT_0x5
                 
                 ;OPTIMIZER ADDED SUBROUTINE, CALLED 11 TIMES, CODE SIZE REDUCTION:27 WORDS
                 SUBOPT_0x2D:
000fe5 93ea      	ST   -Y,R30
000fe6 e0e1      	LDI  R30,LOW(1)
000fe7 93ea      	ST   -Y,R30
000fe8 940c 0e22 	JMP  _lcd_gotoxy
                 
                 ;OPTIMIZER ADDED SUBROUTINE, CALLED 11 TIMES, CODE SIZE REDUCTION:17 WORDS
                 SUBOPT_0x2E:
000fea e1a0      	LDI  R26,LOW(_Mode)
000feb e0b0      	LDI  R27,HIGH(_Mode)
000fec 940e 113e 	CALL __EEPROMRDB
000fee 9508      	RET
                 
                 ;OPTIMIZER ADDED SUBROUTINE, CALLED 6 TIMES, CODE SIZE REDUCTION:7 WORDS
                 SUBOPT_0x2F:
000fef e8e2
000ff0 e0f2      	__POINTW1FN _0,504
000ff1 cef9      	RJMP SUBOPT_0x1
                 
                 ;OPTIMIZER ADDED SUBROUTINE, CALLED 10 TIMES, CODE SIZE REDUCTION:24 WORDS
                 SUBOPT_0x30:
000ff2 93ea      	ST   -Y,R30
000ff3 e0e0      	LDI  R30,LOW(0)
000ff4 93ea      	ST   -Y,R30
000ff5 940c 0e22 	JMP  _lcd_gotoxy
                 
                 ;OPTIMIZER ADDED SUBROUTINE, CALLED 22 TIMES, CODE SIZE REDUCTION:39 WORDS
                 SUBOPT_0x31:
000ff7 e6e0      	LDI  R30,LOW(_lcd)
000ff8 e0f1      	LDI  R31,HIGH(_lcd)
000ff9 93fa      	ST   -Y,R31
000ffa 93ea      	ST   -Y,R30
000ffb 9508      	RET
                 
                 ;OPTIMIZER ADDED SUBROUTINE, CALLED 40 TIMES, CODE SIZE REDUCTION:114 WORDS
                 SUBOPT_0x32:
000ffc 27ff      	CLR  R31
000ffd 2766      	CLR  R22
000ffe 2777      	CLR  R23
000fff 940e 1139 	CALL __PUTPARD1
001001 9508      	RET
                 
                 ;OPTIMIZER ADDED SUBROUTINE, CALLED 2 TIMES, CODE SIZE REDUCTION:1 WORDS
                 SUBOPT_0x33:
001002 e180      	LDI  R24,16
001003 940e 0dad 	CALL _sprintf
001005 9664      	ADIW R28,20
001006 cff0      	RJMP SUBOPT_0x31
                 
                 ;OPTIMIZER ADDED SUBROUTINE, CALLED 2 TIMES, CODE SIZE REDUCTION:2 WORDS
                 SUBOPT_0x34:
001007 91a0 017f 	LDS  R26,_xcount
001009 e0b0      	LDI  R27,0
00100a 17ea      	CP   R30,R26
00100b 07fb      	CPC  R31,R27
00100c 9508      	RET
                 
                 ;OPTIMIZER ADDED SUBROUTINE, CALLED 2 TIMES, CODE SIZE REDUCTION:6 WORDS
                 SUBOPT_0x35:
00100d 91e0 0176 	LDS  R30,_ba0
00100f 91a0 017e 	LDS  R26,_bb0
001011 0fae      	ADD  R26,R30
001012 2fea      	MOV  R30,R26
001013 95e6      	LSR  R30
001014 e0a7      	LDI  R26,LOW(_bt0)
001015 e0b0      	LDI  R27,HIGH(_bt0)
001016 940e 114a 	CALL __EEPROMWRB
001018 9508      	RET
                 
                 ;OPTIMIZER ADDED SUBROUTINE, CALLED 9 TIMES, CODE SIZE REDUCTION:21 WORDS
                 SUBOPT_0x36:
001019 940e 0e36 	CALL _lcd_clear
00101b e0e1      	LDI  R30,LOW(1)
00101c cfd5      	RJMP SUBOPT_0x30
                 
                 ;OPTIMIZER ADDED SUBROUTINE, CALLED 8 TIMES, CODE SIZE REDUCTION:11 WORDS
                 SUBOPT_0x37:
00101d e1ea
00101e e0f3      	__POINTW1FN _0,656
00101f 93fa      	ST   -Y,R31
001020 93ea      	ST   -Y,R30
001021 9508      	RET
                 
                 ;OPTIMIZER ADDED SUBROUTINE, CALLED 8 TIMES, CODE SIZE REDUCTION:25 WORDS
                 SUBOPT_0x38:
001022 e08c      	LDI  R24,12
001023 940e 0dad 	CALL _sprintf
001025 9660      	ADIW R28,16
001026 cfd0      	RJMP SUBOPT_0x31
                 
                 ;OPTIMIZER ADDED SUBROUTINE, CALLED 2 TIMES, CODE SIZE REDUCTION:1 WORDS
                 SUBOPT_0x39:
001027 940e 0e76 	CALL _lcd_puts
001029 e3e2      	LDI  R30,LOW(50)
00102a e0f0      	LDI  R31,HIGH(50)
00102b ced1      	RJMP SUBOPT_0x4
                 
                 ;OPTIMIZER ADDED SUBROUTINE, CALLED 2 TIMES, CODE SIZE REDUCTION:6 WORDS
                 SUBOPT_0x3A:
00102c 91e0 0175 	LDS  R30,_ba1
00102e 91a0 017d 	LDS  R26,_bb1
001030 0fae      	ADD  R26,R30
001031 2fea      	MOV  R30,R26
001032 95e6      	LSR  R30
001033 e0a6      	LDI  R26,LOW(_bt1)
001034 e0b0      	LDI  R27,HIGH(_bt1)
001035 940e 114a 	CALL __EEPROMWRB
001037 9508      	RET
                 
                 ;OPTIMIZER ADDED SUBROUTINE, CALLED 2 TIMES, CODE SIZE REDUCTION:6 WORDS
                 SUBOPT_0x3B:
001038 91e0 0174 	LDS  R30,_ba2
00103a 91a0 017c 	LDS  R26,_bb2
00103c 0fae      	ADD  R26,R30
00103d 2fea      	MOV  R30,R26
00103e 95e6      	LSR  R30
00103f e0a5      	LDI  R26,LOW(_bt2)
001040 e0b0      	LDI  R27,HIGH(_bt2)
001041 940e 114a 	CALL __EEPROMWRB
001043 9508      	RET
                 
                 ;OPTIMIZER ADDED SUBROUTINE, CALLED 6 TIMES, CODE SIZE REDUCTION:17 WORDS
                 SUBOPT_0x3C:
001044 940e 0e76 	CALL _lcd_puts
001046 e0ea      	LDI  R30,LOW(10)
001047 e0f0      	LDI  R31,HIGH(10)
001048 ceb4      	RJMP SUBOPT_0x4
                 
                 ;OPTIMIZER ADDED SUBROUTINE, CALLED 2 TIMES, CODE SIZE REDUCTION:6 WORDS
                 SUBOPT_0x3D:
001049 91e0 0173 	LDS  R30,_ba3
00104b 91a0 017b 	LDS  R26,_bb3
00104d 0fae      	ADD  R26,R30
00104e 2fea      	MOV  R30,R26
00104f 95e6      	LSR  R30
001050 e0a4      	LDI  R26,LOW(_bt3)
001051 e0b0      	LDI  R27,HIGH(_bt3)
001052 940e 114a 	CALL __EEPROMWRB
001054 9508      	RET
                 
                 ;OPTIMIZER ADDED SUBROUTINE, CALLED 2 TIMES, CODE SIZE REDUCTION:6 WORDS
                 SUBOPT_0x3E:
001055 91e0 0172 	LDS  R30,_ba4
001057 91a0 017a 	LDS  R26,_bb4
001059 0fae      	ADD  R26,R30
00105a 2fea      	MOV  R30,R26
00105b 95e6      	LSR  R30
00105c e0a3      	LDI  R26,LOW(_bt4)
00105d e0b0      	LDI  R27,HIGH(_bt4)
00105e 940e 114a 	CALL __EEPROMWRB
001060 9508      	RET
                 
                 ;OPTIMIZER ADDED SUBROUTINE, CALLED 2 TIMES, CODE SIZE REDUCTION:6 WORDS
                 SUBOPT_0x3F:
001061 91e0 0171 	LDS  R30,_ba5
001063 91a0 0179 	LDS  R26,_bb5
001065 0fae      	ADD  R26,R30
001066 2fea      	MOV  R30,R26
001067 95e6      	LSR  R30
001068 e0a2      	LDI  R26,LOW(_bt5)
001069 e0b0      	LDI  R27,HIGH(_bt5)
00106a 940e 114a 	CALL __EEPROMWRB
00106c 9508      	RET
                 
                 ;OPTIMIZER ADDED SUBROUTINE, CALLED 2 TIMES, CODE SIZE REDUCTION:6 WORDS
                 SUBOPT_0x40:
00106d 91e0 0170 	LDS  R30,_ba6
00106f 91a0 0178 	LDS  R26,_bb6
001071 0fae      	ADD  R26,R30
001072 2fea      	MOV  R30,R26
001073 95e6      	LSR  R30
001074 e0a1      	LDI  R26,LOW(_bt6)
001075 e0b0      	LDI  R27,HIGH(_bt6)
001076 940e 114a 	CALL __EEPROMWRB
001078 9508      	RET
                 
                 ;OPTIMIZER ADDED SUBROUTINE, CALLED 2 TIMES, CODE SIZE REDUCTION:7 WORDS
                 SUBOPT_0x41:
001079 2dec      	MOV  R30,R12
00107a 91a0 0177 	LDS  R26,_bb7
00107c 0fae      	ADD  R26,R30
00107d 2fea      	MOV  R30,R26
00107e 95e6      	LSR  R30
00107f e0a0      	LDI  R26,LOW(_bt7)
001080 e0b0      	LDI  R27,HIGH(_bt7)
001081 940e 114a 	CALL __EEPROMWRB
001083 cf95      	RJMP SUBOPT_0x36
                 
                 ;OPTIMIZER ADDED SUBROUTINE, CALLED 7 TIMES, CODE SIZE REDUCTION:45 WORDS
                 SUBOPT_0x42:
001084 93e0 018c 	STS  _error,R30
001086 93f0 018d 	STS  _error+1,R31
001088 e0e1      	LDI  R30,LOW(1)
001089 e0f0      	LDI  R31,HIGH(1)
00108a 93e0 01c0 	STS  _x,R30
00108c 93f0 01c1 	STS  _x+1,R31
00108e 9508      	RET
                 
                 ;OPTIMIZER ADDED SUBROUTINE, CALLED 7 TIMES, CODE SIZE REDUCTION:39 WORDS
                 SUBOPT_0x43:
00108f 93e0 018c 	STS  _error,R30
001091 93f0 018d 	STS  _error+1,R31
001093 e0e0      	LDI  R30,0
001094 93e0 01c0 	STS  _x,R30
001096 93e0 01c1 	STS  _x+1,R30
001098 9508      	RET
                 
                 ;OPTIMIZER ADDED SUBROUTINE, CALLED 3 TIMES, CODE SIZE REDUCTION:1 WORDS
                 SUBOPT_0x44:
001099 91e0 018c 	LDS  R30,_error
00109b 91f0 018d 	LDS  R31,_error+1
00109d 9508      	RET
                 
                 ;OPTIMIZER ADDED SUBROUTINE, CALLED 4 TIMES, CODE SIZE REDUCTION:24 WORDS
                 SUBOPT_0x45:
00109e 932a      	ST   -Y,R18
00109f 85ef      	LDD  R30,Y+15
0010a0 89f8      	LDD  R31,Y+15+1
0010a1 93fa      	ST   -Y,R31
0010a2 93ea      	ST   -Y,R30
0010a3 01fe      	MOVW R30,R28
0010a4 963f      	ADIW R30,15
0010a5 93fa      	ST   -Y,R31
0010a6 93ea      	ST   -Y,R30
0010a7 940c 0c54 	JMP  __put_G2
                 
                 ;OPTIMIZER ADDED SUBROUTINE, CALLED 5 TIMES, CODE SIZE REDUCTION:13 WORDS
                 SUBOPT_0x46:
0010a9 89a8      	LDD  R26,Y+16
0010aa 89b9      	LDD  R27,Y+16+1
0010ab 9714      	SBIW R26,4
0010ac 8ba8      	STD  Y+16,R26
0010ad 8bb9      	STD  Y+16+1,R27
0010ae 9614      	ADIW R26,4
0010af 9508      	RET
                 
                 ;OPTIMIZER ADDED SUBROUTINE, CALLED 2 TIMES, CODE SIZE REDUCTION:6 WORDS
                 SUBOPT_0x47:
0010b0 93ea      	ST   -Y,R30
0010b1 85ef      	LDD  R30,Y+15
0010b2 89f8      	LDD  R31,Y+15+1
0010b3 93fa      	ST   -Y,R31
0010b4 93ea      	ST   -Y,R30
0010b5 01fe      	MOVW R30,R28
0010b6 963f      	ADIW R30,15
0010b7 93fa      	ST   -Y,R31
0010b8 93ea      	ST   -Y,R30
0010b9 940c 0c54 	JMP  __put_G2
                 
                 ;OPTIMIZER ADDED SUBROUTINE, CALLED 2 TIMES, CODE SIZE REDUCTION:3 WORDS
                 SUBOPT_0x48:
0010bb 940e 1131 	CALL __GETW1P
0010bd 83ee      	STD  Y+6,R30
0010be 83ff      	STD  Y+6+1,R31
0010bf 93fa      	ST   -Y,R31
0010c0 93ea      	ST   -Y,R30
0010c1 9508      	RET
                 
                 ;OPTIMIZER ADDED SUBROUTINE, CALLED 2 TIMES, CODE SIZE REDUCTION:5 WORDS
                 SUBOPT_0x49:
0010c2 85ef      	LDD  R30,Y+15
0010c3 89f8      	LDD  R31,Y+15+1
0010c4 93fa      	ST   -Y,R31
0010c5 93ea      	ST   -Y,R30
0010c6 01fe      	MOVW R30,R28
0010c7 963f      	ADIW R30,15
0010c8 93fa      	ST   -Y,R31
0010c9 93ea      	ST   -Y,R30
0010ca 940c 0c54 	JMP  __put_G2
                 
                 ;OPTIMIZER ADDED SUBROUTINE, CALLED 3 TIMES, CODE SIZE REDUCTION:5 WORDS
                 SUBOPT_0x4A:
0010cc 940e 0e97 	CALL __long_delay_G3
0010ce e3e0      	LDI  R30,LOW(48)
0010cf 93ea      	ST   -Y,R30
0010d0 940c 0e9c 	JMP  __lcd_init_write_G3
                 
                 ;OPTIMIZER ADDED SUBROUTINE, CALLED 3 TIMES, CODE SIZE REDUCTION:3 WORDS
                 SUBOPT_0x4B:
0010d2 93ea      	ST   -Y,R30
0010d3 940e 0dfe 	CALL __lcd_write_data
0010d5 940c 0e97 	JMP  __long_delay_G3
                 
                 _strlen:
0010d7 91a9      	ld   r26,y+
0010d8 91b9      	ld   r27,y+
0010d9 27ee      	clr  r30
0010da 27ff      	clr  r31
                 __strlen0:
0010db 916d      	ld   r22,x+
0010dc 2366      	tst  r22
0010dd f011      	breq __strlen1
0010de 9631      	adiw r30,1
0010df cffb      	rjmp __strlen0
                 __strlen1:
0010e0 9508      	ret
                 
                 _strlenf:
0010e1 27aa      	clr  r26
0010e2 27bb      	clr  r27
0010e3 91e9      	ld   r30,y+
0010e4 91f9      	ld   r31,y+
                 __strlenf0:
0010e5 9005      	lpm  r0,z+
0010e6 2000      	tst  r0
0010e7 f011      	breq __strlenf1
0010e8 9611      	adiw r26,1
0010e9 cffb      	rjmp __strlenf0
                 __strlenf1:
0010ea 01fd      	movw r30,r26
0010eb 9508      	ret
                 
                 _delay_ms:
0010ec 91e9      	ld   r30,y+
0010ed 91f9      	ld   r31,y+
0010ee 9630      	adiw r30,0
0010ef f039      	breq __delay_ms1
                 __delay_ms0:
0010f0 ed80
0010f1 e097
0010f2 9701
0010f3 f7f1      	__DELAY_USW 0x7D0
0010f4 95a8      	wdr
0010f5 9731      	sbiw r30,1
0010f6 f7c9      	brne __delay_ms0
                 __delay_ms1:
0010f7 9508      	ret
                 
                 __ADDW2R15:
0010f8 2400      	CLR  R0
0010f9 0daf      	ADD  R26,R15
0010fa 1db0      	ADC  R27,R0
0010fb 9508      	RET
                 
                 __ANEGW1:
0010fc 95e0      	COM  R30
0010fd 95f0      	COM  R31
0010fe 9631      	ADIW R30,1
0010ff 9508      	RET
                 
                 __CWD1:
001100 2f6f      	MOV  R22,R31
001101 0f66      	ADD  R22,R22
001102 0b66      	SBC  R22,R22
001103 2f76      	MOV  R23,R22
001104 9508      	RET
                 
                 __MULW12U:
001105 9ffa      	MUL  R31,R26
001106 2df0      	MOV  R31,R0
001107 9feb      	MUL  R30,R27
001108 0df0      	ADD  R31,R0
001109 9fea      	MUL  R30,R26
00110a 2de0      	MOV  R30,R0
00110b 0df1      	ADD  R31,R1
00110c 9508      	RET
                 
                 __MULW12:
00110d d015      	RCALL __CHKSIGNW
00110e dff6      	RCALL __MULW12U
00110f f40e      	BRTC __MULW121
001110 dfeb      	RCALL __ANEGW1
                 __MULW121:
001111 9508      	RET
                 
                 __DIVB21U:
001112 2400      	CLR  R0
001113 e098      	LDI  R25,8
                 __DIVB21U1:
001114 0faa      	LSL  R26
001115 1c00      	ROL  R0
001116 1a0e      	SUB  R0,R30
001117 f410      	BRCC __DIVB21U2
001118 0e0e      	ADD  R0,R30
001119 c001      	RJMP __DIVB21U3
                 __DIVB21U2:
00111a 60a1      	SBR  R26,1
                 __DIVB21U3:
00111b 959a      	DEC  R25
00111c f7b9      	BRNE __DIVB21U1
00111d 2fea      	MOV  R30,R26
00111e 2da0      	MOV  R26,R0
00111f 9508      	RET
                 
                 __MODB21U:
001120 dff1      	RCALL __DIVB21U
001121 2fea      	MOV  R30,R26
001122 9508      	RET
                 
                 __CHKSIGNW:
001123 94e8      	CLT
001124 fff7      	SBRS R31,7
001125 c002      	RJMP __CHKSW1
001126 dfd5      	RCALL __ANEGW1
001127 9468      	SET
                 __CHKSW1:
001128 ffb7      	SBRS R27,7
001129 c006      	RJMP __CHKSW2
00112a 95a0      	COM  R26
00112b 95b0      	COM  R27
00112c 9611      	ADIW R26,1
00112d f800      	BLD  R0,0
00112e 9403      	INC  R0
00112f fa00      	BST  R0,0
                 __CHKSW2:
001130 9508      	RET
                 
                 __GETW1P:
001131 91ed      	LD   R30,X+
001132 91fc      	LD   R31,X
001133 9711      	SBIW R26,1
001134 9508      	RET
                 
                 __GETW1PF:
001135 9005      	LPM  R0,Z+
001136 91f4      	LPM  R31,Z
001137 2de0      	MOV  R30,R0
001138 9508      	RET
                 
                 __PUTPARD1:
001139 937a      	ST   -Y,R23
00113a 936a      	ST   -Y,R22
00113b 93fa      	ST   -Y,R31
00113c 93ea      	ST   -Y,R30
00113d 9508      	RET
                 
                 __EEPROMRDB:
00113e 99e1      	SBIC EECR,EEWE
00113f cffe      	RJMP __EEPROMRDB
001140 93ff      	PUSH R31
001141 b7ff      	IN   R31,SREG
001142 94f8      	CLI
001143 bbae      	OUT  EEARL,R26
001144 bbbf      	OUT  EEARH,R27
001145 9ae0      	SBI  EECR,EERE
001146 b3ed      	IN   R30,EEDR
001147 bfff      	OUT  SREG,R31
001148 91ff      	POP  R31
001149 9508      	RET
                 
                 __EEPROMWRB:
00114a 99e1      	SBIC EECR,EEWE
00114b cffe      	RJMP __EEPROMWRB
00114c b79f      	IN   R25,SREG
00114d 94f8      	CLI
00114e bbae      	OUT  EEARL,R26
00114f bbbf      	OUT  EEARH,R27
001150 9ae0      	SBI  EECR,EERE
001151 b38d      	IN   R24,EEDR
001152 17e8      	CP   R30,R24
001153 f019      	BREQ __EEPROMWRB0
001154 bbed      	OUT  EEDR,R30
001155 9ae2      	SBI  EECR,EEMWE
001156 9ae1      	SBI  EECR,EEWE
                 __EEPROMWRB0:
001157 bf9f      	OUT  SREG,R25
001158 9508      	RET
                 
                 __CPW02:
001159 2400      	CLR  R0
00115a 160a      	CP   R0,R26
00115b 060b      	CPC  R0,R27
00115c 9508      	RET
                 
                 __SAVELOCR6:
00115d 935a      	ST   -Y,R21
                 __SAVELOCR5:
00115e 934a      	ST   -Y,R20
                 __SAVELOCR4:
00115f 933a      	ST   -Y,R19
                 __SAVELOCR3:
001160 932a      	ST   -Y,R18
                 __SAVELOCR2:
001161 931a      	ST   -Y,R17
001162 930a      	ST   -Y,R16
001163 9508      	RET
                 
                 __LOADLOCR6:
001164 815d      	LDD  R21,Y+5
                 __LOADLOCR5:
001165 814c      	LDD  R20,Y+4
                 __LOADLOCR4:
001166 813b      	LDD  R19,Y+3
                 __LOADLOCR3:
001167 812a      	LDD  R18,Y+2
                 __LOADLOCR2:
001168 8119      	LDD  R17,Y+1
001169 8108      	LD   R16,Y
00116a 9508      	RET
                 
                 ;END OF CODE MARKER
                 __END_OF_CODE:


RESOURCE USE INFORMATION
------------------------

Notice:
The register and instruction counts are symbol table hit counts,
and hence implicitly used resources are not counted, eg, the
'lpm' instruction without operands implicitly uses r0 and z,
none of which are counted.

x,y,z are separate entities in the symbol table and are
counted separately from r26..r31 here.

.dseg memory usage only counts static data declared with .byte

ATmega16 register use summary:
r0 :  27 r1 :   2 r2 :  24 r3 :   0 r4 :   2 r5 :  23 r6 :   2 r7 :   2 
r8 :   2 r9 :   2 r10:   2 r11:   2 r12:   6 r13:   2 r14:   0 r15:   4 
r16:  45 r17:  60 r18:  25 r19:  16 r20:   9 r21:  17 r22:  14 r23:   4 
r24:  19 r25:   7 r26: 246 r27:  92 r28:  29 r29:   1 r30: 921 r31: 213 
x  :  16 y  : 285 z  :  15 
Registers used: 33 out of 35 (94.3%)

ATmega16 instruction use summary:
adc   :   3 add   :  17 adiw  :  40 and   :   0 andi  :  10 asr   :   0 
bclr  :   0 bld   :  17 brbc  :   0 brbs  :   0 brcc  :   1 brcs  :   0 
break :   0 breq  :  23 brge  :   4 brhc  :   0 brhs  :   0 brid  :   0 
brie  :   0 brlo  :   7 brlt  :   6 brmi  :   0 brne  :  95 brpl  :   0 
brsh  :  43 brtc  :   1 brts  :   1 brvc  :   0 brvs  :   0 bset  :   0 
bst   :   1 call  : 684 cbi   :  30 cbr   :   0 clc   :   0 clh   :   0 
cli   :   4 cln   :   0 clr   :  15 cls   :   0 clt   :  10 clv   :   0 
clz   :   0 com   :   4 cp    :  62 cpc   :   8 cpi   :  95 cpse  :   0 
dec   :   4 eor   :   0 fmul  :   0 fmuls :   0 fmulsu:   0 icall :   0 
ijmp  :   0 in    :  15 inc   :   1 jmp   :  50 ld    :  42 ldd   :  71 
ldi   : 485 lds   : 113 lpm   :  13 lsl   :   1 lsr   :  11 mov   :  84 
movw  :  17 mul   :   4 muls  :   0 mulsu :   0 neg   :   0 nop   :   0 
or    :  10 ori   :   9 out   :  58 pop   :   4 push  :   4 rcall :  22 
ret   :  94 reti  :   1 rjmp  : 244 rol   :   1 ror   :   0 sbc   :   4 
sbci  :   2 sbi   :  27 sbic  :  44 sbis  :  10 sbiw  :  23 sbr   :   1 
sbrc  :   3 sbrs  :  20 sec   :   0 seh   :   0 sei   :   2 sen   :   0 
ser   :   0 ses   :   0 set   :  10 sev   :   0 sez   :   0 sleep :   0 
spm   :   0 st    : 155 std   :  35 sts   :  99 sub   :   5 subi  :  36 
swap  :   2 tst   :   2 wdr   :   1 
Instructions used: 67 out of 111 (60.4%)

ATmega16 memory use summary [bytes]:
Segment   Begin    End      Code   Data   Used    Size   Use%
---------------------------------------------------------------
[.cseg] 0x000000 0x0022d6   7932    986   8918   16384  54.4%
[.dseg] 0x000060 0x0001c9      0    105    105    1024  10.3%
[.eseg] 0x000000 0x000011      0     17     17     512   3.3%

Assembly complete, 0 errors, 26 warnings
